Archive member included because of file (symbol)

/home/sbcm/Dropbox/pcb-layouts/axo-427-core/ksoloti/platform_linux/bin/../lib/gcc/arm-none-eabi/4.9.3/../../../../arm-none-eabi/lib/armv7e-m/fpu/libm.a(lib_a-sf_cos.o)
                              build/obj/axoloti_math.o (cosf)
/home/sbcm/Dropbox/pcb-layouts/axo-427-core/ksoloti/platform_linux/bin/../lib/gcc/arm-none-eabi/4.9.3/../../../../arm-none-eabi/lib/armv7e-m/fpu/libm.a(lib_a-sf_sin.o)
                              build/obj/axoloti_math.o (sinf)
/home/sbcm/Dropbox/pcb-layouts/axo-427-core/ksoloti/platform_linux/bin/../lib/gcc/arm-none-eabi/4.9.3/../../../../arm-none-eabi/lib/armv7e-m/fpu/libm.a(lib_a-w_log.o)
                              build/obj/axoloti_math.o (log)
/home/sbcm/Dropbox/pcb-layouts/axo-427-core/ksoloti/platform_linux/bin/../lib/gcc/arm-none-eabi/4.9.3/../../../../arm-none-eabi/lib/armv7e-m/fpu/libm.a(lib_a-w_pow.o)
                              build/obj/axoloti_math.o (pow)
/home/sbcm/Dropbox/pcb-layouts/axo-427-core/ksoloti/platform_linux/bin/../lib/gcc/arm-none-eabi/4.9.3/../../../../arm-none-eabi/lib/armv7e-m/fpu/libm.a(lib_a-wf_pow.o)
                              build/obj/axoloti_math.o (powf)
/home/sbcm/Dropbox/pcb-layouts/axo-427-core/ksoloti/platform_linux/bin/../lib/gcc/arm-none-eabi/4.9.3/../../../../arm-none-eabi/lib/armv7e-m/fpu/libm.a(lib_a-e_log.o)
                              /home/sbcm/Dropbox/pcb-layouts/axo-427-core/ksoloti/platform_linux/bin/../lib/gcc/arm-none-eabi/4.9.3/../../../../arm-none-eabi/lib/armv7e-m/fpu/libm.a(lib_a-w_log.o) (__ieee754_log)
/home/sbcm/Dropbox/pcb-layouts/axo-427-core/ksoloti/platform_linux/bin/../lib/gcc/arm-none-eabi/4.9.3/../../../../arm-none-eabi/lib/armv7e-m/fpu/libm.a(lib_a-e_pow.o)
                              /home/sbcm/Dropbox/pcb-layouts/axo-427-core/ksoloti/platform_linux/bin/../lib/gcc/arm-none-eabi/4.9.3/../../../../arm-none-eabi/lib/armv7e-m/fpu/libm.a(lib_a-w_pow.o) (__ieee754_pow)
/home/sbcm/Dropbox/pcb-layouts/axo-427-core/ksoloti/platform_linux/bin/../lib/gcc/arm-none-eabi/4.9.3/../../../../arm-none-eabi/lib/armv7e-m/fpu/libm.a(lib_a-e_sqrt.o)
                              /home/sbcm/Dropbox/pcb-layouts/axo-427-core/ksoloti/platform_linux/bin/../lib/gcc/arm-none-eabi/4.9.3/../../../../arm-none-eabi/lib/armv7e-m/fpu/libm.a(lib_a-e_pow.o) (__ieee754_sqrt)
/home/sbcm/Dropbox/pcb-layouts/axo-427-core/ksoloti/platform_linux/bin/../lib/gcc/arm-none-eabi/4.9.3/../../../../arm-none-eabi/lib/armv7e-m/fpu/libm.a(lib_a-ef_pow.o)
                              /home/sbcm/Dropbox/pcb-layouts/axo-427-core/ksoloti/platform_linux/bin/../lib/gcc/arm-none-eabi/4.9.3/../../../../arm-none-eabi/lib/armv7e-m/fpu/libm.a(lib_a-wf_pow.o) (__ieee754_powf)
/home/sbcm/Dropbox/pcb-layouts/axo-427-core/ksoloti/platform_linux/bin/../lib/gcc/arm-none-eabi/4.9.3/../../../../arm-none-eabi/lib/armv7e-m/fpu/libm.a(lib_a-ef_rem_pio2.o)
                              /home/sbcm/Dropbox/pcb-layouts/axo-427-core/ksoloti/platform_linux/bin/../lib/gcc/arm-none-eabi/4.9.3/../../../../arm-none-eabi/lib/armv7e-m/fpu/libm.a(lib_a-sf_cos.o) (__ieee754_rem_pio2f)
/home/sbcm/Dropbox/pcb-layouts/axo-427-core/ksoloti/platform_linux/bin/../lib/gcc/arm-none-eabi/4.9.3/../../../../arm-none-eabi/lib/armv7e-m/fpu/libm.a(lib_a-ef_sqrt.o)
                              /home/sbcm/Dropbox/pcb-layouts/axo-427-core/ksoloti/platform_linux/bin/../lib/gcc/arm-none-eabi/4.9.3/../../../../arm-none-eabi/lib/armv7e-m/fpu/libm.a(lib_a-ef_pow.o) (__ieee754_sqrtf)
/home/sbcm/Dropbox/pcb-layouts/axo-427-core/ksoloti/platform_linux/bin/../lib/gcc/arm-none-eabi/4.9.3/../../../../arm-none-eabi/lib/armv7e-m/fpu/libm.a(lib_a-kf_cos.o)
                              /home/sbcm/Dropbox/pcb-layouts/axo-427-core/ksoloti/platform_linux/bin/../lib/gcc/arm-none-eabi/4.9.3/../../../../arm-none-eabi/lib/armv7e-m/fpu/libm.a(lib_a-sf_cos.o) (__kernel_cosf)
/home/sbcm/Dropbox/pcb-layouts/axo-427-core/ksoloti/platform_linux/bin/../lib/gcc/arm-none-eabi/4.9.3/../../../../arm-none-eabi/lib/armv7e-m/fpu/libm.a(lib_a-kf_rem_pio2.o)
                              /home/sbcm/Dropbox/pcb-layouts/axo-427-core/ksoloti/platform_linux/bin/../lib/gcc/arm-none-eabi/4.9.3/../../../../arm-none-eabi/lib/armv7e-m/fpu/libm.a(lib_a-ef_rem_pio2.o) (__kernel_rem_pio2f)
/home/sbcm/Dropbox/pcb-layouts/axo-427-core/ksoloti/platform_linux/bin/../lib/gcc/arm-none-eabi/4.9.3/../../../../arm-none-eabi/lib/armv7e-m/fpu/libm.a(lib_a-kf_sin.o)
                              /home/sbcm/Dropbox/pcb-layouts/axo-427-core/ksoloti/platform_linux/bin/../lib/gcc/arm-none-eabi/4.9.3/../../../../arm-none-eabi/lib/armv7e-m/fpu/libm.a(lib_a-sf_cos.o) (__kernel_sinf)
/home/sbcm/Dropbox/pcb-layouts/axo-427-core/ksoloti/platform_linux/bin/../lib/gcc/arm-none-eabi/4.9.3/../../../../arm-none-eabi/lib/armv7e-m/fpu/libm.a(lib_a-s_fabs.o)
                              /home/sbcm/Dropbox/pcb-layouts/axo-427-core/ksoloti/platform_linux/bin/../lib/gcc/arm-none-eabi/4.9.3/../../../../arm-none-eabi/lib/armv7e-m/fpu/libm.a(lib_a-e_pow.o) (fabs)
/home/sbcm/Dropbox/pcb-layouts/axo-427-core/ksoloti/platform_linux/bin/../lib/gcc/arm-none-eabi/4.9.3/../../../../arm-none-eabi/lib/armv7e-m/fpu/libm.a(lib_a-s_finite.o)
                              /home/sbcm/Dropbox/pcb-layouts/axo-427-core/ksoloti/platform_linux/bin/../lib/gcc/arm-none-eabi/4.9.3/../../../../arm-none-eabi/lib/armv7e-m/fpu/libm.a(lib_a-w_pow.o) (finite)
/home/sbcm/Dropbox/pcb-layouts/axo-427-core/ksoloti/platform_linux/bin/../lib/gcc/arm-none-eabi/4.9.3/../../../../arm-none-eabi/lib/armv7e-m/fpu/libm.a(lib_a-s_fpclassify.o)
                              /home/sbcm/Dropbox/pcb-layouts/axo-427-core/ksoloti/platform_linux/bin/../lib/gcc/arm-none-eabi/4.9.3/../../../../arm-none-eabi/lib/armv7e-m/fpu/libm.a(lib_a-w_log.o) (__fpclassifyd)
/home/sbcm/Dropbox/pcb-layouts/axo-427-core/ksoloti/platform_linux/bin/../lib/gcc/arm-none-eabi/4.9.3/../../../../arm-none-eabi/lib/armv7e-m/fpu/libm.a(lib_a-s_lib_ver.o)
                              /home/sbcm/Dropbox/pcb-layouts/axo-427-core/ksoloti/platform_linux/bin/../lib/gcc/arm-none-eabi/4.9.3/../../../../arm-none-eabi/lib/armv7e-m/fpu/libm.a(lib_a-w_log.o) (__fdlib_version)
/home/sbcm/Dropbox/pcb-layouts/axo-427-core/ksoloti/platform_linux/bin/../lib/gcc/arm-none-eabi/4.9.3/../../../../arm-none-eabi/lib/armv7e-m/fpu/libm.a(lib_a-s_matherr.o)
                              /home/sbcm/Dropbox/pcb-layouts/axo-427-core/ksoloti/platform_linux/bin/../lib/gcc/arm-none-eabi/4.9.3/../../../../arm-none-eabi/lib/armv7e-m/fpu/libm.a(lib_a-w_log.o) (matherr)
/home/sbcm/Dropbox/pcb-layouts/axo-427-core/ksoloti/platform_linux/bin/../lib/gcc/arm-none-eabi/4.9.3/../../../../arm-none-eabi/lib/armv7e-m/fpu/libm.a(lib_a-s_nan.o)
                              /home/sbcm/Dropbox/pcb-layouts/axo-427-core/ksoloti/platform_linux/bin/../lib/gcc/arm-none-eabi/4.9.3/../../../../arm-none-eabi/lib/armv7e-m/fpu/libm.a(lib_a-w_log.o) (nan)
/home/sbcm/Dropbox/pcb-layouts/axo-427-core/ksoloti/platform_linux/bin/../lib/gcc/arm-none-eabi/4.9.3/../../../../arm-none-eabi/lib/armv7e-m/fpu/libm.a(lib_a-s_rint.o)
                              /home/sbcm/Dropbox/pcb-layouts/axo-427-core/ksoloti/platform_linux/bin/../lib/gcc/arm-none-eabi/4.9.3/../../../../arm-none-eabi/lib/armv7e-m/fpu/libm.a(lib_a-w_pow.o) (rint)
/home/sbcm/Dropbox/pcb-layouts/axo-427-core/ksoloti/platform_linux/bin/../lib/gcc/arm-none-eabi/4.9.3/../../../../arm-none-eabi/lib/armv7e-m/fpu/libm.a(lib_a-s_scalbn.o)
                              /home/sbcm/Dropbox/pcb-layouts/axo-427-core/ksoloti/platform_linux/bin/../lib/gcc/arm-none-eabi/4.9.3/../../../../arm-none-eabi/lib/armv7e-m/fpu/libm.a(lib_a-e_pow.o) (scalbn)
/home/sbcm/Dropbox/pcb-layouts/axo-427-core/ksoloti/platform_linux/bin/../lib/gcc/arm-none-eabi/4.9.3/../../../../arm-none-eabi/lib/armv7e-m/fpu/libm.a(lib_a-sf_fabs.o)
                              /home/sbcm/Dropbox/pcb-layouts/axo-427-core/ksoloti/platform_linux/bin/../lib/gcc/arm-none-eabi/4.9.3/../../../../arm-none-eabi/lib/armv7e-m/fpu/libm.a(lib_a-ef_pow.o) (fabsf)
/home/sbcm/Dropbox/pcb-layouts/axo-427-core/ksoloti/platform_linux/bin/../lib/gcc/arm-none-eabi/4.9.3/../../../../arm-none-eabi/lib/armv7e-m/fpu/libm.a(lib_a-sf_finite.o)
                              /home/sbcm/Dropbox/pcb-layouts/axo-427-core/ksoloti/platform_linux/bin/../lib/gcc/arm-none-eabi/4.9.3/../../../../arm-none-eabi/lib/armv7e-m/fpu/libm.a(lib_a-wf_pow.o) (finitef)
/home/sbcm/Dropbox/pcb-layouts/axo-427-core/ksoloti/platform_linux/bin/../lib/gcc/arm-none-eabi/4.9.3/../../../../arm-none-eabi/lib/armv7e-m/fpu/libm.a(lib_a-sf_floor.o)
                              /home/sbcm/Dropbox/pcb-layouts/axo-427-core/ksoloti/platform_linux/bin/../lib/gcc/arm-none-eabi/4.9.3/../../../../arm-none-eabi/lib/armv7e-m/fpu/libm.a(lib_a-kf_rem_pio2.o) (floorf)
/home/sbcm/Dropbox/pcb-layouts/axo-427-core/ksoloti/platform_linux/bin/../lib/gcc/arm-none-eabi/4.9.3/../../../../arm-none-eabi/lib/armv7e-m/fpu/libm.a(lib_a-sf_fpclassify.o)
                              /home/sbcm/Dropbox/pcb-layouts/axo-427-core/ksoloti/platform_linux/bin/../lib/gcc/arm-none-eabi/4.9.3/../../../../arm-none-eabi/lib/armv7e-m/fpu/libm.a(lib_a-wf_pow.o) (__fpclassifyf)
/home/sbcm/Dropbox/pcb-layouts/axo-427-core/ksoloti/platform_linux/bin/../lib/gcc/arm-none-eabi/4.9.3/../../../../arm-none-eabi/lib/armv7e-m/fpu/libm.a(lib_a-sf_nan.o)
                              /home/sbcm/Dropbox/pcb-layouts/axo-427-core/ksoloti/platform_linux/bin/../lib/gcc/arm-none-eabi/4.9.3/../../../../arm-none-eabi/lib/armv7e-m/fpu/libm.a(lib_a-ef_pow.o) (nanf)
/home/sbcm/Dropbox/pcb-layouts/axo-427-core/ksoloti/platform_linux/bin/../lib/gcc/arm-none-eabi/4.9.3/../../../../arm-none-eabi/lib/armv7e-m/fpu/libm.a(lib_a-sf_scalbn.o)
                              /home/sbcm/Dropbox/pcb-layouts/axo-427-core/ksoloti/platform_linux/bin/../lib/gcc/arm-none-eabi/4.9.3/../../../../arm-none-eabi/lib/armv7e-m/fpu/libm.a(lib_a-ef_pow.o) (scalbnf)
/home/sbcm/Dropbox/pcb-layouts/axo-427-core/ksoloti/platform_linux/bin/../lib/gcc/arm-none-eabi/4.9.3/../../../../arm-none-eabi/lib/armv7e-m/fpu/libm.a(lib_a-s_copysign.o)
                              /home/sbcm/Dropbox/pcb-layouts/axo-427-core/ksoloti/platform_linux/bin/../lib/gcc/arm-none-eabi/4.9.3/../../../../arm-none-eabi/lib/armv7e-m/fpu/libm.a(lib_a-s_scalbn.o) (copysign)
/home/sbcm/Dropbox/pcb-layouts/axo-427-core/ksoloti/platform_linux/bin/../lib/gcc/arm-none-eabi/4.9.3/../../../../arm-none-eabi/lib/armv7e-m/fpu/libm.a(lib_a-sf_copysign.o)
                              /home/sbcm/Dropbox/pcb-layouts/axo-427-core/ksoloti/platform_linux/bin/../lib/gcc/arm-none-eabi/4.9.3/../../../../arm-none-eabi/lib/armv7e-m/fpu/libm.a(lib_a-sf_scalbn.o) (copysignf)
/home/sbcm/Dropbox/pcb-layouts/axo-427-core/ksoloti/platform_linux/bin/../lib/gcc/arm-none-eabi/4.9.3/armv7e-m/fpu/libgcc.a(_arm_addsubdf3.o)
                              build/obj/chprintf.o (__aeabi_dsub)
/home/sbcm/Dropbox/pcb-layouts/axo-427-core/ksoloti/platform_linux/bin/../lib/gcc/arm-none-eabi/4.9.3/armv7e-m/fpu/libgcc.a(_arm_muldivdf3.o)
                              build/obj/chprintf.o (__aeabi_dmul)
/home/sbcm/Dropbox/pcb-layouts/axo-427-core/ksoloti/platform_linux/bin/../lib/gcc/arm-none-eabi/4.9.3/armv7e-m/fpu/libgcc.a(_arm_cmpdf2.o)
                              /home/sbcm/Dropbox/pcb-layouts/axo-427-core/ksoloti/platform_linux/bin/../lib/gcc/arm-none-eabi/4.9.3/../../../../arm-none-eabi/lib/armv7e-m/fpu/libm.a(lib_a-w_log.o) (__aeabi_dcmpeq)
/home/sbcm/Dropbox/pcb-layouts/axo-427-core/ksoloti/platform_linux/bin/../lib/gcc/arm-none-eabi/4.9.3/armv7e-m/fpu/libgcc.a(_arm_fixdfsi.o)
                              build/obj/chprintf.o (__aeabi_d2iz)
/home/sbcm/Dropbox/pcb-layouts/axo-427-core/ksoloti/platform_linux/bin/../lib/gcc/arm-none-eabi/4.9.3/armv7e-m/fpu/libgcc.a(_arm_fixunsdfsi.o)
                              build/obj/axoloti_math.o (__aeabi_d2uiz)
/home/sbcm/Dropbox/pcb-layouts/axo-427-core/ksoloti/platform_linux/bin/../lib/gcc/arm-none-eabi/4.9.3/armv7e-m/fpu/libgcc.a(_arm_truncdfsf2.o)
                              build/obj/chprintf.o (__aeabi_d2f)
/home/sbcm/Dropbox/pcb-layouts/axo-427-core/ksoloti/platform_linux/bin/../lib/gcc/arm-none-eabi/4.9.3/armv7e-m/fpu/libgcc.a(unwind-arm.o)
                              build/obj/vocoder.o (__aeabi_unwind_cpp_pr0)
/home/sbcm/Dropbox/pcb-layouts/axo-427-core/ksoloti/platform_linux/bin/../lib/gcc/arm-none-eabi/4.9.3/armv7e-m/fpu/libgcc.a(libunwind.o)
                              /home/sbcm/Dropbox/pcb-layouts/axo-427-core/ksoloti/platform_linux/bin/../lib/gcc/arm-none-eabi/4.9.3/armv7e-m/fpu/libgcc.a(unwind-arm.o) (restore_core_regs)
/home/sbcm/Dropbox/pcb-layouts/axo-427-core/ksoloti/platform_linux/bin/../lib/gcc/arm-none-eabi/4.9.3/armv7e-m/fpu/libgcc.a(pr-support.o)
                              /home/sbcm/Dropbox/pcb-layouts/axo-427-core/ksoloti/platform_linux/bin/../lib/gcc/arm-none-eabi/4.9.3/armv7e-m/fpu/libgcc.a(unwind-arm.o) (__gnu_unwind_execute)
/home/sbcm/Dropbox/pcb-layouts/axo-427-core/ksoloti/platform_linux/bin/../lib/gcc/arm-none-eabi/4.9.3/../../../../arm-none-eabi/lib/armv7e-m/fpu/libg.a(lib_a-abort.o)
                              /home/sbcm/Dropbox/pcb-layouts/axo-427-core/ksoloti/platform_linux/bin/../lib/gcc/arm-none-eabi/4.9.3/armv7e-m/fpu/libgcc.a(unwind-arm.o) (abort)
/home/sbcm/Dropbox/pcb-layouts/axo-427-core/ksoloti/platform_linux/bin/../lib/gcc/arm-none-eabi/4.9.3/../../../../arm-none-eabi/lib/armv7e-m/fpu/libg.a(lib_a-errno.o)
                              /home/sbcm/Dropbox/pcb-layouts/axo-427-core/ksoloti/platform_linux/bin/../lib/gcc/arm-none-eabi/4.9.3/../../../../arm-none-eabi/lib/armv7e-m/fpu/libm.a(lib_a-w_log.o) (__errno)
/home/sbcm/Dropbox/pcb-layouts/axo-427-core/ksoloti/platform_linux/bin/../lib/gcc/arm-none-eabi/4.9.3/../../../../arm-none-eabi/lib/armv7e-m/fpu/libg.a(lib_a-impure.o)
                              /home/sbcm/Dropbox/pcb-layouts/axo-427-core/ksoloti/platform_linux/bin/../lib/gcc/arm-none-eabi/4.9.3/../../../../arm-none-eabi/lib/armv7e-m/fpu/libg.a(lib_a-errno.o) (_impure_ptr)
/home/sbcm/Dropbox/pcb-layouts/axo-427-core/ksoloti/platform_linux/bin/../lib/gcc/arm-none-eabi/4.9.3/../../../../arm-none-eabi/lib/armv7e-m/fpu/libg.a(lib_a-memcpy.o)
                              build/obj/memstreams.o (memcpy)
/home/sbcm/Dropbox/pcb-layouts/axo-427-core/ksoloti/platform_linux/bin/../lib/gcc/arm-none-eabi/4.9.3/../../../../arm-none-eabi/lib/armv7e-m/fpu/libg.a(lib_a-memmove.o)
                              build/obj/filter_bank.o (memmove)
/home/sbcm/Dropbox/pcb-layouts/axo-427-core/ksoloti/platform_linux/bin/../lib/gcc/arm-none-eabi/4.9.3/../../../../arm-none-eabi/lib/armv7e-m/fpu/libg.a(lib_a-memset.o)
                              build/obj/usb.o (memset)
/home/sbcm/Dropbox/pcb-layouts/axo-427-core/ksoloti/platform_linux/bin/../lib/gcc/arm-none-eabi/4.9.3/../../../../arm-none-eabi/lib/armv7e-m/fpu/libg.a(lib_a-signal.o)
                              /home/sbcm/Dropbox/pcb-layouts/axo-427-core/ksoloti/platform_linux/bin/../lib/gcc/arm-none-eabi/4.9.3/../../../../arm-none-eabi/lib/armv7e-m/fpu/libg.a(lib_a-abort.o) (raise)
/home/sbcm/Dropbox/pcb-layouts/axo-427-core/ksoloti/platform_linux/bin/../lib/gcc/arm-none-eabi/4.9.3/../../../../arm-none-eabi/lib/armv7e-m/fpu/libg.a(lib_a-signalr.o)
                              /home/sbcm/Dropbox/pcb-layouts/axo-427-core/ksoloti/platform_linux/bin/../lib/gcc/arm-none-eabi/4.9.3/../../../../arm-none-eabi/lib/armv7e-m/fpu/libg.a(lib_a-signal.o) (_kill_r)
/home/sbcm/Dropbox/pcb-layouts/axo-427-core/ksoloti/platform_linux/bin/../lib/gcc/arm-none-eabi/4.9.3/../../../../arm-none-eabi/lib/armv7e-m/fpu/libg.a(lib_a-stpcpy.o)
                              build/obj/pconnection.o (stpcpy)
/home/sbcm/Dropbox/pcb-layouts/axo-427-core/ksoloti/platform_linux/bin/../lib/gcc/arm-none-eabi/4.9.3/../../../../arm-none-eabi/lib/armv7e-m/fpu/libg.a(lib_a-strcpy.o)
                              build/obj/ui.o (strcpy)
/home/sbcm/Dropbox/pcb-layouts/axo-427-core/ksoloti/platform_linux/bin/../lib/gcc/arm-none-eabi/4.9.3/../../../../arm-none-eabi/lib/armv7e-m/fpu/libg.a(lib_a-strlen.o)
                              build/obj/ui.o (strlen)
/home/sbcm/Dropbox/pcb-layouts/axo-427-core/ksoloti/platform_linux/bin/../lib/gcc/arm-none-eabi/4.9.3/../../../../arm-none-eabi/lib/armv7e-m/fpu/libg.a(lib_a-mallocr.o)
                              /home/sbcm/Dropbox/pcb-layouts/axo-427-core/ksoloti/platform_linux/bin/../lib/gcc/arm-none-eabi/4.9.3/../../../../arm-none-eabi/lib/armv7e-m/fpu/libg.a(lib_a-signal.o) (_malloc_r)
/home/sbcm/Dropbox/pcb-layouts/axo-427-core/ksoloti/platform_linux/bin/../lib/gcc/arm-none-eabi/4.9.3/../../../../arm-none-eabi/lib/armv7e-m/fpu/libg.a(lib_a-mlock.o)
                              /home/sbcm/Dropbox/pcb-layouts/axo-427-core/ksoloti/platform_linux/bin/../lib/gcc/arm-none-eabi/4.9.3/../../../../arm-none-eabi/lib/armv7e-m/fpu/libg.a(lib_a-mallocr.o) (__malloc_lock)
/home/sbcm/Dropbox/pcb-layouts/axo-427-core/ksoloti/platform_linux/bin/../lib/gcc/arm-none-eabi/4.9.3/../../../../arm-none-eabi/lib/armv7e-m/fpu/libg.a(lib_a-reent.o)
                              /home/sbcm/Dropbox/pcb-layouts/axo-427-core/ksoloti/platform_linux/bin/../lib/gcc/arm-none-eabi/4.9.3/../../../../arm-none-eabi/lib/armv7e-m/fpu/libg.a(lib_a-signalr.o) (errno)
/home/sbcm/Dropbox/pcb-layouts/axo-427-core/ksoloti/platform_linux/bin/../lib/gcc/arm-none-eabi/4.9.3/../../../../arm-none-eabi/lib/armv7e-m/fpu/libg.a(lib_a-sbrkr.o)
                              /home/sbcm/Dropbox/pcb-layouts/axo-427-core/ksoloti/platform_linux/bin/../lib/gcc/arm-none-eabi/4.9.3/../../../../arm-none-eabi/lib/armv7e-m/fpu/libg.a(lib_a-mallocr.o) (_sbrk_r)
/home/sbcm/Dropbox/pcb-layouts/axo-427-core/ksoloti/platform_linux/bin/../lib/gcc/arm-none-eabi/4.9.3/../../../../arm-none-eabi/lib/armv7e-m/fpu/libg.a(lib_a-freer.o)
                              /home/sbcm/Dropbox/pcb-layouts/axo-427-core/ksoloti/platform_linux/bin/../lib/gcc/arm-none-eabi/4.9.3/../../../../arm-none-eabi/lib/armv7e-m/fpu/libg.a(lib_a-mallocr.o) (_free_r)

Allocating common symbols
Common symbol       size              file

ObjectKvpRoot       0x4               build/obj/ui.o
keybd_report_data   0x8               build/obj/usbh_hid_keybd.o
ADCkvps             0x48              build/obj/ui.o
ObjectKvps          0x400             build/obj/ui.o
patchStatus         0x1               build/obj/patch.o
MidiInChannel       0x1               build/obj/serial_midi.o
keybd_info          0xf               build/obj/usbh_hid_keybd.o
MDU1                0xd8              build/obj/usbcfg.o
MidiByte0           0x1               build/obj/serial_midi.o
v50_max             0x2               build/obj/sysmon.o
I2CD1               0x38              build/obj/i2c_lld.o
hUSBHost            0x600             build/obj/usbh_conf.o
SPID3               0x30              build/obj/spi_lld.o
sai_a_dma           0x4               build/obj/codec.o
errno               0x4               /home/sbcm/Dropbox/pcb-layouts/axo-427-core/ksoloti/platform_linux/bin/../lib/gcc/arm-none-eabi/4.9.3/../../../../arm-none-eabi/lib/armv7e-m/fpu/libg.a(lib_a-reent.o)
expt                0x200             build/obj/axoloti_math.o
MidiByte1           0x1               build/obj/serial_midi.o
mouse_info          0x5               build/obj/usbh_hid_mouse.o
SD2                 0x98              build/obj/serial_lld.o
codec_interrupt_timestamp
                    0x4               build/obj/codec.o
spilink_rx_samples  0x4               build/obj/spilink.o
EncBuffer           0x4               build/obj/ui.o
spidb_interrupt_timestamp
                    0x4               build/obj/spidb.o
pitcht              0x404             build/obj/axoloti_math.o
MidiByte2           0x1               build/obj/serial_midi.o
pattern_index       0x1               build/obj/sysmon.o
SD3                 0x98              build/obj/serial_lld.o
SDCD1               0x48              build/obj/sdc_lld.o
ADCD1               0x34              build/obj/adc_lld.o
KvpsHead            0x18              build/obj/ui.o
sine2t              0x4004            build/obj/axoloti_math.o
memp                0x4               build/obj/ui.o
hid_mouse_y         0x1               build/obj/usbh_conf.o
PWMD5               0x14              build/obj/pwm_lld.o
SPID1               0x30              build/obj/spi_lld.o
mouse_report_data   0x4               build/obj/usbh_hid_mouse.o
Btn_Nav_Or          0x4               build/obj/ui.o
spilink_toggle      0x1               build/obj/spilink.o
PWMD2               0x14              build/obj/pwm_lld.o
dspLoadPct          0x4               build/obj/patch.o
hHCD                0x294             build/obj/usbh_conf.o
vtlist              0x10              build/obj/chvt.o
hid_buttons         0x8               build/obj/usbh_conf.o
mem                 0x100             build/obj/usbh_conf.o
hid_mouse_x         0x1               build/obj/usbh_conf.o
spilink_tx_samples  0x4               build/obj/spilink.o
PWMD8               0x14              build/obj/pwm_lld.o
MidiNumData         0x1               build/obj/serial_midi.o
voltage_50          0x2               build/obj/sysmon.o
patchMeta           0x38              build/obj/patch.o
rlist               0x1c              build/obj/chschd.o
PWMD4               0x14              build/obj/pwm_lld.o
USBD1               0x238             build/obj/usb_lld.o
PWMD1               0x14              build/obj/pwm_lld.o
fwid                0x4               build/obj/pconnection.o
BDU1                0x258             build/obj/usbcfg.o
Btn_Nav_And         0x4               build/obj/ui.o
SD6                 0x98              build/obj/serial_lld.o
MIDI_Setup          0x8               build/obj/usbh_midi_core.o
_idle_thread_wa     0x160             build/obj/chsys.o
DspTime             0x4               build/obj/patch.o
sinet               0x802             build/obj/axoloti_math.o
TmpMenuKvps         0x168             build/obj/ui.o
pFileSize           0x4               build/obj/pconnection.o
logt                0x200             build/obj/axoloti_math.o
FileName            0x100             build/obj/pconnection.o
Btn_Nav_PrevStates  0x4               build/obj/ui.o
KvpsDisplay         0x4               build/obj/ui.o
SD1                 0x98              build/obj/serial_lld.o
PWMD3               0x14              build/obj/pwm_lld.o
MidiCurData         0x1               build/obj/serial_midi.o
sai_b_dma           0x4               build/obj/codec.o
SDC_FS              0x238             build/obj/sdcard.o
v50_min             0x2               build/obj/sysmon.o
pFile               0x28              build/obj/pconnection.o
windowt             0x802             build/obj/axoloti_math.o
LoadMenu            0x18              build/obj/ui.o
Btn_Nav_CurStates   0x4               build/obj/ui.o

Discarded input sections

 .group         0x00000000       0x10 build/obj/filter_bank.o
 .group         0x00000000       0x10 build/obj/modulator.o
 .group         0x00000000       0x10 build/obj/modulator.o
 .group         0x00000000       0x10 build/obj/modulator.o
 .group         0x00000000       0x10 build/obj/modulator.o
 .group         0x00000000       0x10 build/obj/modulator.o
 .group         0x00000000       0x10 build/obj/modulator.o
 .group         0x00000000       0x10 build/obj/oscillator.o
 .group         0x00000000       0x10 build/obj/oscillator.o
 .group         0x00000000       0x10 build/obj/oscillator.o
 .group         0x00000000       0x10 build/obj/string.o
 .group         0x00000000       0x10 build/obj/string.o
 .group         0x00000000       0x10 build/obj/granular_processor.o
 .group         0x00000000       0x10 build/obj/granular_processor.o
 .group         0x00000000        0x8 build/obj/stft.o
 .group         0x00000000       0x10 build/obj/processor.o
 .group         0x00000000       0x10 build/obj/processor.o
 .group         0x00000000       0x10 build/obj/processor.o
 .group         0x00000000       0x10 build/obj/processor.o
 .group         0x00000000       0x10 build/obj/processor.o
 .group         0x00000000       0x10 build/obj/processor.o
 .group         0x00000000       0x10 build/obj/processor.o
 .group         0x00000000       0x10 build/obj/processor.o
 .group         0x00000000       0x10 build/obj/processor.o
 .group         0x00000000       0x10 build/obj/processor.o
 .group         0x00000000       0x10 build/obj/processor.o
 .group         0x00000000       0x10 build/obj/processor.o
 .group         0x00000000       0x10 build/obj/processor.o
 .group         0x00000000       0x10 build/obj/processor.o
 .group         0x00000000       0x10 build/obj/processor.o
 .group         0x00000000       0x10 build/obj/processor.o
 .group         0x00000000       0x10 build/obj/processor.o
 .group         0x00000000       0x10 build/obj/processor.o

Memory Configuration

Name             Origin             Length             Attributes
flash            0x08000000         0x000e0000         xr
ram              0x20000200         0x0000ae00
SRAM2            0x2001e000         0x00002000
SRAM3            0x20020000         0x00010000
CCMRAMEND        0x1000c000         0x00002800
sdram            0xc0000000         0x00400000
*default*        0x00000000         0xffffffff

Linker script and memory map

LOAD build/obj/arm_bitreversal2.o
LOAD build/obj/crt0.o
LOAD build/obj/vectors.o
LOAD build/obj/chcore.o
LOAD build/obj/chcore_v7m.o
LOAD build/obj/nvic.o
LOAD build/obj/chsys.o
LOAD build/obj/chdebug.o
LOAD build/obj/chlists.o
LOAD build/obj/chvt.o
LOAD build/obj/chschd.o
LOAD build/obj/chthreads.o
LOAD build/obj/chdynamic.o
LOAD build/obj/chregistry.o
LOAD build/obj/chsem.o
LOAD build/obj/chmtx.o
LOAD build/obj/chcond.o
LOAD build/obj/chevents.o
LOAD build/obj/chmsg.o
LOAD build/obj/chmboxes.o
LOAD build/obj/chqueues.o
LOAD build/obj/chmemcore.o
LOAD build/obj/chheap.o
LOAD build/obj/chmempools.o
LOAD build/obj/hal.o
LOAD build/obj/adc.o
LOAD build/obj/can.o
LOAD build/obj/ext.o
LOAD build/obj/gpt.o
LOAD build/obj/i2c.o
LOAD build/obj/icu.o
LOAD build/obj/mac.o
LOAD build/obj/mmc_spi.o
LOAD build/obj/mmcsd.o
LOAD build/obj/pal.o
LOAD build/obj/pwm.o
LOAD build/obj/rtc.o
LOAD build/obj/sdc.o
LOAD build/obj/serial.o
LOAD build/obj/serial_usb.o
LOAD build/obj/spi.o
LOAD build/obj/tm.o
LOAD build/obj/uart.o
LOAD build/obj/usb.o
LOAD build/obj/stm32_dma.o
LOAD build/obj/hal_lld.o
LOAD build/obj/adc_lld.o
LOAD build/obj/ext_lld_isr.o
LOAD build/obj/can_lld.o
LOAD build/obj/ext_lld.o
LOAD build/obj/mac_lld.o
LOAD build/obj/sdc_lld.o
LOAD build/obj/pal_lld.o
LOAD build/obj/i2c_lld.o
LOAD build/obj/usb_lld.o
LOAD build/obj/rtc_lld.o
LOAD build/obj/spi_lld.o
LOAD build/obj/gpt_lld.o
LOAD build/obj/icu_lld.o
LOAD build/obj/pwm_lld.o
LOAD build/obj/serial_lld.o
LOAD build/obj/uart_lld.o
LOAD build/obj/board.o
LOAD build/obj/fatfs_diskio.o
LOAD build/obj/fatfs_syscall.o
LOAD build/obj/ff.o
LOAD build/obj/ccsbcs.o
LOAD build/obj/chprintf.o
LOAD build/obj/memstreams.o
LOAD build/obj/axoloti_control.o
LOAD build/obj/codec.o
LOAD build/obj/axoloti.o
LOAD build/obj/axoloti_filters.o
LOAD build/obj/axoloti_math.o
LOAD build/obj/axoloti_oscs.o
LOAD build/obj/axoloti_board.o
LOAD build/obj/midi.o
LOAD build/obj/ui.o
LOAD build/obj/glcdfont.o
LOAD build/obj/usbcfg.o
LOAD build/obj/sdcard.o
LOAD build/obj/pconnection.o
LOAD build/obj/parameters.o
LOAD build/obj/main.o
LOAD build/obj/patch.o
LOAD build/obj/flash.o
LOAD build/obj/virtual_control.o
LOAD build/obj/arm_bitreversal.o
LOAD build/obj/arm_cfft_f32.o
LOAD build/obj/arm_cfft_q15.o
LOAD build/obj/arm_cfft_q31.o
LOAD build/obj/arm_cfft_radix2_f32.o
LOAD build/obj/arm_cfft_radix2_init_f32.o
LOAD build/obj/arm_cfft_radix2_init_q15.o
LOAD build/obj/arm_cfft_radix2_init_q31.o
LOAD build/obj/arm_cfft_radix2_q15.o
LOAD build/obj/arm_cfft_radix2_q31.o
LOAD build/obj/arm_cfft_radix4_f32.o
LOAD build/obj/arm_cfft_radix4_init_f32.o
LOAD build/obj/arm_cfft_radix4_init_q15.o
LOAD build/obj/arm_cfft_radix4_init_q31.o
LOAD build/obj/arm_cfft_radix4_q15.o
LOAD build/obj/arm_cfft_radix4_q31.o
LOAD build/obj/arm_cfft_radix8_f32.o
LOAD build/obj/arm_rfft_f32.o
LOAD build/obj/arm_rfft_fast_f32.o
LOAD build/obj/arm_rfft_fast_init_f32.o
LOAD build/obj/arm_rfft_init_f32.o
LOAD build/obj/arm_rfft_init_q15.o
LOAD build/obj/arm_rfft_init_q31.o
LOAD build/obj/arm_rfft_q15.o
LOAD build/obj/arm_rfft_q31.o
LOAD build/obj/arm_mult_q31.o
LOAD build/obj/arm_mult_q15.o
LOAD build/obj/arm_mult_f32.o
LOAD build/obj/arm_shift_q31.o
LOAD build/obj/arm_shift_q15.o
LOAD build/obj/arm_scale_f32.o
LOAD build/obj/arm_cmplx_mult_cmplx_q31.o
LOAD build/obj/arm_cmplx_mult_cmplx_f32.o
LOAD build/obj/arm_cmplx_mag_q31.o
LOAD build/obj/arm_cmplx_mult_cmplx_q15.o
LOAD build/obj/arm_cmplx_mag_q15.o
LOAD build/obj/arm_cos_q31.o
LOAD build/obj/arm_sin_q31.o
LOAD build/obj/arm_sqrt_q31.o
LOAD build/obj/arm_sqrt_q15.o
LOAD build/obj/arm_fir_init_q31.o
LOAD build/obj/arm_fir_fast_q31.o
LOAD build/obj/arm_biquad_cascade_df1_32x64_init_q31.o
LOAD build/obj/arm_biquad_cascade_df1_32x64_q31.o
LOAD build/obj/arm_biquad_cascade_df1_fast_q31.o
LOAD build/obj/arm_biquad_cascade_df1_init_q31.o
LOAD build/obj/arm_biquad_cascade_df1_q31.o
LOAD build/obj/arm_fir_interpolate_init_q31.o
LOAD build/obj/arm_fir_interpolate_q31.o
LOAD build/obj/arm_fir_decimate_init_q31.o
LOAD build/obj/arm_fir_decimate_q31.o
LOAD build/obj/arm_fir_decimate_fast_q31.o
LOAD build/obj/arm_fir_lattice_init_q31.o
LOAD build/obj/arm_fir_lattice_q31.o
LOAD build/obj/arm_iir_lattice_init_q31.o
LOAD build/obj/arm_iir_lattice_q31.o
LOAD build/obj/arm_common_tables.o
LOAD build/obj/arm_const_structs.o
LOAD build/obj/usbh_core.o
LOAD build/obj/usbh_ctlreq.o
LOAD build/obj/usbh_ioreq.o
LOAD build/obj/usbh_pipes.o
LOAD build/obj/usbh_hid.o
LOAD build/obj/usbh_hid_keybd.o
LOAD build/obj/usbh_hid_mouse.o
LOAD build/obj/usbh_hid_parser.o
LOAD build/obj/stm32f4xx_ll_usb.o
LOAD build/obj/stm32f4xx_hal_gpio.o
LOAD build/obj/stm32f4xx_hal_cortex.o
LOAD build/obj/stm32f4xx_hal_hcd.o
LOAD build/obj/stm32f4xx_hal_i2c.o
LOAD build/obj/usbh_midi_core.o
LOAD build/obj/usbh_vendor.o
LOAD build/obj/usbh_conf.o
LOAD build/obj/serial_midi.o
LOAD build/obj/bulk_usb.o
LOAD build/obj/midi_usb.o
LOAD build/obj/spilink.o
LOAD build/obj/spidb.o
LOAD build/obj/crc32.o
LOAD build/obj/exceptions.o
LOAD build/obj/watchdog.o
LOAD build/obj/sysmon.o
LOAD build/obj/axoloti_memory.o
LOAD build/obj/units.o
LOAD build/obj/atan.o
LOAD build/obj/random.o
LOAD build/obj/mutable_resources.o
LOAD build/obj/braids_resources.o
LOAD build/obj/analog_oscillator.o
LOAD build/obj/digital_oscillator.o
LOAD build/obj/macro_oscillator.o
LOAD build/obj/warps_resources.o
LOAD build/obj/filter_bank.o
LOAD build/obj/modulator.o
LOAD build/obj/oscillator.o
LOAD build/obj/vocoder.o
LOAD build/obj/axoloti_mi.o
LOAD build/obj/multistage_envelope.o
LOAD build/obj/ominous_voice.o
LOAD build/obj/resonator.o
LOAD build/obj/string.o
LOAD build/obj/tube.o
LOAD build/obj/exciter.o
LOAD build/obj/elements_resources.o
LOAD build/obj/part.o
LOAD build/obj/voice.o
LOAD build/obj/clouds_resources.o
LOAD build/obj/correlator.o
LOAD build/obj/mu_law.o
LOAD build/obj/granular_processor.o
LOAD build/obj/frame_transformation.o
LOAD build/obj/phase_vocoder.o
LOAD build/obj/stft.o
LOAD build/obj/rings_resources.o
LOAD build/obj/streams_resources.o
LOAD build/obj/compressor.o
LOAD build/obj/envelope.o
LOAD build/obj/follower.o
LOAD build/obj/lorenz_generator.o
LOAD build/obj/processor.o
LOAD build/obj/svf.o
LOAD build/obj/vactrol.o
                0x00000400                __main_stack_size__ = 0x400
                0x00000400                __process_stack_size__ = 0x400
                0x20000200                __ram_start__ = ORIGIN (ram)
                0x0000ae00                __ram_size__ = 0xae00
                0x2000b000                __ram_end__ = (__ram_start__ + __ram_size__)
                0xc0000000                __sdram_start__ = ORIGIN (sdram)
                0x00400000                __sdram_size__ = 0x400000
                0xc0400000                __sdram_end__ = (__sdram_start__ + __sdram_size__)
                0x00000000                . = 0x0
                0x00000000                _text = .

startup         0x08000000      0x1ac
 *(vectors)
 vectors        0x08000000      0x1ac build/obj/vectors.o
                0x08000000                _vectors

constructors    0x080001ac        0x0
                0x080001ac                PROVIDE (__init_array_start, .)
 *(SORT(.init_array.*))
 *(.init_array)
                0x080001ac                PROVIDE (__init_array_end, .)

destructors     0x080001ac        0x0
                0x080001ac                PROVIDE (__fini_array_start, .)
 *(.fini_array)
 *(SORT(.fini_array.*))
                0x080001ac                PROVIDE (__fini_array_end, .)

.text           0x080001b0    0xcab54
 *(.text.startup.*)
 *(.text)
 .text          0x080001b0       0xc0 build/obj/arm_bitreversal2.o
                0x080001b0                arm_bitreversal_32
                0x0800021a                arm_bitreversal_16
 .text          0x08000270      0x150 build/obj/crt0.o
                0x08000290                _default_exit
                0x080002a0                ResetHandler
 .text          0x080003c0        0x4 build/obj/vectors.o
                0x080003c0                Vector58
                0x080003c0                VectorE8
                0x080003c0                Vector9C
                0x080003c0                Vector1A0
                0x080003c0                Vector5C
                0x080003c0                NMIVector
                0x080003c0                Vector11C
                0x080003c0                Vector19C
                0x080003c0                Vector8C
                0x080003c0                Vector110
                0x080003c0                VectorC8
                0x080003c0                Vector94
                0x080003c0                VectorA8
                0x080003c0                Vector160
                0x080003c0                VectorEC
                0x080003c0                DebugMonitorVector
                0x080003c0                Vector190
                0x080003c0                Vector148
                0x080003c0                Vector188
                0x080003c0                PendSVVector
                0x080003c0                Vector198
                0x080003c0                Vector118
                0x080003c0                Vector64
                0x080003c0                VectorCC
                0x080003c0                Vector54
                0x080003c0                Vector98
                0x080003c0                Vector138
                0x080003c0                Vector24
                0x080003c0                Vector178
                0x080003c0                Vector1A4
                0x080003c0                VectorD0
                0x080003c0                Vector140
                0x080003c0                VectorE4
                0x080003c0                Vector134
                0x080003c0                Vector13C
                0x080003c0                Vector100
                0x080003c0                VectorE0
                0x080003c0                VectorF4
                0x080003c0                VectorA0
                0x080003c0                VectorC4
                0x080003c0                Vector180
                0x080003c0                Vector90
                0x080003c0                Vector114
                0x080003c0                Vector164
                0x080003c0                Vector60
                0x080003c0                Vector1C
                0x080003c0                Vector17C
                0x080003c0                Vector48
                0x080003c0                Vector1A8
                0x080003c0                Vector4C
                0x080003c0                Vector144
                0x080003c0                Vector68
                0x080003c0                _unhandled_exception
                0x080003c0                Vector170
                0x080003c0                Vector184
                0x080003c0                Vector10C
                0x080003c0                Vector50
                0x080003c0                Vector194
                0x080003c0                Vector44
                0x080003c0                Vector28
                0x080003c0                Vector34
                0x080003c0                Vector20
                0x080003c0                Vector18C
 *fill*         0x080003c4        0xc 
 .text          0x080003d0        0x4 build/obj/chcore.o
                0x080003d0                port_halt
 *fill*         0x080003d4        0xc 
 .text          0x080003e0      0x140 build/obj/chcore_v7m.o
                0x080003e0                _port_switch_from_isr
                0x080003f0                SVCallVector
                0x08000410                _port_init
                0x08000440                _port_irq_epilogue
                0x080004d0                SysTickVector
                0x080004f0                _port_switch
                0x08000510                _port_thread_start
 .text          0x08000520       0xbc build/obj/nvic.o
                0x08000520                nvicEnableVector
                0x08000570                nvicDisableVector
                0x080005b0                nvicSetSystemHandlerPriority
 *fill*         0x080005dc        0x4 
 .text          0x080005e0       0xd0 build/obj/chsys.o
                0x080005e0                _idle_thread
                0x08000600                chSysInit
                0x08000660                chSysTimerHandlerI
 .text          0x080006b0        0x0 build/obj/chdebug.o
 .text          0x080006b0        0x0 build/obj/chlists.o
 .text          0x080006b0       0x84 build/obj/chvt.o
                0x080006b0                _vt_init
                0x080006d0                chVTSetI
                0x08000710                chVTResetI
 *fill*         0x08000734        0xc 
 .text          0x08000740      0x244 build/obj/chschd.o
                0x080007a0                _scheduler_init
                0x080007c0                chSchReadyI
                0x080007f0                chSchGoSleepS
                0x08000820                chSchGoSleepTimeoutS
                0x08000870                chSchWakeupS
                0x080008d0                chSchDoRescheduleBehind
                0x08000910                chSchDoRescheduleAhead
                0x08000950                chSchRescheduleS
                0x08000970                chSchDoReschedule
 *fill*         0x08000984        0xc 
 .text          0x08000990      0x2d0 build/obj/chthreads.o
                0x08000990                _thread_init
                0x080009d0                _thread_memfill
                0x080009e0                chThdCreateI
                0x08000a50                chThdCreateStatic
                0x08000af0                chThdSetPriority
                0x08000b20                chThdResume
                0x08000b40                chThdTerminate
                0x08000b60                chThdSleep
                0x08000b80                chThdSleepUntil
                0x08000bb0                chThdYield
                0x08000be0                chThdExitS
                0x08000c20                chThdExit
                0x08000c30                chThdWait
 .text          0x08000c60        0x0 build/obj/chdynamic.o
 .text          0x08000c60       0x3c build/obj/chregistry.o
                0x08000c60                chRegFirstThread
                0x08000c80                chRegNextThread
 *fill*         0x08000c9c        0x4 
 .text          0x08000ca0      0x24c build/obj/chsem.o
                0x08000ca0                chSemInit
                0x08000cb0                chSemResetI
                0x08000ce0                chSemReset
                0x08000d00                chSemWait
                0x08000d50                chSemWaitS
                0x08000d90                chSemWaitTimeoutS
                0x08000dd0                chSemWaitTimeout
                0x08000df0                chSemSignal
                0x08000e30                chSemSignalI
                0x08000e50                chSemAddCounterI
                0x08000e80                chSemSignalWait
 *fill*         0x08000eec        0x4 
 .text          0x08000ef0      0x234 build/obj/chmtx.o
                0x08000ef0                chMtxInit
                0x08000f00                chMtxLockS
                0x08000fa0                chMtxLock
                0x08000fc0                chMtxTryLock
                0x08000ff0                chMtxTryLockS
                0x08001010                chMtxUnlock
                0x08001080                chMtxUnlockS
                0x080010d0                chMtxUnlockAll
 *fill*         0x08001124        0xc 
 .text          0x08001130        0x0 build/obj/chcond.o
 .text          0x08001130      0x370 build/obj/chevents.o
                0x08001130                chEvtRegisterMask
                0x08001160                chEvtUnregister
                0x08001190                chEvtGetAndClearEvents
                0x080011b0                chEvtAddEvents
                0x080011d0                chEvtGetAndClearFlags
                0x080011f0                chEvtSignalI
                0x08001220                chEvtBroadcastFlagsI
                0x08001240                chEvtSignal
                0x08001260                chEvtBroadcastFlags
                0x08001280                chEvtGetAndClearFlagsI
                0x08001290                chEvtDispatch
                0x080012d0                chEvtWaitOne
                0x08001310                chEvtWaitAny
                0x08001350                chEvtWaitAll
                0x08001390                chEvtWaitOneTimeout
                0x080013f0                chEvtWaitAnyTimeout
                0x08001450                chEvtWaitAllTimeout
 .text          0x080014a0       0x94 build/obj/chmsg.o
                0x080014a0                chMsgSend
                0x080014e0                chMsgWait
                0x08001520                chMsgRelease
 *fill*         0x08001534        0xc 
 .text          0x08001540        0x0 build/obj/chmboxes.o
 .text          0x08001540      0x314 build/obj/chqueues.o
                0x08001570                chIQInit
                0x08001590                chIQResetI
                0x080015c0                chIQPutI
                0x08001610                chIQGetTimeout
                0x08001660                chIQReadTimeout
                0x080016d0                chOQInit
                0x080016f0                chOQResetI
                0x08001720                chOQPutTimeout
                0x08001780                chOQGetI
                0x080017d0                chOQWriteTimeout
 *fill*         0x08001854        0xc 
 .text          0x08001860       0xa0 build/obj/chmemcore.o
                0x08001860                _core_init
                0x08001880                chCoreAlloc
                0x080018c0                chCoreAllocI
                0x080018f0                chCoreStatus
 .text          0x08001900      0x190 build/obj/chheap.o
                0x08001900                _heap_init
                0x08001920                chHeapInit
                0x08001940                chHeapAlloc
                0x080019c0                chHeapFree
                0x08001a50                chHeapStatus
 .text          0x08001a90        0x0 build/obj/chmempools.o
 .text          0x08001a90       0x98 build/obj/hal.o
                0x08001a90                halInit
                0x08001ad0                halIsCounterWithin
                0x08001b00                halPolledDelay
 *fill*         0x08001b28        0x8 
 .text          0x08001b30      0x174 build/obj/adc.o
                0x08001b30                adcInit
                0x08001b40                adcObjectInit
                0x08001b60                adcStart
                0x08001b80                adcStop
                0x08001ba0                adcStartConversion
                0x08001bc0                adcStartConversionI
                0x08001be0                adcStopConversion
                0x08001c20                adcStopConversionI
                0x08001c50                adcConvert
                0x08001c90                adcAcquireBus
                0x08001ca0                adcReleaseBus
 *fill*         0x08001ca4        0xc 
 .text          0x08001cb0        0x0 build/obj/can.o
 .text          0x08001cb0        0x0 build/obj/ext.o
 .text          0x08001cb0        0x0 build/obj/gpt.o
 .text          0x08001cb0      0x114 build/obj/i2c.o
                0x08001cb0                i2cInit
                0x08001cc0                i2cObjectInit
                0x08001cd0                i2cStart
                0x08001cf0                i2cStop
                0x08001d10                i2cGetErrors
                0x08001d20                i2cMasterTransmitTimeout
                0x08001d70                i2cMasterReceiveTimeout
                0x08001db0                i2cAcquireBus
                0x08001dc0                i2cReleaseBus
 *fill*         0x08001dc4        0xc 
 .text          0x08001dd0        0x0 build/obj/icu.o
 .text          0x08001dd0        0x0 build/obj/mac.o
 .text          0x08001dd0        0x0 build/obj/mmc_spi.o
 .text          0x08001dd0       0x44 build/obj/mmcsd.o
                0x08001dd0                mmcsdGetCapacity
 *fill*         0x08001e14        0xc 
 .text          0x08001e20       0x3c build/obj/pal.o
                0x08001e20                palReadBus
                0x08001e30                palWriteBus
                0x08001e50                palSetBusMode
 *fill*         0x08001e5c        0x4 
 .text          0x08001e60       0xb4 build/obj/pwm.o
                0x08001e60                pwmInit
                0x08001e70                pwmObjectInit
                0x08001e80                pwmStart
                0x08001ea0                pwmStop
                0x08001ec0                pwmChangePeriod
                0x08001ee0                pwmEnableChannel
                0x08001f00                pwmDisableChannel
 *fill*         0x08001f14        0xc 
 .text          0x08001f20        0x0 build/obj/rtc.o
 .text          0x08001f20      0x3f8 build/obj/sdc.o
                0x08001f20                sdcGetInfo
                0x08001f40                sdcConnect
                0x08002100                sdcRead
                0x08002130                sdcWrite
                0x08002160                sdcSync
                0x08002180                _sdc_wait_for_transfer_state
                0x080021c0                sdcDisconnect
                0x08002200                sdcInit
                0x08002210                sdcObjectInit
                0x08002230                sdcStart
                0x08002250                sdcStop
                0x08002270                sdcGetAndClearErrors
                0x08002290                sdcErase
 *fill*         0x08002318        0x8 
 .text          0x08002320      0x180 build/obj/serial.o
                0x080023a0                sdInit
                0x080023b0                sdObjectInit
                0x080023f0                sdStart
                0x08002410                sdStop
                0x08002440                sdIncomingDataI
                0x08002480                sdRequestDataI
 .text          0x080024a0        0x0 build/obj/serial_usb.o
 .text          0x080024a0      0x1f4 build/obj/spi.o
                0x080024a0                spiInit
                0x080024b0                spiObjectInit
                0x080024c0                spiStart
                0x080024e0                spiStop
                0x08002500                spiSelect
                0x08002520                spiUnselect
                0x08002540                spiStartIgnore
                0x08002560                spiStartExchange
                0x08002580                spiStartSend
                0x080025a0                spiStartReceive
                0x080025c0                spiIgnore
                0x080025f0                spiExchange
                0x08002620                spiSend
                0x08002650                spiReceive
                0x08002680                spiAcquireBus
                0x08002690                spiReleaseBus
 *fill*         0x08002694        0xc 
 .text          0x080026a0       0xb0 build/obj/tm.o
                0x080026f0                tmInit
                0x08002730                tmObjectInit
 .text          0x08002750        0x0 build/obj/uart.o
 .text          0x08002750      0x6ec build/obj/usb.o
                0x08002750                usbInit
                0x08002760                usbObjectInit
                0x08002780                usbStart
                0x080027b0                usbStop
                0x080027d0                usbInitEndpointI
                0x08002810                usbDisableEndpointsI
                0x08002840                usbPrepareReceive
                0x08002860                usbPrepareTransmit
                0x08002880                usbPrepareQueuedReceive
                0x080028a0                usbPrepareQueuedTransmit
                0x080028c0                usbStartReceiveI
                0x080028f0                usbStartTransmitI
                0x08002920                usbStallReceiveI
                0x08002940                usbStallTransmitI
                0x08002960                _usb_reset
                0x08002990                _usb_ep0setup
                0x08002cf0                _usb_ep0in
                0x08002dc0                _usb_ep0out
 *fill*         0x08002e3c        0x4 
 .text          0x08002e40      0x428 build/obj/stm32_dma.o
                0x08002e40                Vector6C
                0x08002e70                Vector70
                0x08002ea0                Vector74
                0x08002ed0                Vector78
                0x08002f00                Vector7C
                0x08002f30                Vector80
                0x08002f60                Vector84
                0x08002f90                VectorFC
                0x08002fc0                Vector120
                0x08002ff0                Vector124
                0x08003020                Vector128
                0x08003050                Vector12C
                0x08003080                Vector130
                0x080030b0                Vector150
                0x080030e0                Vector154
                0x08003110                Vector158
                0x08003140                dmaInit
                0x08003190                dmaStreamAllocate
                0x08003220                dmaStreamRelease
 *fill*         0x08003268        0x8 
 .text          0x08003270      0x184 build/obj/hal_lld.o
                0x08003270                hal_lld_init
                0x08003310                stm32_clock_init
 *fill*         0x080033f4        0xc 
 .text          0x08003400      0x360 build/obj/adc_lld.o
                0x08003400                adc_lld_init
                0x08003440                adc_lld_start
                0x080034b0                adc_lld_stop
                0x080034f0                adc_lld_start_conversion
                0x08003590                adc_lld_stop_conversion
                0x080035c0                Vector88
                0x08003720                adcSTM32EnableTSVREFE
                0x08003730                adcSTM32DisableTSVREFE
                0x08003740                adcSTM32EnableVBATE
                0x08003750                adcSTM32DisableVBATE
 .text          0x08003760        0x0 build/obj/ext_lld_isr.o
 .text          0x08003760        0x0 build/obj/can_lld.o
 .text          0x08003760        0x0 build/obj/ext_lld.o
 .text          0x08003760        0x0 build/obj/mac_lld.o
 .text          0x08003760      0x534 build/obj/sdc_lld.o
                0x080037a0                Vector104
                0x080037d0                sdc_lld_init
                0x080037f0                sdc_lld_start
                0x08003850                sdc_lld_stop
                0x08003890                sdc_lld_start_clk
                0x080038b0                sdc_lld_set_data_clk
                0x080038c0                sdc_lld_stop_clk
                0x080038d0                sdc_lld_set_bus_mode
                0x08003900                sdc_lld_send_cmd_none
                0x08003920                sdc_lld_send_cmd_short
                0x08003960                sdc_lld_send_cmd_short_crc
                0x08003ab0                sdc_lld_send_cmd_long_crc
                0x08003b00                sdc_lld_read_aligned
                0x08003bb0                sdc_lld_write_aligned
                0x08003c70                sdc_lld_read
                0x08003c80                sdc_lld_write
                0x08003c90                sdc_lld_sync
 *fill*         0x08003c94        0xc 
 .text          0x08003ca0      0x27c build/obj/pal_lld.o
                0x08003ca0                _pal_lld_init
                0x08003e70                _pal_lld_setgroupmode
 *fill*         0x08003f1c        0x4 
 .text          0x08003f20      0x71c build/obj/i2c_lld.o
                0x08004050                VectorBC
                0x08004160                VectorC0
                0x08004250                i2c_lld_init
                0x08004280                i2c_lld_start
                0x08004410                i2c_lld_stop
                0x08004460                i2c_lld_master_receive_timeout
                0x08004540                i2c_lld_master_transmit_timeout
 *fill*         0x0800463c        0x4 
 .text          0x08004640      0xbf4 build/obj/usb_lld.o
                0x08004a10                usb_lld_init
                0x08004a60                usb_lld_start
                0x08004b40                usb_lld_stop
                0x08004b90                usb_lld_reset
                0x08004c60                usb_lld_set_address
                0x08004c80                usb_lld_init_endpoint
                0x08004de0                usb_lld_disable_endpoints
                0x08004df0                usb_lld_get_status_out
                0x08004e10                usb_lld_get_status_in
                0x08004e30                usb_lld_read_setup
                0x08004e50                usb_lld_prepare_receive
                0x08004f50                usb_lld_prepare_transmit
                0x08005070                Vector14C
                0x08005170                usb_lld_start_out
                0x08005190                usb_lld_start_in
                0x080051c0                usb_lld_stall_out
                0x080051e0                usb_lld_stall_in
                0x08005200                usb_lld_clear_out
                0x08005220                usb_lld_clear_in
 *fill*         0x08005234        0xc 
 .text          0x08005240        0x0 build/obj/rtc_lld.o
 .text          0x08005240      0x360 build/obj/spi_lld.o
                0x080052d0                spi_lld_init
                0x08005340                spi_lld_start
                0x08005410                spi_lld_stop
                0x08005470                spi_lld_select
                0x08005480                spi_lld_unselect
                0x08005490                spi_lld_ignore
                0x080054d0                spi_lld_exchange
                0x08005510                spi_lld_send
                0x08005550                spi_lld_receive
                0x08005590                spi_lld_polled_exchange
 .text          0x080055a0        0x0 build/obj/gpt_lld.o
 .text          0x080055a0        0x0 build/obj/icu_lld.o
 .text          0x080055a0      0x59c build/obj/pwm_lld.o
                0x08005600                VectorA4
                0x08005630                VectorAC
                0x08005690                VectorB0
                0x080056b0                VectorB4
                0x080056d0                VectorB8
                0x080056f0                Vector108
                0x08005710                VectorF0
                0x08005740                VectorF8
                0x080057a0                pwm_lld_init
                0x08005830                pwm_lld_start
                0x08005a10                pwm_lld_stop
                0x08005af0                pwm_lld_enable_channel
                0x08005b20                pwm_lld_disable_channel
 *fill*         0x08005b3c        0x4 
 .text          0x08005b40      0x420 build/obj/serial_lld.o
                0x08005ce0                VectorD4
                0x08005d00                VectorD8
                0x08005d20                VectorDC
                0x08005d40                Vector15C
                0x08005d60                sd_lld_init
                0x08005de0                sd_lld_start
                0x08005ee0                sd_lld_stop
 .text          0x08005f60        0x0 build/obj/uart_lld.o
 .text          0x08005f60       0x84 build/obj/board.o
                0x08005f60                __early_init
                0x08005f70                __late_init
                0x08005f80                sdc_lld_is_card_inserted
                0x08005f90                sdc_lld_is_write_protected
                0x08005fa0                boardInit
                0x08005fb0                _getpid
                0x08005fc0                _kill
                0x08005fd0                _write
                0x08005fe0                _exit
 *fill*         0x08005fe4        0xc 
 .text          0x08005ff0      0x108 build/obj/fatfs_diskio.o
                0x08005ff0                disk_initialize
                0x08006020                disk_status
                0x08006050                disk_read
                0x08006080                disk_write
                0x080060b0                disk_ioctl
                0x080060f0                get_fattime
 *fill*         0x080060f8        0x8 
 .text          0x08006100       0x54 build/obj/fatfs_syscall.o
                0x08006100                ff_cre_syncobj
                0x08006120                ff_del_syncobj
                0x08006130                ff_req_grant
                0x08006150                ff_rel_grant
 *fill*         0x08006154        0xc 
 .text          0x08006160     0x2d64 build/obj/ff.o
                0x080070e0                clust2sect
                0x08007100                get_fat
                0x08007120                put_fat
                0x08007140                gen_numname
                0x08007410                f_mount
                0x08007450                f_open
                0x080075d0                f_read
                0x08007830                f_write
                0x08007af0                f_sync
                0x08007b70                f_close
                0x08007b80                f_chdrive
                0x08007ba0                f_chdir
                0x08007c30                f_getcwd
                0x08007db0                f_lseek
                0x080080a0                f_opendir
                0x08008130                f_readdir
                0x080081b0                f_stat
                0x08008220                f_getfree
                0x08008350                f_truncate
                0x08008470                f_unlink
                0x08008570                f_mkdir
                0x08008760                f_chmod
                0x080087f0                f_utime
                0x08008870                f_rename
                0x08008a00                f_mkfs
 *fill*         0x08008ec4        0xc 
 .text          0x08008ed0       0x80 build/obj/ccsbcs.o
                0x08008ed0                ff_convert
                0x08008f20                ff_wtoupper
 .text          0x08008f50      0x408 build/obj/chprintf.o
                0x08008fa0                chvprintf
                0x08009320                chsnprintf
 *fill*         0x08009358        0x8 
 .text          0x08009360       0xbc build/obj/memstreams.o
                0x08009400                msObjectInit
 *fill*         0x0800941c        0x4 
 .text          0x08009420      0x6dc build/obj/axoloti_control.o
                0x08009420                LCD_updateBoundingBox
                0x08009430                LCD_drawPixel
                0x08009470                LCD_setPixel
                0x080094a0                LCD_clearPixel
                0x080094d0                LCD_getPixel
                0x08009500                LCD_clearDisplay
                0x08009520                LCD_drawChar
                0x08009560                LCD_drawString
                0x080095d0                LCD_drawNumber3D
                0x08009640                LCD_drawNumber5D
                0x080096f0                LCD_drawCharInv
                0x08009740                LCD_drawStringInv
                0x080097c0                LCD_drawNumber3DInv
                0x08009830                LCD_drawNumber5DInv
                0x080098e0                LCD_drawStringN
                0x08009980                LCD_drawStringInvN
                0x08009a30                LCD_drawIBAR
                0x08009ab0                LCD_drawIBARadd
 *fill*         0x08009afc        0x4 
 .text          0x08009b00      0xb5c build/obj/codec.o
                0x08009d00                codec_clearbuffer
                0x08009d20                blink_and_retry
                0x08009d40                wait_SPI_fsync
                0x08009dd0                detect_MCO
                0x08009e50                lock_SAI_to_SPI_FS
                0x08009e90                HAL_GetTick
                0x08009ea0                HAL_RCC_GetPCLK1Freq
                0x08009eb0                ADAU1961_WriteRegister
                0x08009ef0                ADAU1961_WriteRegister6
                0x08009f50                ADAU1961_ReadRegister6
                0x08009fb0                codec_ADAU1961_hw_init
                0x0800a3c0                codec_ADAU1961_SAI_init
                0x0800a650                codec_init
 *fill*         0x0800a65c        0x4 
 .text          0x0800a660        0x4 build/obj/axoloti.o
                0x0800a660                axoloti_init
 *fill*         0x0800a664        0xc 
 .text          0x0800a670       0xec build/obj/axoloti_filters.o
                0x0800a670                init_filter_biquad_A
                0x0800a680                f_filter_biquad_A
 *fill*         0x0800a75c        0x4 
 .text          0x0800a760      0x2e8 build/obj/axoloti_math.o
                0x0800a760                axoloti_math_init
                0x0800aa30                FastLog
 *fill*         0x0800aa48        0x8 
 .text          0x0800aa50        0x0 build/obj/axoloti_oscs.o
 .text          0x0800aa50      0x1fc build/obj/axoloti_board.o
                0x0800aa50                axoloti_board_init
                0x0800aa70                adc3_init
                0x0800aab0                adc_configpads
                0x0800ab80                adc_init
                0x0800abe0                adc3_convert
                0x0800ac20                adc_convert
 *fill*         0x0800ac4c        0x4 
 .text          0x0800ac50      0x15c build/obj/midi.o
                0x0800ac50                MidiSend1
                0x0800aca0                MidiSend2
                0x0800ad00                MidiSend3
                0x0800ad60                MidiSendSysEx
                0x0800ad70                midi_init
                0x0800ad80                MidiGetOutputBufferPending
                0x0800ada0                MidiGetOutputBufferAvailable
 *fill*         0x0800adac        0x4 
 .text          0x0800adb0      0x7f8 build/obj/ui.o
                0x0800adb0                AxolotiControlUpdate
                0x0800adc0                EnterMenuLoadFile
                0x0800ae00                EnterMenuLoad
                0x0800af30                EnterMenuFormat
                0x0800af90                SetKVP_APVP
                0x0800afb0                SetKVP_AVP
                0x0800afd0                SetKVP_IVP
                0x0800aff0                SetKVP_IPVP
                0x0800b010                SetKVP_FNCTN
                0x0800b030                KVP_Increment
                0x0800b0a0                KVP_Decrement
                0x0800b110                UIGoSafe
                0x0800b120                ui_init
                0x0800b2f0                KVP_ClearObjects
                0x0800b310                KVP_RegisterObject
                0x0800b330                KVP_DisplayInv
                0x0800b430                KVP_Display
 *fill*         0x0800b5a8        0x8 
 .text          0x0800b5b0        0x0 build/obj/glcdfont.o
 .text          0x0800b5b0      0x1b4 build/obj/usbcfg.o
                0x0800b740                inttohex
 *fill*         0x0800b764        0xc 
 .text          0x0800b770      0x1fc build/obj/sdcard.o
                0x0800b7c0                sdcard_init
                0x0800b8a0                sdcard_attemptMountIfUnmounted
                0x0800b8b0                sdcard_unmount
                0x0800b8d0                sdcard_loadPatch1
 *fill*         0x0800b96c        0x4 
 .text          0x0800b970     0x10ac build/obj/pconnection.o
                0x0800bb40                InitPConnection
                0x0800bbe0                GetFirmwareID
                0x0800bbf0                TransmitDisplayPckt
                0x0800bc20                LogTextMessage
                0x0800bc90                PExTransmit
                0x0800bdc0                ReadDirectoryListing
                0x0800be70                ManipulateFile
                0x0800bff0                CloseFile
                0x0800c050                CopyPatchToFlash
                0x0800c0c0                ReplyFWVersion
                0x0800c150                PExReceiveByte
                0x0800c9e0                PExReceive
 *fill*         0x0800ca1c        0x4 
 .text          0x0800ca20       0xac build/obj/parameters.o
                0x0800ca20                PExModulationSourceChange
                0x0800ca90                PExParameterChange
                0x0800cac0                ApplyPreset
 *fill*         0x0800cacc        0x4 
 .text          0x0800cad0      0xa64 build/obj/main.o
                0x0800cad0                memTest
                0x0800cbb0                SDRAM_InitSequence
                0x0800cc30                SDRAM_WriteBuffer
                0x0800cc70                SDRAM_ReadBuffer
                0x0800ccb0                FMC_NORSRAMDeInit
                0x0800cce0                FMC_NORSRAMInit
                0x0800cde0                FMC_NORSRAMStructInit
                0x0800ce40                FMC_NORSRAMCmd
                0x0800ce60                FMC_NANDDeInit
                0x0800ce90                FMC_NANDInit
                0x0800cf10                FMC_NANDStructInit
                0x0800cf40                FMC_NANDCmd
                0x0800cf80                FMC_NANDECCCmd
                0x0800cfc0                FMC_GetECC
                0x0800cfe0                FMC_PCCARDDeInit
                0x0800d000                FMC_PCCARDInit
                0x0800d070                FMC_PCCARDStructInit
                0x0800d0a0                FMC_PCCARDCmd
                0x0800d0c0                FMC_SDRAMDeInit
                0x0800d0f0                FMC_SDRAMInit
                0x0800d1c0                SDRAM_Init
                0x0800d240                configSDRAM
                0x0800d250                FMC_SDRAMStructInit
                0x0800d290                FMC_SDRAMCmdConfig
                0x0800d2b0                FMC_GetModeStatus
                0x0800d2d0                FMC_SetRefreshCount
                0x0800d2e0                FMC_SetAutoRefresh_Number
                0x0800d2f0                FMC_SDRAMWriteProtectionConfig
                0x0800d320                FMC_ITConfig
                0x0800d3b0                FMC_GetFlagStatus
                0x0800d400                FMC_ClearFlag
                0x0800d450                FMC_GetITStatus
                0x0800d4c0                FMC_ClearITPendingBit
                0x0800d510                HAL_Delay
                0x0800d530                _sbrk
 *fill*         0x0800d534        0xc 
 .text          0x0800d540      0x67c build/obj/patch.o
                0x0800d560                InitPatch0
                0x0800d590                CheckStackOverflow
                0x0800d9c0                StopPatch
                0x0800d9f0                StartPatch
                0x0800da50                start_dsp_thread
                0x0800da90                computebufI
                0x0800dad0                MidiInMsgHandler
                0x0800db00                LoadPatch
                0x0800db30                LoadPatchStartSD
                0x0800db70                LoadPatchStartFlash
                0x0800db90                LoadPatchIndexed
                0x0800dbb0                GetIndexOfCurrentPatch
 *fill*         0x0800dbbc        0x4 
 .text          0x0800dbc0       0xa8 build/obj/flash.o
                0x0800dbc0                flash_Erase_sector
                0x0800dbe0                flash_ProgramWord
                0x0800dc50                flash_unlock
 *fill*         0x0800dc68        0x8 
 .text          0x0800dc70        0x4 build/obj/virtual_control.o
                0x0800dc70                TransmitLCDoverUSB
 *fill*         0x0800dc74        0xc 
 .text          0x0800dc80      0x1f8 build/obj/arm_bitreversal.o
                0x0800dc80                arm_bitreversal_f32
                0x0800dd70                arm_bitreversal_q31
                0x0800de10                arm_bitreversal_q15
 *fill*         0x0800de78        0x8 
 .text          0x0800de80      0x714 build/obj/arm_cfft_f32.o
                0x0800de80                arm_cfft_radix8by2_f32
                0x0800e010                arm_cfft_radix8by4_f32
                0x0800e4a0                arm_cfft_f32
 *fill*         0x0800e594        0xc 
 .text          0x0800e5a0      0x25c build/obj/arm_cfft_q15.o
                0x0800e5a0                arm_cfft_radix4by2_q15
                0x0800e670                arm_cfft_radix4by2_inverse_q15
                0x0800e740                arm_cfft_q15
 *fill*         0x0800e7fc        0x4 
 .text          0x0800e800      0x2dc build/obj/arm_cfft_q31.o
                0x0800e800                arm_cfft_radix4by2_q31
                0x0800e910                arm_cfft_radix4by2_inverse_q31
                0x0800ea20                arm_cfft_q31
 *fill*         0x0800eadc        0x4 
 .text          0x0800eae0      0x350 build/obj/arm_cfft_radix2_f32.o
                0x0800eae0                arm_radix2_butterfly_f32
                0x0800ec60                arm_radix2_butterfly_inverse_f32
                0x0800edf0                arm_cfft_radix2_f32
 .text          0x0800ee30      0x160 build/obj/arm_cfft_radix2_init_f32.o
                0x0800ee30                arm_cfft_radix2_init_f32
 .text          0x0800ef90      0x128 build/obj/arm_cfft_radix2_init_q15.o
                0x0800ef90                arm_cfft_radix2_init_q15
 *fill*         0x0800f0b8        0x8 
 .text          0x0800f0c0      0x128 build/obj/arm_cfft_radix2_init_q31.o
                0x0800f0c0                arm_cfft_radix2_init_q31
 *fill*         0x0800f1e8        0x8 
 .text          0x0800f1f0      0x430 build/obj/arm_cfft_radix2_q15.o
                0x0800f1f0                arm_radix2_butterfly_q15
                0x0800f400                arm_radix2_butterfly_inverse_q15
                0x0800f5f0                arm_cfft_radix2_q15
 .text          0x0800f620      0x3d0 build/obj/arm_cfft_radix2_q31.o
                0x0800f620                arm_radix2_butterfly_q31
                0x0800f7e0                arm_radix2_butterfly_inverse_q31
                0x0800f9c0                arm_cfft_radix2_q31
 .text          0x0800f9f0      0x730 build/obj/arm_cfft_radix4_f32.o
                0x0800f9f0                arm_radix4_butterfly_f32
                0x0800fd60                arm_radix4_butterfly_inverse_f32
                0x080100e0                arm_cfft_radix4_f32
 .text          0x08010120       0xcc build/obj/arm_cfft_radix4_init_f32.o
                0x08010120                arm_cfft_radix4_init_f32
 *fill*         0x080101ec        0x4 
 .text          0x080101f0       0xb0 build/obj/arm_cfft_radix4_init_q15.o
                0x080101f0                arm_cfft_radix4_init_q15
 .text          0x080102a0       0xb0 build/obj/arm_cfft_radix4_init_q31.o
                0x080102a0                arm_cfft_radix4_init_q31
 .text          0x08010350      0x4fc build/obj/arm_cfft_radix4_q15.o
                0x08010350                arm_radix4_butterfly_q15
                0x080105b0                arm_radix4_butterfly_inverse_q15
                0x08010810                arm_cfft_radix4_q15
 *fill*         0x0801084c        0x4 
 .text          0x08010850      0x87c build/obj/arm_cfft_radix4_q31.o
                0x08010850                arm_radix4_butterfly_q31
                0x08010c70                arm_radix4_butterfly_inverse_q31
                0x08011090                arm_cfft_radix4_q31
 *fill*         0x080110cc        0x4 
 .text          0x080110d0      0x590 build/obj/arm_cfft_radix8_f32.o
                0x080110d0                arm_radix8_butterfly_f32
 .text          0x08011660      0x1c0 build/obj/arm_rfft_f32.o
                0x08011660                arm_split_rfft_f32
                0x08011730                arm_split_rifft_f32
                0x080117a0                arm_rfft_f32
 .text          0x08011820      0x190 build/obj/arm_rfft_fast_f32.o
                0x08011820                stage_rfft_f32
                0x080118d0                merge_rfft_f32
                0x08011970                arm_rfft_fast_f32
 .text          0x080119b0      0x108 build/obj/arm_rfft_fast_init_f32.o
                0x080119b0                arm_rfft_fast_init_f32
 *fill*         0x08011ab8        0x8 
 .text          0x08011ac0       0x84 build/obj/arm_rfft_init_f32.o
                0x08011ac0                arm_rfft_init_f32
 *fill*         0x08011b44        0xc 
 .text          0x08011b50      0x110 build/obj/arm_rfft_init_q15.o
                0x08011b50                arm_rfft_init_q15
 .text          0x08011c60      0x110 build/obj/arm_rfft_init_q31.o
                0x08011c60                arm_rfft_init_q31
 .text          0x08011d70      0x188 build/obj/arm_rfft_q15.o
                0x08011d70                arm_split_rfft_q15
                0x08011e30                arm_split_rifft_q15
                0x08011e80                arm_rfft_q15
 *fill*         0x08011ef8        0x8 
 .text          0x08011f00      0x1c8 build/obj/arm_rfft_q31.o
                0x08011f00                arm_split_rfft_q31
                0x08011fe0                arm_split_rifft_q31
                0x08012050                arm_rfft_q31
 *fill*         0x080120c8        0x8 
 .text          0x080120d0       0xc4 build/obj/arm_mult_q31.o
                0x080120d0                arm_mult_q31
 *fill*         0x08012194        0xc 
 .text          0x080121a0       0xac build/obj/arm_mult_q15.o
                0x080121a0                arm_mult_q15
 *fill*         0x0801224c        0x4 
 .text          0x08012250       0x8c build/obj/arm_mult_f32.o
                0x08012250                arm_mult_f32
 *fill*         0x080122dc        0x4 
 .text          0x080122e0      0x184 build/obj/arm_shift_q31.o
                0x080122e0                arm_shift_q31
 *fill*         0x08012464        0xc 
 .text          0x08012470      0x10c build/obj/arm_shift_q15.o
                0x08012470                arm_shift_q15
 *fill*         0x0801257c        0x4 
 .text          0x08012580       0x6c build/obj/arm_scale_f32.o
                0x08012580                arm_scale_f32
 *fill*         0x080125ec        0x4 
 .text          0x080125f0      0x184 build/obj/arm_cmplx_mult_cmplx_q31.o
                0x080125f0                arm_cmplx_mult_cmplx_q31
 *fill*         0x08012774        0xc 
 .text          0x08012780      0x118 build/obj/arm_cmplx_mult_cmplx_f32.o
                0x08012780                arm_cmplx_mult_cmplx_f32
 *fill*         0x08012898        0x8 
 .text          0x080128a0       0xe8 build/obj/arm_cmplx_mag_q31.o
                0x080128a0                arm_cmplx_mag_q31
 *fill*         0x08012988        0x8 
 .text          0x08012990      0x164 build/obj/arm_cmplx_mult_cmplx_q15.o
                0x08012990                arm_cmplx_mult_cmplx_q15
 *fill*         0x08012af4        0xc 
 .text          0x08012b00       0xa4 build/obj/arm_cmplx_mag_q15.o
                0x08012b00                arm_cmplx_mag_q15
 *fill*         0x08012ba4        0xc 
 .text          0x08012bb0       0x44 build/obj/arm_cos_q31.o
                0x08012bb0                arm_cos_q31
 *fill*         0x08012bf4        0xc 
 .text          0x08012c00       0x38 build/obj/arm_sin_q31.o
                0x08012c00                arm_sin_q31
 *fill*         0x08012c38        0x8 
 .text          0x08012c40       0xf0 build/obj/arm_sqrt_q31.o
                0x08012c40                arm_sqrt_q31
 .text          0x08012d30       0xf4 build/obj/arm_sqrt_q15.o
                0x08012d30                arm_sqrt_q15
 *fill*         0x08012e24        0xc 
 .text          0x08012e30       0x24 build/obj/arm_fir_init_q31.o
                0x08012e30                arm_fir_init_q31
 *fill*         0x08012e54        0xc 
 .text          0x08012e60      0x248 build/obj/arm_fir_fast_q31.o
                0x08012e60                arm_fir_fast_q31
 *fill*         0x080130a8        0x8 
 .text          0x080130b0       0x20 build/obj/arm_biquad_cascade_df1_32x64_init_q31.o
                0x080130b0                arm_biquad_cas_df1_32x64_init_q31
 .text          0x080130d0      0x6ec build/obj/arm_biquad_cascade_df1_32x64_q31.o
                0x080130d0                arm_biquad_cas_df1_32x64_q31
 *fill*         0x080137bc        0x4 
 .text          0x080137c0      0x188 build/obj/arm_biquad_cascade_df1_fast_q31.o
                0x080137c0                arm_biquad_cascade_df1_fast_q31
 *fill*         0x08013948        0x8 
 .text          0x08013950       0x20 build/obj/arm_biquad_cascade_df1_init_q31.o
                0x08013950                arm_biquad_cascade_df1_init_q31
 .text          0x08013970      0x21c build/obj/arm_biquad_cascade_df1_q31.o
                0x08013970                arm_biquad_cascade_df1_q31
 *fill*         0x08013b8c        0x4 
 .text          0x08013b90       0x38 build/obj/arm_fir_interpolate_init_q31.o
                0x08013b90                arm_fir_interpolate_init_q31
 *fill*         0x08013bc8        0x8 
 .text          0x08013bd0      0x40c build/obj/arm_fir_interpolate_q31.o
                0x08013bd0                arm_fir_interpolate_q31
 *fill*         0x08013fdc        0x4 
 .text          0x08013fe0       0x38 build/obj/arm_fir_decimate_init_q31.o
                0x08013fe0                arm_fir_decimate_init_q31
 *fill*         0x08014018        0x8 
 .text          0x08014020      0x18c build/obj/arm_fir_decimate_q31.o
                0x08014020                arm_fir_decimate_q31
 *fill*         0x080141ac        0x4 
 .text          0x080141b0      0x3c8 build/obj/arm_fir_decimate_fast_q31.o
                0x080141b0                arm_fir_decimate_fast_q31
 *fill*         0x08014578        0x8 
 .text          0x08014580       0x18 build/obj/arm_fir_lattice_init_q31.o
                0x08014580                arm_fir_lattice_init_q31
 *fill*         0x08014598        0x8 
 .text          0x080145a0      0x138 build/obj/arm_fir_lattice_q31.o
                0x080145a0                arm_fir_lattice_q31
 *fill*         0x080146d8        0x8 
 .text          0x080146e0       0x20 build/obj/arm_iir_lattice_init_q31.o
                0x080146e0                arm_iir_lattice_init_q31
 .text          0x08014700      0x2a0 build/obj/arm_iir_lattice_q31.o
                0x08014700                arm_iir_lattice_q31
 .text          0x080149a0        0x0 build/obj/arm_common_tables.o
 .text          0x080149a0        0x0 build/obj/arm_const_structs.o
 .text          0x080149a0      0x900 build/obj/usbh_core.o
                0x080149a0                USBH_Init
                0x08014a70                USBH_DeInit
                0x08014ad0                USBH_RegisterClass
                0x08014b10                USBH_SelectInterface
                0x08014b70                USBH_GetActiveClass
                0x08014b80                USBH_FindInterface
                0x08014bd0                USBH_FindInterfaceIndex
                0x08014c00                USBH_Start
                0x08014c20                USBH_Stop
                0x08014c50                USBH_ReEnumerate
                0x08014cc0                USBH_Process
                0x080151d0                USBH_LL_SetTimer
                0x080151e0                USBH_LL_IncTimer
                0x08015200                USBH_LL_Connect
                0x08015240                USBH_LL_Disconnect
                0x08015290                USBH_LL_NotifyURBChange
 .text          0x080152a0      0x5ec build/obj/usbh_ctlreq.o
                0x080152a0                USBH_GetNextDesc
                0x080152b0                USBH_CtlReq
                0x080154c0                USBH_GetDescriptor
                0x08015500                USBH_Get_DevDesc
                0x080155c0                USBH_Get_CfgDesc
                0x08015790                USBH_Get_StringDesc
                0x080157f0                USBH_SetAddress
                0x08015810                USBH_SetCfg
                0x08015830                USBH_SetInterface
                0x08015860                USBH_ClrFeature
 *fill*         0x0801588c        0x4 
 .text          0x08015890      0x1a8 build/obj/usbh_ioreq.o
                0x08015890                USBH_CtlSendSetup
                0x080158c0                USBH_CtlSendData
                0x080158f0                USBH_CtlReceiveData
                0x08015920                USBH_BulkSendData
                0x08015950                USBH_BulkReceiveData
                0x08015980                USBH_InterruptReceiveData
                0x080159b0                USBH_InterruptSendData
                0x080159e0                USBH_IsocReceiveData
                0x08015a10                USBH_IsocSendData
 *fill*         0x08015a38        0x8 
 .text          0x08015a40       0x78 build/obj/usbh_pipes.o
                0x08015a40                USBH_OpenPipe
                0x08015a60                USBH_ClosePipe
                0x08015a70                USBH_AllocPipe
                0x08015aa0                USBH_FreePipe
 *fill*         0x08015ab8        0x8 
 .text          0x08015ac0      0x638 build/obj/usbh_hid.o
                0x08015dc0                USBH_HID_GetHIDReportDescriptor
                0x08015de0                USBH_HID_GetHIDDescriptor
                0x08015e00                USBH_HID_SetIdle
                0x08015e20                USBH_HID_SetReport
                0x08015e50                USBH_HID_GetReport
                0x08015e80                USBH_HID_SetProtocol
                0x08015ea0                USBH_HID_GetDeviceType
                0x08015ed0                USBH_HID_GetPollInterval
                0x08015f00                fifo_init
                0x08015f10                fifo_read
                0x08015f70                fifo_write
 *fill*         0x080160f8        0x8 
 .text          0x08016100      0x144 build/obj/usbh_hid_keybd.o
                0x08016100                USBH_HID_KeybdInit
                0x08016150                USBH_HID_GetKeybdInfo
                0x08016210                USBH_HID_GetASCIICode
 *fill*         0x08016244        0xc 
 .text          0x08016250       0xb8 build/obj/usbh_hid_mouse.o
                0x08016250                USBH_HID_MouseInit
                0x08016290                USBH_HID_GetMouseInfo
 *fill*         0x08016308        0x8 
 .text          0x08016310      0x110 build/obj/usbh_hid_parser.o
                0x08016310                HID_ReadItem
                0x080163a0                HID_WriteItem
 .text          0x08016420     0x12a0 build/obj/stm32f4xx_ll_usb.o
                0x08016490                USB_CoreInit
                0x08016510                USB_EnableGlobalInt
                0x08016520                USB_DisableGlobalInt
                0x08016530                USB_SetCurrentMode
                0x08016570                USB_DevInit
                0x080166f0                USB_FlushTxFifo
                0x08016720                USB_FlushRxFifo
                0x08016740                USB_SetDevSpeed
                0x08016750                USB_GetDevSpeed
                0x08016790                USB_ActivateEndpoint
                0x08016820                USB_ActivateDedicatedEndpoint
                0x08016910                USB_DeactivateEndpoint
                0x080169a0                USB_DeactivateDedicatedEndpoint
                0x08016a00                USB_EPStartXfer
                0x08016c60                USB_EP0StartXfer
                0x08016de0                USB_WritePacket
                0x08016df0                USB_ReadPacket
                0x08016e20                USB_EPSetStall
                0x08016e60                USB_EPClearStall
                0x08016ea0                USB_StopDevice
                0x08016f10                USB_SetDevAddress
                0x08016f30                USB_DevConnect
                0x08016f50                USB_DevDisconnect
                0x08016f70                USB_ReadInterrupts
                0x08016f80                USB_ReadDevAllOutEpInterrupt
                0x08016f90                USB_ReadDevAllInEpInterrupt
                0x08016fa0                USB_ReadDevOutEPInterrupt
                0x08016fc0                USB_ReadDevInEPInterrupt
                0x08016ff0                USB_ClearInterrupts
                0x08017000                USB_GetMode
                0x08017010                USB_ActivateSetup
                0x08017050                USB_EP0_OutStart
                0x080170a0                USB_InitFSLSPClkSel
                0x080170e0                USB_ResetPort
                0x08017120                USB_DriveVbus
                0x08017170                USB_HostInit
                0x08017280                USB_GetHostSpeed
                0x080172a0                USB_GetCurrentFrame
                0x080172b0                USB_HC_Init
                0x080173d0                USB_HC_StartXfer
                0x08017560                USB_HC_ReadInterrupt
                0x08017570                USB_HC_Halt
                0x08017600                USB_DoPing
                0x08017630                USB_StopHost
 .text          0x080176c0      0x468 build/obj/stm32f4xx_hal_gpio.o
                0x080176c0                HAL_GPIO_Init
                0x08017930                HAL_GPIO_DeInit
                0x08017aa0                HAL_GPIO_ReadPin
                0x08017ab0                HAL_GPIO_WritePin
                0x08017ac0                HAL_GPIO_TogglePin
                0x08017ad0                HAL_GPIO_LockPin
                0x08017b00                HAL_GPIO_EXTI_Callback
                0x08017b10                HAL_GPIO_EXTI_IRQHandler
 *fill*         0x08017b28        0x8 
 .text          0x08017b30      0x2a8 build/obj/stm32f4xx_hal_cortex.o
                0x08017b30                HAL_NVIC_SetPriorityGrouping
                0x08017b60                HAL_NVIC_SetPriority
                0x08017bd0                HAL_NVIC_EnableIRQ
                0x08017bf0                HAL_NVIC_DisableIRQ
                0x08017c20                HAL_NVIC_SystemReset
                0x08017c50                HAL_SYSTICK_Config
                0x08017c90                HAL_NVIC_GetPriorityGrouping
                0x08017ca0                HAL_NVIC_GetPriority
                0x08017d00                HAL_NVIC_SetPendingIRQ
                0x08017d20                HAL_NVIC_GetPendingIRQ
                0x08017d50                HAL_NVIC_ClearPendingIRQ
                0x08017d70                HAL_NVIC_GetActive
                0x08017da0                HAL_SYSTICK_CLKSourceConfig
                0x08017dc0                HAL_SYSTICK_Callback
                0x08017dd0                HAL_SYSTICK_IRQHandler
 *fill*         0x08017dd8        0x8 
 .text          0x08017de0      0xb38 build/obj/stm32f4xx_hal_hcd.o
                0x08017de0                HAL_HCD_HC_Init
                0x08017e50                HAL_HCD_HC_Halt
                0x08017e90                HAL_HCD_Init
                0x08017f20                HAL_HCD_DeInit
                0x08017f50                HAL_HCD_HC_SubmitRequest
                0x08018090                HAL_HCD_IRQHandler
                0x08018850                HAL_HCD_Start
                0x08018880                HAL_HCD_Stop
                0x080188b0                HAL_HCD_ResetPort
                0x080188c0                HAL_HCD_GetState
                0x080188d0                HAL_HCD_HC_GetURBState
                0x080188e0                HAL_HCD_HC_GetXferCount
                0x080188f0                HAL_HCD_HC_GetState
                0x08018900                HAL_HCD_GetCurrentFrame
                0x08018910                HAL_HCD_GetCurrentSpeed
 *fill*         0x08018918        0x8 
 .text          0x08018920     0x2194 build/obj/stm32f4xx_hal_i2c.o
                0x08018b30                HAL_I2C_MspInit
                0x08018b40                HAL_I2C_Init
                0x08018c30                HAL_I2C_MspDeInit
                0x08018c40                HAL_I2C_DeInit
                0x08018c80                HAL_I2C_Master_Transmit
                0x08018e30                HAL_I2C_Master_Receive
                0x080190e0                HAL_I2C_Slave_Transmit
                0x08019240                HAL_I2C_Slave_Receive
                0x080193d0                HAL_I2C_Master_Transmit_IT
                0x08019460                HAL_I2C_Master_Receive_IT
                0x08019500                HAL_I2C_Master_Sequential_Transmit_IT
                0x080195c0                HAL_I2C_Master_Sequential_Receive_IT
                0x08019690                HAL_I2C_Slave_Transmit_IT
                0x08019730                HAL_I2C_Slave_Receive_IT
                0x080197d0                HAL_I2C_Slave_Sequential_Transmit_IT
                0x08019840                HAL_I2C_Slave_Sequential_Receive_IT
                0x080198b0                HAL_I2C_EnableListen_IT
                0x080198e0                HAL_I2C_DisableListen_IT
                0x08019930                HAL_I2C_Mem_Write
                0x08019ac0                HAL_I2C_Mem_Read
                0x08019d80                HAL_I2C_Mem_Write_IT
                0x08019e30                HAL_I2C_Mem_Read_IT
                0x08019ee0                HAL_I2C_IsDeviceReady
                0x0801a060                HAL_I2C_MasterTxCpltCallback
                0x0801a070                HAL_I2C_MasterRxCpltCallback
                0x0801a080                HAL_I2C_SlaveTxCpltCallback
                0x0801a090                HAL_I2C_SlaveRxCpltCallback
                0x0801a0a0                HAL_I2C_AddrCallback
                0x0801a0b0                HAL_I2C_ListenCpltCallback
                0x0801a0c0                HAL_I2C_MemTxCpltCallback
                0x0801a0d0                HAL_I2C_MemRxCpltCallback
                0x0801a0e0                HAL_I2C_EV_IRQHandler
                0x0801a810                HAL_I2C_ErrorCallback
                0x0801a820                HAL_I2C_AbortCpltCallback
                0x0801a830                HAL_I2C_Master_Abort_IT
                0x0801a890                HAL_I2C_ER_IRQHandler
                0x0801aa90                HAL_I2C_GetState
                0x0801aaa0                HAL_I2C_GetMode
                0x0801aab0                HAL_I2C_GetError
 *fill*         0x0801aab4        0xc 
 .text          0x0801aac0      0xa38 build/obj/usbh_midi_core.o
                0x0801aac0                USBH_MIDI_ClassRequest
                0x0801aad0                USBH_MIDI_InterfaceInit
                0x0801acf0                USBH_MIDI_InterfaceDeInit
                0x0801ad70                USBH_MIDI_SOFProcess
                0x0801add0                usbh_midi_init_buffer
                0x0801adf0                usbh_midi_deinit_buffer
                0x0801ae10                usbh_midi_init
                0x0801ae30                usbh_midi_reset_buffer
                0x0801ae50                calcCIN
                0x0801ae60                calcPH
                0x0801ae70                usbh_MidiSend1
                0x0801aee0                usbh_MidiSend2
                0x0801af50                usbh_MidiSend3
                0x0801afb0                usbh_MidiSendSysEx
                0x0801b0d0                usbh_MidiGetOutputBufferPending
                0x0801b100                usbh_MidiGetOutputBufferAvailable
                0x0801b110                isValidInput
                0x0801b120                isValidOutput
                0x0801b130                USBH_MIDI_ProcessInput
                0x0801b2c0                USBH_MIDI_ProcessOutput
                0x0801b4e0                USBH_MIDI_Process
 *fill*         0x0801b4f8        0x8 
 .text          0x0801b500      0x210 build/obj/usbh_vendor.o
 .text          0x0801b710      0x514 build/obj/usbh_conf.o
                0x0801b720                MIDI_CB
                0x0801b740                HAL_HCD_MspInit
                0x0801b8b0                HAL_HCD_MspDeInit
                0x0801b8f0                HAL_HCD_SOF_Callback
                0x0801b900                HAL_HCD_Connect_Callback
                0x0801b910                HAL_HCD_Disconnect_Callback
                0x0801b920                HAL_HCD_HC_NotifyURBChange_Callback
                0x0801b930                USBH_LL_Init
                0x0801b9a0                USBH_LL_DeInit
                0x0801b9b0                USBH_LL_Start
                0x0801b9c0                USBH_LL_Stop
                0x0801b9d0                USBH_LL_GetSpeed
                0x0801b9f0                USBH_LL_ResetPort
                0x0801ba00                USBH_LL_GetLastXferSize
                0x0801ba10                USBH_LL_OpenPipe
                0x0801ba40                USBH_LL_ClosePipe
                0x0801ba50                USBH_LL_DriverVBUS
                0x0801ba80                USBH_LL_SetToggle
                0x0801bab0                USBH_LL_GetToggle
                0x0801bad0                USBH_Delay
                0x0801bae0                MY_USBH_Init
                0x0801bb30                USBH_HID_EventCallback
                0x0801bba0                fakemalloc
                0x0801bbe0                fakefree
                0x0801bbf0                Vector174
                0x0801bc10                Vector168
                0x0801bc20                Vector16C
 *fill*         0x0801bc24        0xc 
 .text          0x0801bc30      0x1c4 build/obj/serial_midi.o
                0x0801bc30                serial_MidiInByteHandler
                0x0801bd10                serial_MidiSend1
                0x0801bd20                serial_MidiSend2
                0x0801bd50                serial_MidiSend3
                0x0801bd80                serial_MidiGetOutputBufferPending
                0x0801bda0                serial_midi_init
 *fill*         0x0801bdf4        0xc 
 .text          0x0801be00      0x374 build/obj/bulk_usb.o
                0x0801bf50                bduInit
                0x0801bf60                bduObjectInit
                0x0801bfb0                bduStart
                0x0801bfe0                bduStop
                0x0801c030                bduConfigureHookI
                0x0801c080                bduRequestsHook
                0x0801c090                bduDataTransmitted
                0x0801c110                bduDataReceived
 *fill*         0x0801c174        0xc 
 .text          0x0801c180      0x464 build/obj/midi_usb.o
                0x0801c2e0                mduInit
                0x0801c2f0                mduObjectInit
                0x0801c340                mduStart
                0x0801c370                mduStop
                0x0801c3c0                mduConfigureHookI
                0x0801c410                mduRequestsHook
                0x0801c420                mduDataTransmitted
                0x0801c4a0                mduDataReceived
                0x0801c510                calcDS1
                0x0801c520                calcCIN1
                0x0801c530                midi_usb_MidiSend1
                0x0801c570                midi_usb_MidiSend2
                0x0801c5b0                midi_usb_MidiSend3
 *fill*         0x0801c5e4        0xc 
 .text          0x0801c5f0      0x248 build/obj/spilink.o
                0x0801c6b0                spilink_clear_audio_tx
                0x0801c6f0                spilink_init
 *fill*         0x0801c838        0x8 
 .text          0x0801c840      0x334 build/obj/spidb.o
                0x0801c8f0                dmastream_slave_start
                0x0801c970                spidbSlaveResync
                0x0801c9e0                spidbSlaveStart
                0x0801ca90                spidbMasterStart
 *fill*         0x0801cb74        0xc 
 .text          0x0801cb80       0x98 build/obj/crc32.o
                0x0801cb80                revbit
                0x0801cb90                CalcCRC32
 *fill*         0x0801cc18        0x8 
 .text          0x0801cc20      0x688 build/obj/exceptions.o
                0x0801cc50                UsageFaultVector
                0x0801cc50                BusFaultVector
                0x0801cc50                HardFaultVector
                0x0801cc50                MemManageVector
                0x0801cc50                report_exception
                0x0801cc70                BootLoaderInit
                0x0801ccc0                exception_check_DFU
                0x0801cd10                exception_init
                0x0801cd80                exception_check
                0x0801cda0                exception_clear
                0x0801cdb0                exception_initiate_dfu
                0x0801ce50                exception_checkandreport
                0x0801cf80                report_fatfs_error
                0x0801d010                report_patchLoadFail
                0x0801d0a0                report_patchLoadSDRamOverflow
                0x0801d130                report_usbh_midi_ringbuffer_overflow
                0x0801d150                dbg_set_i
                0x0801d160                terminator
                0x0801d1e0                prvGetRegistersFromStack
                0x0801d280                Vector40
 *fill*         0x0801d2a8        0x8 
 .text          0x0801d2b0       0x14 build/obj/watchdog.o
                0x0801d2b0                watchdog_init
                0x0801d2c0                watchdog_feed
 *fill*         0x0801d2c4        0xc 
 .text          0x0801d2d0      0x29c build/obj/sysmon.o
                0x0801d430                sysmon_init
                0x0801d4b0                sysmon_disable_blinker
                0x0801d4c0                sysmon_enable_blinker
                0x0801d4d0                sysmon_blink_pattern
                0x0801d4f0                setErrorFlag
                0x0801d520                getErrorFlag
                0x0801d540                errorFlagClearAll
                0x0801d550                sysmon_getVoltage50
                0x0801d560                sysmon_getVoltage10
 *fill*         0x0801d56c        0x4 
 .text          0x0801d570       0x9c build/obj/axoloti_memory.o
                0x0801d570                sdram_init
                0x0801d590                sdram_malloc
                0x0801d5e0                sdram_free
                0x0801d600                sdram_get_free
 *fill*         0x0801d60c        0x4 
 .text          0x0801d610        0x0 build/obj/units.o
 .text          0x0801d610        0x0 build/obj/atan.o
 .text          0x0801d610        0x0 build/obj/random.o
 .text          0x0801d610        0x0 build/obj/mutable_resources.o
 .text          0x0801d610        0x0 build/obj/braids_resources.o
 .text          0x0801d610        0x0 build/obj/analog_oscillator.o
 .text          0x0801d610        0x0 build/obj/digital_oscillator.o
 .text          0x0801d610        0x0 build/obj/macro_oscillator.o
 .text          0x0801d610        0x0 build/obj/warps_resources.o
 .text          0x0801d610      0xb58 build/obj/filter_bank.o
                0x0801d610                warps::FilterBank::Init(float)
                0x0801d890                warps::FilterBank::Synthesize(float*, unsigned int)
                0x0801de80                warps::FilterBank::Analyze(float const*, unsigned int)
 *fill*         0x0801e168        0x8 
 .text          0x0801e170     0x200c build/obj/modulator.o
                0x0801e170                warps::Modulator::Init(float)
                0x0801e260                warps::Modulator::ProcessEasterEgg(warps::ShortFrame*, warps::ShortFrame*, unsigned int)
                0x0801e990                warps::Modulator::Process(warps::ShortFrame*, warps::ShortFrame*, unsigned int)
 *fill*         0x0802017c        0x4 
 .text          0x08020180      0x3a8 build/obj/oscillator.o
                0x08020180                warps::Oscillator::RenderSine(float, float*, float*, unsigned int)
                0x08020270                warps::Oscillator::Init(float)
                0x080202c0                warps::Oscillator::Render(warps::OscillatorShape, float, float*, float*, unsigned int)
                0x08020310                warps::Oscillator::Duck(float const*, float const*, float*, unsigned int)
                0x080203a0                warps::Oscillator::RenderNoise(float, float*, float*, unsigned int)
 *fill*         0x08020528        0x8 
 .text          0x08020530      0x4a8 build/obj/vocoder.o
                0x08020530                warps::Vocoder::Init(float)
                0x080205c0                warps::Vocoder::Process(float const*, float const*, float*, unsigned int)
 *fill*         0x080209d8        0x8 
 .text          0x080209e0       0xc8 build/obj/axoloti_mi.o
                0x080209e0                loadElementsData
 *fill*         0x08020aa8        0x8 
 .text          0x08020ab0       0x54 build/obj/multistage_envelope.o
                0x08020ab0                elements::MultistageEnvelope::Init()
 *fill*         0x08020b04        0xc 
 .text          0x08020b10     0x1024 build/obj/ominous_voice.o
                0x08020b10                elements::Spatializer::Init(float)
                0x08020b40                elements::Spatializer::Process(float*, float*, float*, unsigned int)
                0x08020d60                elements::FmOscillator::Process(float, float, float, float, float const*, float*, unsigned int)
                0x08020f70                elements::OminousVoice::Init()
                0x08021150                elements::OminousVoice::ConfigureEnvelope(elements::Patch const&)
                0x08021270                elements::OminousVoice::Process(elements::Patch const&, float, float, bool, float const*, float const*, float*, float*, float*, unsigned int)
 *fill*         0x08021b34        0xc 
 .text          0x08021b40      0x6e0 build/obj/resonator.o
                0x08021b40                elements::Resonator::Init()
                0x08021c00                elements::Resonator::ComputeFilters()
                0x08021eb0                elements::Resonator::Process(float const*, float const*, float*, float*, unsigned int)
 .text          0x08022220      0x100 build/obj/string.o
                0x08022220                elements::String::Init(bool)
                0x08022300                elements::String::Process(float const*, float*, float*, unsigned int)
 .text          0x08022320      0x198 build/obj/tube.o
                0x08022320                elements::Tube::Init()
                0x08022330                elements::Tube::Process(float, float, float, float, float*, float, unsigned int)
 *fill*         0x080224b8        0x8 
 .text          0x080224c0      0x960 build/obj/exciter.o
                0x080224c0                elements::Exciter::ProcessGranularSamplePlayer(unsigned char, float*, unsigned int)
                0x08022610                elements::Exciter::ProcessSamplePlayer(unsigned char, float*, unsigned int)
                0x08022810                elements::Exciter::ProcessMallet(unsigned char, float*, unsigned int)
                0x080228a0                elements::Exciter::ProcessPlectrum(unsigned char, float*, unsigned int)
                0x08022980                elements::Exciter::ProcessFlow(unsigned char, float*, unsigned int)
                0x08022a20                elements::Exciter::ProcessNoise(unsigned char, float*, unsigned int)
                0x08022a70                elements::Exciter::ProcessParticles(unsigned char, float*, unsigned int)
                0x08022c80                elements::Exciter::Init()
                0x08022cd0                elements::Exciter::GetPulseAmplitude(float)
                0x08022d00                elements::Exciter::Process(unsigned char, float*, unsigned int)
 .text          0x08022e20        0x0 build/obj/elements_resources.o
 .text          0x08022e20      0xc64 build/obj/part.o
                0x08022e20                elements::Part::Init(unsigned short*)
                0x08022f90                elements::Part::Seed(unsigned long*, unsigned int)
                0x080230c0                elements::Part::Process(elements::PerformanceState const&, float const*, float const*, float*, float*, unsigned int)
 *fill*         0x08023a84        0xc 
 .text          0x08023a90      0xca8 build/obj/voice.o
                0x08023a90                elements::Voice::ResetResonator()
                0x08023ad0                elements::Voice::Init()
                0x08023bc0                elements::Voice::Process(elements::Patch const&, float, float, bool, float const*, float const*, float*, float*, float*, unsigned int)
 *fill*         0x08024738        0x8 
 .text          0x08024740        0x0 build/obj/clouds_resources.o
 .text          0x08024740       0xec build/obj/correlator.o
                0x08024740                clouds::Correlator::Init(unsigned long*, unsigned long*)
                0x08024760                clouds::Correlator::EvaluateNextCandidate()
                0x08024810                clouds::Correlator::StartSearch(long, long, long)
 *fill*         0x0802482c        0x4 
 .text          0x08024830        0x0 build/obj/mu_law.o
 .text          0x08024830     0x4e78 build/obj/granular_processor.o
                0x08024830                clouds::GranularProcessor::ResetFilters()
                0x08024880                clouds::GranularProcessor::Init(void*, unsigned int, void*, unsigned int)
                0x08024910                clouds::GranularProcessor::PreparePersistentData()
                0x08024980                clouds::GranularProcessor::GetPersistentData(clouds::PersistentBlock*, unsigned int*)
                0x080249e0                clouds::GranularProcessor::Prepare()
                0x08025840                clouds::GranularProcessor::LoadPersistentData(unsigned long const*)
                0x08025a40                clouds::GranularProcessor::ProcessGranular(clouds::FloatFrame*, clouds::FloatFrame*, unsigned int)
                0x080280a0                clouds::GranularProcessor::Process(clouds::ShortFrame*, clouds::ShortFrame*, unsigned int)
 *fill*         0x080296a8        0x8 
 .text          0x080296b0      0xbb4 build/obj/frame_transformation.o
                0x080296b0                clouds::FrameTransformation::Init(float*, long, long)
                0x08029720                clouds::FrameTransformation::Reset()
                0x08029760                clouds::FrameTransformation::RectangularToPolar(float*)
                0x080298a0                clouds::FrameTransformation::SetPhases(float*, float, float)
                0x080299a0                clouds::FrameTransformation::PolarToRectangular(float*)
                0x08029a20                clouds::FrameTransformation::AddGlitch(float*)
                0x08029bc0                clouds::FrameTransformation::QuantizeMagnitudes(float*, float)
                0x08029d10                clouds::FrameTransformation::WarpMagnitudes(float*, float*, float)
                0x08029df0                clouds::FrameTransformation::ShiftMagnitudes(float*, float*, float)
                0x08029ee0                clouds::FrameTransformation::StoreMagnitudes(float*, float, float)
                0x0802a0b0                clouds::FrameTransformation::ReplayMagnitudes(float*, float)
                0x0802a120                clouds::FrameTransformation::Process(clouds::Parameters const&, float*, float*)
 *fill*         0x0802a264        0xc 
 .text          0x0802a270      0x1dc build/obj/phase_vocoder.o
                0x0802a270                clouds::PhaseVocoder::Init(void**, unsigned int*, float const*, unsigned int, long, long, float)
                0x0802a3d0                clouds::PhaseVocoder::Process(clouds::Parameters const&, clouds::FloatFrame const*, clouds::FloatFrame*, unsigned int)
                0x0802a420                clouds::PhaseVocoder::Buffer()
 *fill*         0x0802a44c        0x4 
 .text          0x0802a450      0xfbc build/obj/stft.o
                0x0802a450                clouds::STFT::Reset()
                0x0802a4a0                clouds::STFT::Init(stmlib::ShyFFT<float, 4096u, stmlib::RotationPhasor>*, unsigned int, unsigned int, float*, float*, float const*, short*, clouds::FrameTransformation*)
                0x0802a590                clouds::STFT::Process(clouds::Parameters const&, float const*, float*, unsigned int, unsigned int)
                0x0802a650                clouds::STFT::Buffer()
 *fill*         0x0802b40c        0x4 
 .text          0x0802b410        0x0 build/obj/rings_resources.o
 .text          0x0802b410        0x0 build/obj/streams_resources.o
 .text          0x0802b410      0x25c build/obj/compressor.o
                0x0802b410                streams::Compressor::Init()
                0x0802b420                streams::Compressor::Log2(long)
                0x0802b460                streams::Compressor::Exp2(long)
                0x0802b4e0                streams::Compressor::Compress(long, long, long, bool)
                0x0802b580                streams::Compressor::Process(short, short, unsigned short*, unsigned short*)
 *fill*         0x0802b66c        0x4 
 .text          0x0802b670      0x248 build/obj/envelope.o
                0x0802b670                streams::Envelope::Init()
                0x0802b6d0                streams::Envelope::Process(short, short, unsigned short*, unsigned short*)
 *fill*         0x0802b8b8        0x8 
 .text          0x0802b8c0      0x2b8 build/obj/follower.o
                0x0802b8c0                streams::Follower::Init()
                0x0802b920                streams::Follower::Process(short, short, unsigned short*, unsigned short*)
 *fill*         0x0802bb78        0x8 
 .text          0x0802bb80      0x19c build/obj/lorenz_generator.o
                0x0802bb80                streams::LorenzGenerator::Init()
                0x0802bba0                streams::LorenzGenerator::Process(short, short, unsigned short*, unsigned short*)
 *fill*         0x0802bd1c        0x4 
 .text          0x0802bd20       0xb0 build/obj/processor.o
                0x0802bd20                streams::Processor::Init(unsigned char)
 .text          0x0802bdd0       0xf8 build/obj/svf.o
                0x0802bdd0                streams::Svf::Init()
                0x0802bdf0                streams::Svf::Process(long)
 *fill*         0x0802bec8        0x8 
 .text          0x0802bed0      0x370 build/obj/vactrol.o
                0x0802bed0                streams::Vactrol::Init()
                0x0802bee0                streams::Vactrol::Process(short, short, unsigned short*, unsigned short*)
 .text          0x0802c240        0x0 /home/sbcm/Dropbox/pcb-layouts/axo-427-core/ksoloti/platform_linux/bin/../lib/gcc/arm-none-eabi/4.9.3/../../../../arm-none-eabi/lib/armv7e-m/fpu/libm.a(lib_a-sf_cos.o)
 .text          0x0802c240        0x0 /home/sbcm/Dropbox/pcb-layouts/axo-427-core/ksoloti/platform_linux/bin/../lib/gcc/arm-none-eabi/4.9.3/../../../../arm-none-eabi/lib/armv7e-m/fpu/libm.a(lib_a-sf_sin.o)
 .text          0x0802c240        0x0 /home/sbcm/Dropbox/pcb-layouts/axo-427-core/ksoloti/platform_linux/bin/../lib/gcc/arm-none-eabi/4.9.3/../../../../arm-none-eabi/lib/armv7e-m/fpu/libm.a(lib_a-w_log.o)
 .text          0x0802c240        0x0 /home/sbcm/Dropbox/pcb-layouts/axo-427-core/ksoloti/platform_linux/bin/../lib/gcc/arm-none-eabi/4.9.3/../../../../arm-none-eabi/lib/armv7e-m/fpu/libm.a(lib_a-w_pow.o)
 .text          0x0802c240        0x0 /home/sbcm/Dropbox/pcb-layouts/axo-427-core/ksoloti/platform_linux/bin/../lib/gcc/arm-none-eabi/4.9.3/../../../../arm-none-eabi/lib/armv7e-m/fpu/libm.a(lib_a-wf_pow.o)
 .text          0x0802c240        0x0 /home/sbcm/Dropbox/pcb-layouts/axo-427-core/ksoloti/platform_linux/bin/../lib/gcc/arm-none-eabi/4.9.3/../../../../arm-none-eabi/lib/armv7e-m/fpu/libm.a(lib_a-e_log.o)
 .text          0x0802c240        0x0 /home/sbcm/Dropbox/pcb-layouts/axo-427-core/ksoloti/platform_linux/bin/../lib/gcc/arm-none-eabi/4.9.3/../../../../arm-none-eabi/lib/armv7e-m/fpu/libm.a(lib_a-e_pow.o)
 .text          0x0802c240        0x0 /home/sbcm/Dropbox/pcb-layouts/axo-427-core/ksoloti/platform_linux/bin/../lib/gcc/arm-none-eabi/4.9.3/../../../../arm-none-eabi/lib/armv7e-m/fpu/libm.a(lib_a-e_sqrt.o)
 .text          0x0802c240        0x0 /home/sbcm/Dropbox/pcb-layouts/axo-427-core/ksoloti/platform_linux/bin/../lib/gcc/arm-none-eabi/4.9.3/../../../../arm-none-eabi/lib/armv7e-m/fpu/libm.a(lib_a-ef_pow.o)
 .text          0x0802c240        0x0 /home/sbcm/Dropbox/pcb-layouts/axo-427-core/ksoloti/platform_linux/bin/../lib/gcc/arm-none-eabi/4.9.3/../../../../arm-none-eabi/lib/armv7e-m/fpu/libm.a(lib_a-ef_rem_pio2.o)
 .text          0x0802c240        0x0 /home/sbcm/Dropbox/pcb-layouts/axo-427-core/ksoloti/platform_linux/bin/../lib/gcc/arm-none-eabi/4.9.3/../../../../arm-none-eabi/lib/armv7e-m/fpu/libm.a(lib_a-ef_sqrt.o)
 .text          0x0802c240        0x0 /home/sbcm/Dropbox/pcb-layouts/axo-427-core/ksoloti/platform_linux/bin/../lib/gcc/arm-none-eabi/4.9.3/../../../../arm-none-eabi/lib/armv7e-m/fpu/libm.a(lib_a-kf_cos.o)
 .text          0x0802c240        0x0 /home/sbcm/Dropbox/pcb-layouts/axo-427-core/ksoloti/platform_linux/bin/../lib/gcc/arm-none-eabi/4.9.3/../../../../arm-none-eabi/lib/armv7e-m/fpu/libm.a(lib_a-kf_rem_pio2.o)
 .text          0x0802c240        0x0 /home/sbcm/Dropbox/pcb-layouts/axo-427-core/ksoloti/platform_linux/bin/../lib/gcc/arm-none-eabi/4.9.3/../../../../arm-none-eabi/lib/armv7e-m/fpu/libm.a(lib_a-kf_sin.o)
 .text          0x0802c240        0x0 /home/sbcm/Dropbox/pcb-layouts/axo-427-core/ksoloti/platform_linux/bin/../lib/gcc/arm-none-eabi/4.9.3/../../../../arm-none-eabi/lib/armv7e-m/fpu/libm.a(lib_a-s_fabs.o)
 .text          0x0802c240        0x0 /home/sbcm/Dropbox/pcb-layouts/axo-427-core/ksoloti/platform_linux/bin/../lib/gcc/arm-none-eabi/4.9.3/../../../../arm-none-eabi/lib/armv7e-m/fpu/libm.a(lib_a-s_finite.o)
 .text          0x0802c240        0x0 /home/sbcm/Dropbox/pcb-layouts/axo-427-core/ksoloti/platform_linux/bin/../lib/gcc/arm-none-eabi/4.9.3/../../../../arm-none-eabi/lib/armv7e-m/fpu/libm.a(lib_a-s_fpclassify.o)
 .text          0x0802c240        0x0 /home/sbcm/Dropbox/pcb-layouts/axo-427-core/ksoloti/platform_linux/bin/../lib/gcc/arm-none-eabi/4.9.3/../../../../arm-none-eabi/lib/armv7e-m/fpu/libm.a(lib_a-s_lib_ver.o)
 .text          0x0802c240        0x0 /home/sbcm/Dropbox/pcb-layouts/axo-427-core/ksoloti/platform_linux/bin/../lib/gcc/arm-none-eabi/4.9.3/../../../../arm-none-eabi/lib/armv7e-m/fpu/libm.a(lib_a-s_matherr.o)
 .text          0x0802c240        0x0 /home/sbcm/Dropbox/pcb-layouts/axo-427-core/ksoloti/platform_linux/bin/../lib/gcc/arm-none-eabi/4.9.3/../../../../arm-none-eabi/lib/armv7e-m/fpu/libm.a(lib_a-s_nan.o)
 .text          0x0802c240        0x0 /home/sbcm/Dropbox/pcb-layouts/axo-427-core/ksoloti/platform_linux/bin/../lib/gcc/arm-none-eabi/4.9.3/../../../../arm-none-eabi/lib/armv7e-m/fpu/libm.a(lib_a-s_rint.o)
 .text          0x0802c240        0x0 /home/sbcm/Dropbox/pcb-layouts/axo-427-core/ksoloti/platform_linux/bin/../lib/gcc/arm-none-eabi/4.9.3/../../../../arm-none-eabi/lib/armv7e-m/fpu/libm.a(lib_a-s_scalbn.o)
 .text          0x0802c240        0x0 /home/sbcm/Dropbox/pcb-layouts/axo-427-core/ksoloti/platform_linux/bin/../lib/gcc/arm-none-eabi/4.9.3/../../../../arm-none-eabi/lib/armv7e-m/fpu/libm.a(lib_a-sf_fabs.o)
 .text          0x0802c240        0x0 /home/sbcm/Dropbox/pcb-layouts/axo-427-core/ksoloti/platform_linux/bin/../lib/gcc/arm-none-eabi/4.9.3/../../../../arm-none-eabi/lib/armv7e-m/fpu/libm.a(lib_a-sf_finite.o)
 .text          0x0802c240        0x0 /home/sbcm/Dropbox/pcb-layouts/axo-427-core/ksoloti/platform_linux/bin/../lib/gcc/arm-none-eabi/4.9.3/../../../../arm-none-eabi/lib/armv7e-m/fpu/libm.a(lib_a-sf_floor.o)
 .text          0x0802c240        0x0 /home/sbcm/Dropbox/pcb-layouts/axo-427-core/ksoloti/platform_linux/bin/../lib/gcc/arm-none-eabi/4.9.3/../../../../arm-none-eabi/lib/armv7e-m/fpu/libm.a(lib_a-sf_fpclassify.o)
 .text          0x0802c240        0x0 /home/sbcm/Dropbox/pcb-layouts/axo-427-core/ksoloti/platform_linux/bin/../lib/gcc/arm-none-eabi/4.9.3/../../../../arm-none-eabi/lib/armv7e-m/fpu/libm.a(lib_a-sf_nan.o)
 .text          0x0802c240        0x0 /home/sbcm/Dropbox/pcb-layouts/axo-427-core/ksoloti/platform_linux/bin/../lib/gcc/arm-none-eabi/4.9.3/../../../../arm-none-eabi/lib/armv7e-m/fpu/libm.a(lib_a-sf_scalbn.o)
 .text          0x0802c240        0x0 /home/sbcm/Dropbox/pcb-layouts/axo-427-core/ksoloti/platform_linux/bin/../lib/gcc/arm-none-eabi/4.9.3/../../../../arm-none-eabi/lib/armv7e-m/fpu/libm.a(lib_a-s_copysign.o)
 .text          0x0802c240        0x0 /home/sbcm/Dropbox/pcb-layouts/axo-427-core/ksoloti/platform_linux/bin/../lib/gcc/arm-none-eabi/4.9.3/../../../../arm-none-eabi/lib/armv7e-m/fpu/libm.a(lib_a-sf_copysign.o)
 .text          0x0802c240      0x370 /home/sbcm/Dropbox/pcb-layouts/axo-427-core/ksoloti/platform_linux/bin/../lib/gcc/arm-none-eabi/4.9.3/armv7e-m/fpu/libgcc.a(_arm_addsubdf3.o)
                0x0802c240                __aeabi_drsub
                0x0802c248                __aeabi_dsub
                0x0802c248                __subdf3
                0x0802c24c                __adddf3
                0x0802c24c                __aeabi_dadd
                0x0802c4c4                __aeabi_ui2d
                0x0802c4c4                __floatunsidf
                0x0802c4e4                __floatsidf
                0x0802c4e4                __aeabi_i2d
                0x0802c508                __extendsfdf2
                0x0802c508                __aeabi_f2d
                0x0802c544                __aeabi_ul2d
                0x0802c544                __floatundidf
                0x0802c554                __floatdidf
                0x0802c554                __aeabi_l2d
 .text          0x0802c5b0      0x424 /home/sbcm/Dropbox/pcb-layouts/axo-427-core/ksoloti/platform_linux/bin/../lib/gcc/arm-none-eabi/4.9.3/armv7e-m/fpu/libgcc.a(_arm_muldivdf3.o)
                0x0802c5b0                __aeabi_dmul
                0x0802c5b0                __muldf3
                0x0802c804                __aeabi_ddiv
                0x0802c804                __divdf3
 *fill*         0x0802c9d4        0xc 
 .text          0x0802c9e0      0x110 /home/sbcm/Dropbox/pcb-layouts/axo-427-core/ksoloti/platform_linux/bin/../lib/gcc/arm-none-eabi/4.9.3/armv7e-m/fpu/libgcc.a(_arm_cmpdf2.o)
                0x0802c9e0                __gtdf2
                0x0802c9e0                __gedf2
                0x0802c9e8                __ltdf2
                0x0802c9e8                __ledf2
                0x0802c9f0                __cmpdf2
                0x0802c9f0                __eqdf2
                0x0802c9f0                __nedf2
                0x0802ca6c                __aeabi_cdrcmple
                0x0802ca7c                __aeabi_cdcmple
                0x0802ca7c                __aeabi_cdcmpeq
                0x0802ca8c                __aeabi_dcmpeq
                0x0802caa0                __aeabi_dcmplt
                0x0802cab4                __aeabi_dcmple
                0x0802cac8                __aeabi_dcmpge
                0x0802cadc                __aeabi_dcmpgt
 .text          0x0802caf0       0x50 /home/sbcm/Dropbox/pcb-layouts/axo-427-core/ksoloti/platform_linux/bin/../lib/gcc/arm-none-eabi/4.9.3/armv7e-m/fpu/libgcc.a(_arm_fixdfsi.o)
                0x0802caf0                __fixdfsi
                0x0802caf0                __aeabi_d2iz
 .text          0x0802cb40       0x40 /home/sbcm/Dropbox/pcb-layouts/axo-427-core/ksoloti/platform_linux/bin/../lib/gcc/arm-none-eabi/4.9.3/armv7e-m/fpu/libgcc.a(_arm_fixunsdfsi.o)
                0x0802cb40                __fixunsdfsi
                0x0802cb40                __aeabi_d2uiz
 .text          0x0802cb80       0xa0 /home/sbcm/Dropbox/pcb-layouts/axo-427-core/ksoloti/platform_linux/bin/../lib/gcc/arm-none-eabi/4.9.3/armv7e-m/fpu/libgcc.a(_arm_truncdfsf2.o)
                0x0802cb80                __aeabi_d2f
                0x0802cb80                __truncdfsf2
 .text          0x0802cc20      0xa50 /home/sbcm/Dropbox/pcb-layouts/axo-427-core/ksoloti/platform_linux/bin/../lib/gcc/arm-none-eabi/4.9.3/armv7e-m/fpu/libgcc.a(unwind-arm.o)
                0x0802cefc                _Unwind_GetCFA
                0x0802cf00                __gnu_Unwind_RaiseException
                0x0802cf60                __gnu_Unwind_ForcedUnwind
                0x0802cf74                __gnu_Unwind_Resume
                0x0802cfb8                __gnu_Unwind_Resume_or_Rethrow
                0x0802cfc8                _Unwind_Complete
                0x0802cfcc                _Unwind_DeleteException
                0x0802cfd8                _Unwind_VRS_Get
                0x0802d028                _Unwind_VRS_Set
                0x0802d078                __gnu_Unwind_Backtrace
                0x0802d3bc                __aeabi_unwind_cpp_pr0
                0x0802d3c0                __aeabi_unwind_cpp_pr1
                0x0802d3c4                __aeabi_unwind_cpp_pr2
                0x0802d3c8                _Unwind_VRS_Pop
 .text          0x0802d670      0x1ac /home/sbcm/Dropbox/pcb-layouts/axo-427-core/ksoloti/platform_linux/bin/../lib/gcc/arm-none-eabi/4.9.3/armv7e-m/fpu/libgcc.a(libunwind.o)
                0x0802d670                __restore_core_regs
                0x0802d670                restore_core_regs
                0x0802d688                __gnu_Unwind_Restore_VFP
                0x0802d690                __gnu_Unwind_Save_VFP
                0x0802d698                __gnu_Unwind_Restore_VFP_D
                0x0802d6a0                __gnu_Unwind_Save_VFP_D
                0x0802d6a8                __gnu_Unwind_Restore_VFP_D_16_to_31
                0x0802d6b0                __gnu_Unwind_Save_VFP_D_16_to_31
                0x0802d6b8                __gnu_Unwind_Restore_WMMXD
                0x0802d6fc                __gnu_Unwind_Save_WMMXD
                0x0802d740                __gnu_Unwind_Restore_WMMXC
                0x0802d754                __gnu_Unwind_Save_WMMXC
                0x0802d768                ___Unwind_RaiseException
                0x0802d768                _Unwind_RaiseException
                0x0802d78c                ___Unwind_Resume
                0x0802d78c                _Unwind_Resume
                0x0802d7b0                _Unwind_Resume_or_Rethrow
                0x0802d7b0                ___Unwind_Resume_or_Rethrow
                0x0802d7d4                ___Unwind_ForcedUnwind
                0x0802d7d4                _Unwind_ForcedUnwind
                0x0802d7f8                _Unwind_Backtrace
                0x0802d7f8                ___Unwind_Backtrace
 *fill*         0x0802d81c        0x4 
 .text          0x0802d820      0x37c /home/sbcm/Dropbox/pcb-layouts/axo-427-core/ksoloti/platform_linux/bin/../lib/gcc/arm-none-eabi/4.9.3/armv7e-m/fpu/libgcc.a(pr-support.o)
                0x0802d878                __gnu_unwind_execute
                0x0802db44                __gnu_unwind_frame
                0x0802db6c                _Unwind_GetRegionStart
                0x0802db78                _Unwind_GetLanguageSpecificData
                0x0802db8c                _Unwind_GetDataRelBase
                0x0802db94                _Unwind_GetTextRelBase
 *fill*         0x0802db9c        0x4 
 .text          0x0802dba0        0x0 /home/sbcm/Dropbox/pcb-layouts/axo-427-core/ksoloti/platform_linux/bin/../lib/gcc/arm-none-eabi/4.9.3/../../../../arm-none-eabi/lib/armv7e-m/fpu/libg.a(lib_a-abort.o)
 .text          0x0802dba0        0x0 /home/sbcm/Dropbox/pcb-layouts/axo-427-core/ksoloti/platform_linux/bin/../lib/gcc/arm-none-eabi/4.9.3/../../../../arm-none-eabi/lib/armv7e-m/fpu/libg.a(lib_a-errno.o)
 .text          0x0802dba0        0x0 /home/sbcm/Dropbox/pcb-layouts/axo-427-core/ksoloti/platform_linux/bin/../lib/gcc/arm-none-eabi/4.9.3/../../../../arm-none-eabi/lib/armv7e-m/fpu/libg.a(lib_a-impure.o)
 .text          0x0802dba0      0x134 /home/sbcm/Dropbox/pcb-layouts/axo-427-core/ksoloti/platform_linux/bin/../lib/gcc/arm-none-eabi/4.9.3/../../../../arm-none-eabi/lib/armv7e-m/fpu/libg.a(lib_a-memcpy.o)
                0x0802dba0                memcpy
 *fill*         0x0802dcd4        0xc 
 .text          0x0802dce0        0x0 /home/sbcm/Dropbox/pcb-layouts/axo-427-core/ksoloti/platform_linux/bin/../lib/gcc/arm-none-eabi/4.9.3/../../../../arm-none-eabi/lib/armv7e-m/fpu/libg.a(lib_a-memmove.o)
 .text          0x0802dce0        0x0 /home/sbcm/Dropbox/pcb-layouts/axo-427-core/ksoloti/platform_linux/bin/../lib/gcc/arm-none-eabi/4.9.3/../../../../arm-none-eabi/lib/armv7e-m/fpu/libg.a(lib_a-memset.o)
 .text          0x0802dce0        0x0 /home/sbcm/Dropbox/pcb-layouts/axo-427-core/ksoloti/platform_linux/bin/../lib/gcc/arm-none-eabi/4.9.3/../../../../arm-none-eabi/lib/armv7e-m/fpu/libg.a(lib_a-signal.o)
 .text          0x0802dce0        0x0 /home/sbcm/Dropbox/pcb-layouts/axo-427-core/ksoloti/platform_linux/bin/../lib/gcc/arm-none-eabi/4.9.3/../../../../arm-none-eabi/lib/armv7e-m/fpu/libg.a(lib_a-signalr.o)
 .text          0x0802dce0        0x0 /home/sbcm/Dropbox/pcb-layouts/axo-427-core/ksoloti/platform_linux/bin/../lib/gcc/arm-none-eabi/4.9.3/../../../../arm-none-eabi/lib/armv7e-m/fpu/libg.a(lib_a-stpcpy.o)
 .text          0x0802dce0        0x0 /home/sbcm/Dropbox/pcb-layouts/axo-427-core/ksoloti/platform_linux/bin/../lib/gcc/arm-none-eabi/4.9.3/../../../../arm-none-eabi/lib/armv7e-m/fpu/libg.a(lib_a-strcpy.o)
 .text          0x0802dce0        0x0 /home/sbcm/Dropbox/pcb-layouts/axo-427-core/ksoloti/platform_linux/bin/../lib/gcc/arm-none-eabi/4.9.3/../../../../arm-none-eabi/lib/armv7e-m/fpu/libg.a(lib_a-strlen.o)
 .text          0x0802dce0        0x0 /home/sbcm/Dropbox/pcb-layouts/axo-427-core/ksoloti/platform_linux/bin/../lib/gcc/arm-none-eabi/4.9.3/../../../../arm-none-eabi/lib/armv7e-m/fpu/libg.a(lib_a-mallocr.o)
 .text          0x0802dce0        0x0 /home/sbcm/Dropbox/pcb-layouts/axo-427-core/ksoloti/platform_linux/bin/../lib/gcc/arm-none-eabi/4.9.3/../../../../arm-none-eabi/lib/armv7e-m/fpu/libg.a(lib_a-mlock.o)
 .text          0x0802dce0        0x0 /home/sbcm/Dropbox/pcb-layouts/axo-427-core/ksoloti/platform_linux/bin/../lib/gcc/arm-none-eabi/4.9.3/../../../../arm-none-eabi/lib/armv7e-m/fpu/libg.a(lib_a-reent.o)
 .text          0x0802dce0        0x0 /home/sbcm/Dropbox/pcb-layouts/axo-427-core/ksoloti/platform_linux/bin/../lib/gcc/arm-none-eabi/4.9.3/../../../../arm-none-eabi/lib/armv7e-m/fpu/libg.a(lib_a-sbrkr.o)
 .text          0x0802dce0        0x0 /home/sbcm/Dropbox/pcb-layouts/axo-427-core/ksoloti/platform_linux/bin/../lib/gcc/arm-none-eabi/4.9.3/../../../../arm-none-eabi/lib/armv7e-m/fpu/libg.a(lib_a-freer.o)
 *(.text.*)
 .text.startup  0x0802dce0       0x8c build/obj/main.o
                0x0802dce0                main
 *fill*         0x0802dd6c        0x4 
 .text._ZN5warps19SampleRateConverterILNS_29SampleRateConversionDirectionE1ELl4ELl48EE7ProcessEPKfPfj
                0x0802dd70      0xaec build/obj/filter_bank.o
                0x0802dd70                warps::SampleRateConverter<(warps::SampleRateConversionDirection)1, 4l, 48l>::Process(float const*, float*, unsigned int)
 *fill*         0x0802e85c        0x4 
 .text._ZN5warps9Modulator11ProcessXmodILNS_13XmodAlgorithmE3ELS2_4EEEvffffPKfS4_Pfj
                0x0802e860      0x1e8 build/obj/modulator.o
                0x0802e860                void warps::Modulator::ProcessXmod<(warps::XmodAlgorithm)3, (warps::XmodAlgorithm)4>(float, float, float, float, float const*, float const*, float*, unsigned int)
 *fill*         0x0802ea48        0x8 
 .text._ZN5warps9Modulator11ProcessXmodILNS_13XmodAlgorithmE0ELS2_1EEEvffffPKfS4_Pfj
                0x0802ea50      0x2a0 build/obj/modulator.o
                0x0802ea50                void warps::Modulator::ProcessXmod<(warps::XmodAlgorithm)0, (warps::XmodAlgorithm)1>(float, float, float, float, float const*, float const*, float*, unsigned int)
 .text._ZN5warps9Modulator11ProcessXmodILNS_13XmodAlgorithmE5ELS2_6EEEvffffPKfS4_Pfj
                0x0802ecf0      0x214 build/obj/modulator.o
                0x0802ecf0                void warps::Modulator::ProcessXmod<(warps::XmodAlgorithm)5, (warps::XmodAlgorithm)6>(float, float, float, float, float const*, float const*, float*, unsigned int)
 *fill*         0x0802ef04        0xc 
 .text._ZN5warps9Modulator11ProcessXmodILNS_13XmodAlgorithmE4ELS2_5EEEvffffPKfS4_Pfj
                0x0802ef10      0x308 build/obj/modulator.o
                0x0802ef10                void warps::Modulator::ProcessXmod<(warps::XmodAlgorithm)4, (warps::XmodAlgorithm)5>(float, float, float, float, float const*, float const*, float*, unsigned int)
 *fill*         0x0802f218        0x8 
 .text._ZN5warps9Modulator11ProcessXmodILNS_13XmodAlgorithmE1ELS2_2EEEvffffPKfS4_Pfj
                0x0802f220      0x364 build/obj/modulator.o
                0x0802f220                void warps::Modulator::ProcessXmod<(warps::XmodAlgorithm)1, (warps::XmodAlgorithm)2>(float, float, float, float, float const*, float const*, float*, unsigned int)
 *fill*         0x0802f584        0xc 
 .text._ZN5warps9Modulator11ProcessXmodILNS_13XmodAlgorithmE2ELS2_3EEEvffffPKfS4_Pfj
                0x0802f590      0x2d0 build/obj/modulator.o
                0x0802f590                void warps::Modulator::ProcessXmod<(warps::XmodAlgorithm)2, (warps::XmodAlgorithm)3>(float, float, float, float, float const*, float const*, float*, unsigned int)
 .text._ZN5warps10Oscillator14RenderPolyblepILNS_15OscillatorShapeE1EEEffPfS3_j
                0x0802f860      0x170 build/obj/oscillator.o
                0x0802f860                float warps::Oscillator::RenderPolyblep<(warps::OscillatorShape)1>(float, float*, float*, unsigned int)
 .text._ZN5warps10Oscillator14RenderPolyblepILNS_15OscillatorShapeE2EEEffPfS3_j
                0x0802f9d0      0x128 build/obj/oscillator.o
                0x0802f9d0                float warps::Oscillator::RenderPolyblep<(warps::OscillatorShape)2>(float, float*, float*, unsigned int)
 *fill*         0x0802faf8        0x8 
 .text._ZN5warps10Oscillator14RenderPolyblepILNS_15OscillatorShapeE3EEEffPfS3_j
                0x0802fb00      0x14c build/obj/oscillator.o
                0x0802fb00                float warps::Oscillator::RenderPolyblep<(warps::OscillatorShape)3>(float, float*, float*, unsigned int)
 *fill*         0x0802fc4c        0x4 
 .text._ZN8elements6String15ProcessInternalILb1EEEvPKfPfS4_j
                0x0802fc50      0x880 build/obj/string.o
                0x0802fc50                void elements::String::ProcessInternal<true>(float const*, float*, float*, unsigned int)
 .text._ZN8elements6String15ProcessInternalILb0EEEvPKfPfS4_j
                0x080304d0      0x5b0 build/obj/string.o
                0x080304d0                void elements::String::ProcessInternal<false>(float const*, float*, float*, unsigned int)
 .text._ZN6clouds20GranularSamplePlayer4PlayILNS_10ResolutionE3EEEvPKNS_11AudioBufferIXT_EEERKNS_10ParametersEPfj
                0x08030a80     0x14c4 build/obj/granular_processor.o
                0x08030a80                void clouds::GranularSamplePlayer::Play<(clouds::Resolution)3>(clouds::AudioBuffer<(clouds::Resolution)3> const*, clouds::Parameters const&, float*, unsigned int)
 *fill*         0x08031f44        0xc 
 .text._ZN6clouds20GranularSamplePlayer4PlayILNS_10ResolutionE0EEEvPKNS_11AudioBufferIXT_EEERKNS_10ParametersEPfj
                0x08031f50     0x1464 build/obj/granular_processor.o
                0x08031f50                void clouds::GranularSamplePlayer::Play<(clouds::Resolution)0>(clouds::AudioBuffer<(clouds::Resolution)0> const*, clouds::Parameters const&, float*, unsigned int)
 *fill*         0x080333b4        0xc 
 .text._ZN7streams9Processor19CompressorConfigureEbPlS1_
                0x080333c0       0xcc build/obj/processor.o
                0x080333c0                streams::Processor::CompressorConfigure(bool, long*, long*)
 *fill*         0x0803348c        0x4 
 .text._ZN7streams9Processor20FilterControllerInitEv
                0x08033490        0xc build/obj/processor.o
                0x08033490                streams::Processor::FilterControllerInit()
 *fill*         0x0803349c        0x4 
 .text._ZN7streams9Processor25FilterControllerConfigureEbPlS1_
                0x080334a0       0x30 build/obj/processor.o
                0x080334a0                streams::Processor::FilterControllerConfigure(bool, long*, long*)
 .text._ZN7streams9Processor24LorenzGeneratorConfigureEbPlS1_
                0x080334d0       0x2c build/obj/processor.o
                0x080334d0                streams::Processor::LorenzGeneratorConfigure(bool, long*, long*)
 *fill*         0x080334fc        0x4 
 .text._ZN7streams9Processor22LorenzGeneratorProcessEssPtS1_
                0x08033500        0x8 build/obj/processor.o
                0x08033500                streams::Processor::LorenzGeneratorProcess(short, short, unsigned short*, unsigned short*)
 *fill*         0x08033508        0x8 
 .text._ZN7streams9Processor19LorenzGeneratorInitEv
                0x08033510        0x8 build/obj/processor.o
                0x08033510                streams::Processor::LorenzGeneratorInit()
 *fill*         0x08033518        0x8 
 .text._ZN7streams9Processor17CompressorProcessEssPtS1_
                0x08033520        0x8 build/obj/processor.o
                0x08033520                streams::Processor::CompressorProcess(short, short, unsigned short*, unsigned short*)
 *fill*         0x08033528        0x8 
 .text._ZN7streams9Processor14CompressorInitEv
                0x08033530        0x8 build/obj/processor.o
                0x08033530                streams::Processor::CompressorInit()
 *fill*         0x08033538        0x8 
 .text._ZN7streams9Processor15FollowerProcessEssPtS1_
                0x08033540        0x8 build/obj/processor.o
                0x08033540                streams::Processor::FollowerProcess(short, short, unsigned short*, unsigned short*)
 *fill*         0x08033548        0x8 
 .text._ZN7streams9Processor12FollowerInitEv
                0x08033550        0x8 build/obj/processor.o
                0x08033550                streams::Processor::FollowerInit()
 *fill*         0x08033558        0x8 
 .text._ZN7streams9Processor14VactrolProcessEssPtS1_
                0x08033560        0x8 build/obj/processor.o
                0x08033560                streams::Processor::VactrolProcess(short, short, unsigned short*, unsigned short*)
 *fill*         0x08033568        0x8 
 .text._ZN7streams9Processor11VactrolInitEv
                0x08033570        0x8 build/obj/processor.o
                0x08033570                streams::Processor::VactrolInit()
 *fill*         0x08033578        0x8 
 .text._ZN7streams9Processor15EnvelopeProcessEssPtS1_
                0x08033580        0x8 build/obj/processor.o
                0x08033580                streams::Processor::EnvelopeProcess(short, short, unsigned short*, unsigned short*)
 *fill*         0x08033588        0x8 
 .text._ZN7streams9Processor12EnvelopeInitEv
                0x08033590        0x8 build/obj/processor.o
                0x08033590                streams::Processor::EnvelopeInit()
 *fill*         0x08033598        0x8 
 .text._ZN7streams9Processor23FilterControllerProcessEssPtS1_
                0x080335a0       0x40 build/obj/processor.o
                0x080335a0                streams::Processor::FilterControllerProcess(short, short, unsigned short*, unsigned short*)
 .text._ZN7streams9Processor16VactrolConfigureEbPlS1_
                0x080335e0      0x170 build/obj/processor.o
                0x080335e0                streams::Processor::VactrolConfigure(bool, long*, long*)
 .text._ZN7streams9Processor17FollowerConfigureEbPlS1_
                0x08033750       0xfc build/obj/processor.o
                0x08033750                streams::Processor::FollowerConfigure(bool, long*, long*)
 *fill*         0x0803384c        0x4 
 .text._ZN7streams9Processor17EnvelopeConfigureEbPlS1_
                0x08033850      0x12c build/obj/processor.o
                0x08033850                streams::Processor::EnvelopeConfigure(bool, long*, long*)
 *fill*         0x0803397c        0x4 
 .text.cosf     0x08033980       0x78 /home/sbcm/Dropbox/pcb-layouts/axo-427-core/ksoloti/platform_linux/bin/../lib/gcc/arm-none-eabi/4.9.3/../../../../arm-none-eabi/lib/armv7e-m/fpu/libm.a(lib_a-sf_cos.o)
                0x08033980                cosf
 *fill*         0x080339f8        0x8 
 .text.sinf     0x08033a00       0x7c /home/sbcm/Dropbox/pcb-layouts/axo-427-core/ksoloti/platform_linux/bin/../lib/gcc/arm-none-eabi/4.9.3/../../../../arm-none-eabi/lib/armv7e-m/fpu/libm.a(lib_a-sf_sin.o)
                0x08033a00                sinf
 *fill*         0x08033a7c        0x4 
 .text.log      0x08033a80      0x10c /home/sbcm/Dropbox/pcb-layouts/axo-427-core/ksoloti/platform_linux/bin/../lib/gcc/arm-none-eabi/4.9.3/../../../../arm-none-eabi/lib/armv7e-m/fpu/libm.a(lib_a-w_log.o)
                0x08033a80                log
 *fill*         0x08033b8c        0x4 
 .text.pow      0x08033b90      0x340 /home/sbcm/Dropbox/pcb-layouts/axo-427-core/ksoloti/platform_linux/bin/../lib/gcc/arm-none-eabi/4.9.3/../../../../arm-none-eabi/lib/armv7e-m/fpu/libm.a(lib_a-w_pow.o)
                0x08033b90                pow
 .text.powf     0x08033ed0      0x344 /home/sbcm/Dropbox/pcb-layouts/axo-427-core/ksoloti/platform_linux/bin/../lib/gcc/arm-none-eabi/4.9.3/../../../../arm-none-eabi/lib/armv7e-m/fpu/libm.a(lib_a-wf_pow.o)
                0x08033ed0                powf
 *fill*         0x08034214        0xc 
 .text.__ieee754_log
                0x08034220      0x400 /home/sbcm/Dropbox/pcb-layouts/axo-427-core/ksoloti/platform_linux/bin/../lib/gcc/arm-none-eabi/4.9.3/../../../../arm-none-eabi/lib/armv7e-m/fpu/libm.a(lib_a-e_log.o)
                0x08034220                __ieee754_log
 .text.__ieee754_pow
                0x08034620      0xae0 /home/sbcm/Dropbox/pcb-layouts/axo-427-core/ksoloti/platform_linux/bin/../lib/gcc/arm-none-eabi/4.9.3/../../../../arm-none-eabi/lib/armv7e-m/fpu/libm.a(lib_a-e_pow.o)
                0x08034620                __ieee754_pow
 .text.__ieee754_sqrt
                0x08035100      0x1a8 /home/sbcm/Dropbox/pcb-layouts/axo-427-core/ksoloti/platform_linux/bin/../lib/gcc/arm-none-eabi/4.9.3/../../../../arm-none-eabi/lib/armv7e-m/fpu/libm.a(lib_a-e_sqrt.o)
                0x08035100                __ieee754_sqrt
 *fill*         0x080352a8        0x8 
 .text.__ieee754_powf
                0x080352b0      0x5f0 /home/sbcm/Dropbox/pcb-layouts/axo-427-core/ksoloti/platform_linux/bin/../lib/gcc/arm-none-eabi/4.9.3/../../../../arm-none-eabi/lib/armv7e-m/fpu/libm.a(lib_a-ef_pow.o)
                0x080352b0                __ieee754_powf
 .text.__ieee754_rem_pio2f
                0x080358a0      0x290 /home/sbcm/Dropbox/pcb-layouts/axo-427-core/ksoloti/platform_linux/bin/../lib/gcc/arm-none-eabi/4.9.3/../../../../arm-none-eabi/lib/armv7e-m/fpu/libm.a(lib_a-ef_rem_pio2.o)
                0x080358a0                __ieee754_rem_pio2f
 .text.__ieee754_sqrtf
                0x08035b30       0xa4 /home/sbcm/Dropbox/pcb-layouts/axo-427-core/ksoloti/platform_linux/bin/../lib/gcc/arm-none-eabi/4.9.3/../../../../arm-none-eabi/lib/armv7e-m/fpu/libm.a(lib_a-ef_sqrt.o)
                0x08035b30                __ieee754_sqrtf
 *fill*         0x08035bd4        0xc 
 .text.__kernel_cosf
                0x08035be0      0x104 /home/sbcm/Dropbox/pcb-layouts/axo-427-core/ksoloti/platform_linux/bin/../lib/gcc/arm-none-eabi/4.9.3/../../../../arm-none-eabi/lib/armv7e-m/fpu/libm.a(lib_a-kf_cos.o)
                0x08035be0                __kernel_cosf
 *fill*         0x08035ce4        0xc 
 .text.__kernel_rem_pio2f
                0x08035cf0      0x5e4 /home/sbcm/Dropbox/pcb-layouts/axo-427-core/ksoloti/platform_linux/bin/../lib/gcc/arm-none-eabi/4.9.3/../../../../arm-none-eabi/lib/armv7e-m/fpu/libm.a(lib_a-kf_rem_pio2.o)
                0x08035cf0                __kernel_rem_pio2f
 *fill*         0x080362d4        0xc 
 .text.__kernel_sinf
                0x080362e0       0x90 /home/sbcm/Dropbox/pcb-layouts/axo-427-core/ksoloti/platform_linux/bin/../lib/gcc/arm-none-eabi/4.9.3/../../../../arm-none-eabi/lib/armv7e-m/fpu/libm.a(lib_a-kf_sin.o)
                0x080362e0                __kernel_sinf
 .text.fabs     0x08036370       0x10 /home/sbcm/Dropbox/pcb-layouts/axo-427-core/ksoloti/platform_linux/bin/../lib/gcc/arm-none-eabi/4.9.3/../../../../arm-none-eabi/lib/armv7e-m/fpu/libm.a(lib_a-s_fabs.o)
                0x08036370                fabs
 .text.finite   0x08036380       0x10 /home/sbcm/Dropbox/pcb-layouts/axo-427-core/ksoloti/platform_linux/bin/../lib/gcc/arm-none-eabi/4.9.3/../../../../arm-none-eabi/lib/armv7e-m/fpu/libm.a(lib_a-s_finite.o)
                0x08036380                finite
 .text.__fpclassifyd
                0x08036390       0x5c /home/sbcm/Dropbox/pcb-layouts/axo-427-core/ksoloti/platform_linux/bin/../lib/gcc/arm-none-eabi/4.9.3/../../../../arm-none-eabi/lib/armv7e-m/fpu/libm.a(lib_a-s_fpclassify.o)
                0x08036390                __fpclassifyd
 *fill*         0x080363ec        0x4 
 .text.matherr  0x080363f0        0x4 /home/sbcm/Dropbox/pcb-layouts/axo-427-core/ksoloti/platform_linux/bin/../lib/gcc/arm-none-eabi/4.9.3/../../../../arm-none-eabi/lib/armv7e-m/fpu/libm.a(lib_a-s_matherr.o)
                0x080363f0                matherr
 *fill*         0x080363f4        0xc 
 .text.nan      0x08036400       0x10 /home/sbcm/Dropbox/pcb-layouts/axo-427-core/ksoloti/platform_linux/bin/../lib/gcc/arm-none-eabi/4.9.3/../../../../arm-none-eabi/lib/armv7e-m/fpu/libm.a(lib_a-s_nan.o)
                0x08036400                nan
 .text.rint     0x08036410      0x124 /home/sbcm/Dropbox/pcb-layouts/axo-427-core/ksoloti/platform_linux/bin/../lib/gcc/arm-none-eabi/4.9.3/../../../../arm-none-eabi/lib/armv7e-m/fpu/libm.a(lib_a-s_rint.o)
                0x08036410                rint
 *fill*         0x08036534        0xc 
 .text.scalbn   0x08036540      0x104 /home/sbcm/Dropbox/pcb-layouts/axo-427-core/ksoloti/platform_linux/bin/../lib/gcc/arm-none-eabi/4.9.3/../../../../arm-none-eabi/lib/armv7e-m/fpu/libm.a(lib_a-s_scalbn.o)
                0x08036540                scalbn
 *fill*         0x08036644        0xc 
 .text.fabsf    0x08036650       0x10 /home/sbcm/Dropbox/pcb-layouts/axo-427-core/ksoloti/platform_linux/bin/../lib/gcc/arm-none-eabi/4.9.3/../../../../arm-none-eabi/lib/armv7e-m/fpu/libm.a(lib_a-sf_fabs.o)
                0x08036650                fabsf
 .text.finitef  0x08036660       0x14 /home/sbcm/Dropbox/pcb-layouts/axo-427-core/ksoloti/platform_linux/bin/../lib/gcc/arm-none-eabi/4.9.3/../../../../arm-none-eabi/lib/armv7e-m/fpu/libm.a(lib_a-sf_finite.o)
                0x08036660                finitef
 *fill*         0x08036674        0xc 
 .text.floorf   0x08036680       0x90 /home/sbcm/Dropbox/pcb-layouts/axo-427-core/ksoloti/platform_linux/bin/../lib/gcc/arm-none-eabi/4.9.3/../../../../arm-none-eabi/lib/armv7e-m/fpu/libm.a(lib_a-sf_floor.o)
                0x08036680                floorf
 .text.__fpclassifyf
                0x08036710       0x38 /home/sbcm/Dropbox/pcb-layouts/axo-427-core/ksoloti/platform_linux/bin/../lib/gcc/arm-none-eabi/4.9.3/../../../../arm-none-eabi/lib/armv7e-m/fpu/libm.a(lib_a-sf_fpclassify.o)
                0x08036710                __fpclassifyf
 *fill*         0x08036748        0x8 
 .text.nanf     0x08036750        0xc /home/sbcm/Dropbox/pcb-layouts/axo-427-core/ksoloti/platform_linux/bin/../lib/gcc/arm-none-eabi/4.9.3/../../../../arm-none-eabi/lib/armv7e-m/fpu/libm.a(lib_a-sf_nan.o)
                0x08036750                nanf
 *fill*         0x0803675c        0x4 
 .text.scalbnf  0x08036760       0xd0 /home/sbcm/Dropbox/pcb-layouts/axo-427-core/ksoloti/platform_linux/bin/../lib/gcc/arm-none-eabi/4.9.3/../../../../arm-none-eabi/lib/armv7e-m/fpu/libm.a(lib_a-sf_scalbn.o)
                0x08036760                scalbnf
 .text.copysign
                0x08036830       0x1c /home/sbcm/Dropbox/pcb-layouts/axo-427-core/ksoloti/platform_linux/bin/../lib/gcc/arm-none-eabi/4.9.3/../../../../arm-none-eabi/lib/armv7e-m/fpu/libm.a(lib_a-s_copysign.o)
                0x08036830                copysign
 *fill*         0x0803684c        0x4 
 .text.copysignf
                0x08036850       0x18 /home/sbcm/Dropbox/pcb-layouts/axo-427-core/ksoloti/platform_linux/bin/../lib/gcc/arm-none-eabi/4.9.3/../../../../arm-none-eabi/lib/armv7e-m/fpu/libm.a(lib_a-sf_copysign.o)
                0x08036850                copysignf
 *fill*         0x08036868        0x8 
 .text.abort    0x08036870       0x10 /home/sbcm/Dropbox/pcb-layouts/axo-427-core/ksoloti/platform_linux/bin/../lib/gcc/arm-none-eabi/4.9.3/../../../../arm-none-eabi/lib/armv7e-m/fpu/libg.a(lib_a-abort.o)
                0x08036870                abort
 .text.__errno  0x08036880        0xc /home/sbcm/Dropbox/pcb-layouts/axo-427-core/ksoloti/platform_linux/bin/../lib/gcc/arm-none-eabi/4.9.3/../../../../arm-none-eabi/lib/armv7e-m/fpu/libg.a(lib_a-errno.o)
                0x08036880                __errno
 *fill*         0x0803688c        0x4 
 .text.memmove  0x08036890       0xc8 /home/sbcm/Dropbox/pcb-layouts/axo-427-core/ksoloti/platform_linux/bin/../lib/gcc/arm-none-eabi/4.9.3/../../../../arm-none-eabi/lib/armv7e-m/fpu/libg.a(lib_a-memmove.o)
                0x08036890                memmove
 *fill*         0x08036958        0x8 
 .text.memset   0x08036960       0x9c /home/sbcm/Dropbox/pcb-layouts/axo-427-core/ksoloti/platform_linux/bin/../lib/gcc/arm-none-eabi/4.9.3/../../../../arm-none-eabi/lib/armv7e-m/fpu/libg.a(lib_a-memset.o)
                0x08036960                memset
 *fill*         0x080369fc        0x4 
 .text._init_signal_r
                0x08036a00       0x38 /home/sbcm/Dropbox/pcb-layouts/axo-427-core/ksoloti/platform_linux/bin/../lib/gcc/arm-none-eabi/4.9.3/../../../../arm-none-eabi/lib/armv7e-m/fpu/libg.a(lib_a-signal.o)
                0x08036a00                _init_signal_r
 *fill*         0x08036a38        0x8 
 .text._signal_r
                0x08036a40       0x38 /home/sbcm/Dropbox/pcb-layouts/axo-427-core/ksoloti/platform_linux/bin/../lib/gcc/arm-none-eabi/4.9.3/../../../../arm-none-eabi/lib/armv7e-m/fpu/libg.a(lib_a-signal.o)
                0x08036a40                _signal_r
 *fill*         0x08036a78        0x8 
 .text._raise_r
                0x08036a80       0x58 /home/sbcm/Dropbox/pcb-layouts/axo-427-core/ksoloti/platform_linux/bin/../lib/gcc/arm-none-eabi/4.9.3/../../../../arm-none-eabi/lib/armv7e-m/fpu/libg.a(lib_a-signal.o)
                0x08036a80                _raise_r
 *fill*         0x08036ad8        0x8 
 .text.__sigtramp_r
                0x08036ae0       0x54 /home/sbcm/Dropbox/pcb-layouts/axo-427-core/ksoloti/platform_linux/bin/../lib/gcc/arm-none-eabi/4.9.3/../../../../arm-none-eabi/lib/armv7e-m/fpu/libg.a(lib_a-signal.o)
                0x08036ae0                __sigtramp_r
 *fill*         0x08036b34        0xc 
 .text.raise    0x08036b40       0x10 /home/sbcm/Dropbox/pcb-layouts/axo-427-core/ksoloti/platform_linux/bin/../lib/gcc/arm-none-eabi/4.9.3/../../../../arm-none-eabi/lib/armv7e-m/fpu/libg.a(lib_a-signal.o)
                0x08036b40                raise
 .text.signal   0x08036b50       0x10 /home/sbcm/Dropbox/pcb-layouts/axo-427-core/ksoloti/platform_linux/bin/../lib/gcc/arm-none-eabi/4.9.3/../../../../arm-none-eabi/lib/armv7e-m/fpu/libg.a(lib_a-signal.o)
                0x08036b50                signal
 .text._init_signal
                0x08036b60        0xc /home/sbcm/Dropbox/pcb-layouts/axo-427-core/ksoloti/platform_linux/bin/../lib/gcc/arm-none-eabi/4.9.3/../../../../arm-none-eabi/lib/armv7e-m/fpu/libg.a(lib_a-signal.o)
                0x08036b60                _init_signal
 *fill*         0x08036b6c        0x4 
 .text.__sigtramp
                0x08036b70       0x10 /home/sbcm/Dropbox/pcb-layouts/axo-427-core/ksoloti/platform_linux/bin/../lib/gcc/arm-none-eabi/4.9.3/../../../../arm-none-eabi/lib/armv7e-m/fpu/libg.a(lib_a-signal.o)
                0x08036b70                __sigtramp
 .text._kill_r  0x08036b80       0x28 /home/sbcm/Dropbox/pcb-layouts/axo-427-core/ksoloti/platform_linux/bin/../lib/gcc/arm-none-eabi/4.9.3/../../../../arm-none-eabi/lib/armv7e-m/fpu/libg.a(lib_a-signalr.o)
                0x08036b80                _kill_r
 *fill*         0x08036ba8        0x8 
 .text._getpid_r
                0x08036bb0        0x4 /home/sbcm/Dropbox/pcb-layouts/axo-427-core/ksoloti/platform_linux/bin/../lib/gcc/arm-none-eabi/4.9.3/../../../../arm-none-eabi/lib/armv7e-m/fpu/libg.a(lib_a-signalr.o)
                0x08036bb0                _getpid_r
 *fill*         0x08036bb4        0xc 
 .text.stpcpy   0x08036bc0       0x4c /home/sbcm/Dropbox/pcb-layouts/axo-427-core/ksoloti/platform_linux/bin/../lib/gcc/arm-none-eabi/4.9.3/../../../../arm-none-eabi/lib/armv7e-m/fpu/libg.a(lib_a-stpcpy.o)
                0x08036bc0                stpcpy
 *fill*         0x08036c0c        0x4 
 .text.strcpy   0x08036c10       0xbc /home/sbcm/Dropbox/pcb-layouts/axo-427-core/ksoloti/platform_linux/bin/../lib/gcc/arm-none-eabi/4.9.3/../../../../arm-none-eabi/lib/armv7e-m/fpu/libg.a(lib_a-strcpy.o)
                0x08036c10                strcpy
 *fill*         0x08036ccc        0x4 
 .text.strlen   0x08036cd0       0x5c /home/sbcm/Dropbox/pcb-layouts/axo-427-core/ksoloti/platform_linux/bin/../lib/gcc/arm-none-eabi/4.9.3/../../../../arm-none-eabi/lib/armv7e-m/fpu/libg.a(lib_a-strlen.o)
                0x08036cd0                strlen
 *fill*         0x08036d2c        0x4 
 .text._malloc_r
                0x08036d30      0x524 /home/sbcm/Dropbox/pcb-layouts/axo-427-core/ksoloti/platform_linux/bin/../lib/gcc/arm-none-eabi/4.9.3/../../../../arm-none-eabi/lib/armv7e-m/fpu/libg.a(lib_a-mallocr.o)
                0x08036d30                _malloc_r
 *fill*         0x08037254        0xc 
 .text.__malloc_lock
                0x08037260        0x4 /home/sbcm/Dropbox/pcb-layouts/axo-427-core/ksoloti/platform_linux/bin/../lib/gcc/arm-none-eabi/4.9.3/../../../../arm-none-eabi/lib/armv7e-m/fpu/libg.a(lib_a-mlock.o)
                0x08037260                __malloc_lock
 *fill*         0x08037264        0xc 
 .text.__malloc_unlock
                0x08037270        0x4 /home/sbcm/Dropbox/pcb-layouts/axo-427-core/ksoloti/platform_linux/bin/../lib/gcc/arm-none-eabi/4.9.3/../../../../arm-none-eabi/lib/armv7e-m/fpu/libg.a(lib_a-mlock.o)
                0x08037270                __malloc_unlock
 *fill*         0x08037274        0xc 
 .text.cleanup_glue
                0x08037280       0x1c /home/sbcm/Dropbox/pcb-layouts/axo-427-core/ksoloti/platform_linux/bin/../lib/gcc/arm-none-eabi/4.9.3/../../../../arm-none-eabi/lib/armv7e-m/fpu/libg.a(lib_a-reent.o)
                0x08037280                cleanup_glue
 *fill*         0x0803729c        0x4 
 .text._reclaim_reent
                0x080372a0       0x88 /home/sbcm/Dropbox/pcb-layouts/axo-427-core/ksoloti/platform_linux/bin/../lib/gcc/arm-none-eabi/4.9.3/../../../../arm-none-eabi/lib/armv7e-m/fpu/libg.a(lib_a-reent.o)
                0x080372a0                _reclaim_reent
 *fill*         0x08037328        0x8 
 .text._sbrk_r  0x08037330       0x24 /home/sbcm/Dropbox/pcb-layouts/axo-427-core/ksoloti/platform_linux/bin/../lib/gcc/arm-none-eabi/4.9.3/../../../../arm-none-eabi/lib/armv7e-m/fpu/libg.a(lib_a-sbrkr.o)
                0x08037330                _sbrk_r
 *fill*         0x08037354        0xc 
 .text._malloc_trim_r
                0x08037360       0x9c /home/sbcm/Dropbox/pcb-layouts/axo-427-core/ksoloti/platform_linux/bin/../lib/gcc/arm-none-eabi/4.9.3/../../../../arm-none-eabi/lib/armv7e-m/fpu/libg.a(lib_a-freer.o)
                0x08037360                _malloc_trim_r
 *fill*         0x080373fc        0x4 
 .text._free_r  0x08037400      0x1b0 /home/sbcm/Dropbox/pcb-layouts/axo-427-core/ksoloti/platform_linux/bin/../lib/gcc/arm-none-eabi/4.9.3/../../../../arm-none-eabi/lib/armv7e-m/fpu/libg.a(lib_a-freer.o)
                0x08037400                _free_r
 .text._free_r.__stub
                0x080375b0       0x10 linker stubs
 *(.rodata)
 .rodata        0x080375c0       0x16 build/obj/chregistry.o
                0x080375c0                ch_debug
 *fill*         0x080375d6        0xa 
 .rodata        0x080375e0       0x20 build/obj/sdc.o
 .rodata        0x08037600       0x20 build/obj/serial.o
 .rodata        0x08037620        0xa build/obj/usb.o
 *fill*         0x0803762a        0x6 
 .rodata        0x08037630       0xc0 build/obj/stm32_dma.o
                0x08037630                _stm32_dma_streams
 .rodata        0x080376f0       0x30 build/obj/usb_lld.o
 .rodata        0x08037720        0xc build/obj/serial_lld.o
 *fill*         0x0803772c        0x4 
 .rodata        0x08037730       0xfc build/obj/board.o
                0x08037730                pal_default_config
 *fill*         0x0803782c        0x4 
 .rodata        0x08037830       0xbe build/obj/ff.o
 *fill*         0x080378ee        0x2 
 .rodata        0x080378f0      0x4c0 build/obj/ccsbcs.o
 .rodata        0x08037db0       0x10 build/obj/memstreams.o
 .rodata        0x08037dc0       0x28 build/obj/axoloti_board.o
 *fill*         0x08037de8        0x8 
 .rodata        0x08037df0      0x500 build/obj/glcdfont.o
                0x08037df0                font
 .rodata        0x080382f0      0x30e build/obj/usbcfg.o
                0x08038470                bulkusbcfg
                0x08038478                midiusbcfg
                0x08038480                usbcfg
 *fill*         0x080385fe        0x2 
 .rodata        0x08038600    0x10000 build/obj/arm_rfft_init_f32.o
 .rodata        0x08048600     0x8000 build/obj/arm_rfft_init_q15.o
                0x08048600                realCoefAQ15
                0x0804c600                realCoefBQ15
 .rodata        0x08050600    0x10000 build/obj/arm_rfft_init_q31.o
                0x08050600                realCoefAQ31
                0x08058600                realCoefBQ31
 .rodata        0x08060600    0x34ecc build/obj/arm_common_tables.o
                0x08060600                sinTable_q15
                0x08060a04                sinTable_q31
                0x08061208                sinTable_f32
                0x08061a0c                twiddleCoef_rfft_4096
                0x08065a0c                twiddleCoef_rfft_2048
                0x08067a0c                twiddleCoef_rfft_1024
                0x08068a0c                twiddleCoef_rfft_512
                0x0806920c                twiddleCoef_rfft_256
                0x0806960c                twiddleCoef_rfft_128
                0x0806980c                twiddleCoef_rfft_64
                0x0806990c                twiddleCoef_rfft_32
                0x0806998c                armBitRevIndexTable_fixed_4096
                0x0806b90c                armBitRevIndexTable_fixed_2048
                0x0806c88c                armBitRevIndexTable_fixed_1024
                0x0806d04c                armBitRevIndexTable_fixed_512
                0x0806d40c                armBitRevIndexTable_fixed_256
                0x0806d5ec                armBitRevIndexTable_fixed_128
                0x0806d6cc                armBitRevIndexTable_fixed_64
                0x0806d73c                armBitRevIndexTable_fixed_32
                0x0806d76c                armBitRevIndexTable_fixed_16
                0x0806d784                armBitRevIndexTable4096
                0x0806f704                armBitRevIndexTable2048
                0x080714c4                armBitRevIndexTable1024
                0x080722d4                armBitRevIndexTable512
                0x08072654                armBitRevIndexTable256
                0x080729c4                armBitRevIndexTable128
                0x08072b64                armBitRevIndexTable64
                0x08072bd4                armBitRevIndexTable32
                0x08072c34                armBitRevIndexTable16
                0x08072c5c                armRecipTableQ31
                0x08072d5c                armRecipTableQ15
                0x08072ddc                twiddleCoef_4096_q15
                0x08075ddc                twiddleCoef_2048_q15
                0x080775dc                twiddleCoef_1024_q15
                0x080781dc                twiddleCoef_512_q15
                0x080787dc                twiddleCoef_256_q15
                0x08078adc                twiddleCoef_128_q15
                0x08078c5c                twiddleCoef_64_q15
                0x08078d1c                twiddleCoef_32_q15
                0x08078d7c                twiddleCoef_16_q15
                0x08078dac                twiddleCoef_4096_q31
                0x0807edac                twiddleCoef_2048_q31
                0x08081dac                twiddleCoef_1024_q31
                0x080835ac                twiddleCoef_512_q31
                0x080841ac                twiddleCoef_256_q31
                0x080847ac                twiddleCoef_128_q31
                0x08084aac                twiddleCoef_64_q31
                0x08084c2c                twiddleCoef_32_q31
                0x08084cec                twiddleCoef_16_q31
                0x08084d4c                twiddleCoef_4096
                0x0808cd4c                twiddleCoef_2048
                0x08090d4c                twiddleCoef_1024
                0x08092d4c                twiddleCoef_512
                0x08093d4c                twiddleCoef_256
                0x0809454c                twiddleCoef_128
                0x0809494c                twiddleCoef_64
                0x08094b4c                twiddleCoef_32
                0x08094c4c                twiddleCoef_16
                0x08094ccc                armBitRevTable
 *fill*         0x080954cc        0x4 
 .rodata        0x080954d0      0x420 build/obj/arm_const_structs.o
                0x080954d0                arm_rfft_sR_q15_len8192
                0x080954e8                arm_rfft_sR_q15_len4096
                0x08095500                arm_rfft_sR_q15_len2048
                0x08095518                arm_rfft_sR_q15_len1024
                0x08095530                arm_rfft_sR_q15_len512
                0x08095548                arm_rfft_sR_q15_len256
                0x08095560                arm_rfft_sR_q15_len128
                0x08095578                arm_rfft_sR_q15_len64
                0x08095590                arm_rfft_sR_q15_len32
                0x080955a8                arm_rfft_sR_q31_len8192
                0x080955c0                arm_rfft_sR_q31_len4096
                0x080955d8                arm_rfft_sR_q31_len2048
                0x080955f0                arm_rfft_sR_q31_len1024
                0x08095608                arm_rfft_sR_q31_len512
                0x08095620                arm_rfft_sR_q31_len256
                0x08095638                arm_rfft_sR_q31_len128
                0x08095650                arm_rfft_sR_q31_len64
                0x08095668                arm_rfft_sR_q31_len32
                0x08095680                arm_rfft_fast_sR_f32_len4096
                0x08095698                arm_rfft_fast_sR_f32_len2048
                0x080956b0                arm_rfft_fast_sR_f32_len1024
                0x080956c8                arm_rfft_fast_sR_f32_len512
                0x080956e0                arm_rfft_fast_sR_f32_len256
                0x080956f8                arm_rfft_fast_sR_f32_len128
                0x08095710                arm_rfft_fast_sR_f32_len64
                0x08095728                arm_rfft_fast_sR_f32_len32
                0x08095740                arm_cfft_sR_q15_len4096
                0x08095750                arm_cfft_sR_q15_len2048
                0x08095760                arm_cfft_sR_q15_len1024
                0x08095770                arm_cfft_sR_q15_len512
                0x08095780                arm_cfft_sR_q15_len256
                0x08095790                arm_cfft_sR_q15_len128
                0x080957a0                arm_cfft_sR_q15_len64
                0x080957b0                arm_cfft_sR_q15_len32
                0x080957c0                arm_cfft_sR_q15_len16
                0x080957d0                arm_cfft_sR_q31_len4096
                0x080957e0                arm_cfft_sR_q31_len2048
                0x080957f0                arm_cfft_sR_q31_len1024
                0x08095800                arm_cfft_sR_q31_len512
                0x08095810                arm_cfft_sR_q31_len256
                0x08095820                arm_cfft_sR_q31_len128
                0x08095830                arm_cfft_sR_q31_len64
                0x08095840                arm_cfft_sR_q31_len32
                0x08095850                arm_cfft_sR_q31_len16
                0x08095860                arm_cfft_sR_f32_len4096
                0x08095870                arm_cfft_sR_f32_len2048
                0x08095880                arm_cfft_sR_f32_len1024
                0x08095890                arm_cfft_sR_f32_len512
                0x080958a0                arm_cfft_sR_f32_len256
                0x080958b0                arm_cfft_sR_f32_len128
                0x080958c0                arm_cfft_sR_f32_len64
                0x080958d0                arm_cfft_sR_f32_len32
                0x080958e0                arm_cfft_sR_f32_len16
 .rodata        0x080958f0      0x30e build/obj/usbh_hid_keybd.o
 *fill*         0x08095bfe        0x2 
 .rodata        0x08095c00       0xa0 build/obj/usbh_hid_mouse.o
 .rodata        0x08095ca0        0x3 build/obj/usbh_conf.o
 *fill*         0x08095ca3        0xd 
 .rodata        0x08095cb0       0x2c build/obj/serial_midi.o
                0x08095cc0                SysMsgLengthLookup
 *fill*         0x08095cdc        0x4 
 .rodata        0x08095ce0       0x20 build/obj/bulk_usb.o
 .rodata        0x08095d00       0x20 build/obj/midi_usb.o
 .rodata        0x08095d20       0x30 build/obj/spilink.o
 .rodata        0x08095d50       0x50 build/obj/exceptions.o
                0x08095d50                fs_err_name
 .rodata        0x08095da0      0x808 build/obj/units.o
                0x08095da0                stmlib::lut_pitch_ratio_low
                0x080961a4                stmlib::lut_pitch_ratio_high
 *fill*         0x080965a8        0x8 
 .rodata        0x080965b0      0x402 build/obj/atan.o
                0x080965b0                stmlib::atan_lut
 *fill*         0x080969b2        0xe 
 .rodata        0x080969c0     0x5e14 build/obj/mutable_resources.o
                0x080969c0                mutable_resources::lut_fm_frequency_quantizer
                0x08096bc4                mutable_resources::lut_stiffness
                0x08096fc8                mutable_resources::lut_svf_shift
                0x080973cc                mutable_resources::lut_4_decades
                0x080977d0                mutable_resources::lut_sine
 *fill*         0x0809c7d4        0xc 
 .rodata        0x0809c7e0     0xdcaa build/obj/braids_resources.o
                0x0809c7e8                braids::chr_characters
                0x0809c9e8                braids::wt_code
                0x0809ce10                braids::wt_map
                0x0809cf10                braids::wt_waves
                0x080a5010                braids::ws_tri_fold
                0x080a5214                braids::ws_sine_fold
                0x080a5418                braids::ws_violent_overdrive
                0x080a561c                braids::ws_moderate_overdrive
                0x080a5820                braids::wav_bandlimited_comb_14
                0x080a5a24                braids::wav_bandlimited_comb_13
                0x080a5c28                braids::wav_bandlimited_comb_12
                0x080a5e2c                braids::wav_bandlimited_comb_11
                0x080a6030                braids::wav_bandlimited_comb_10
                0x080a6234                braids::wav_bandlimited_comb_9
                0x080a6438                braids::wav_bandlimited_comb_8
                0x080a663c                braids::wav_bandlimited_comb_7
                0x080a6840                braids::wav_bandlimited_comb_6
                0x080a6a44                braids::wav_bandlimited_comb_5
                0x080a6c48                braids::wav_bandlimited_comb_4
                0x080a6e4c                braids::wav_bandlimited_comb_3
                0x080a7050                braids::wav_bandlimited_comb_2
                0x080a7254                braids::wav_bandlimited_comb_1
                0x080a7458                braids::wav_bandlimited_comb_0
                0x080a765c                braids::wav_sine
                0x080a7860                braids::wav_formant_square
                0x080a7a60                braids::wav_formant_sine
                0x080a7c60                braids::lut_env_portamento_increments
                0x080a7e60                braids::lut_oscillator_delays
                0x080a7fe4                braids::lut_oscillator_increments
                0x080a8168                braids::lut_blowing_jet
                0x080a836c                braids::lut_env_expo
                0x080a8570                braids::lut_bell
                0x080a8774                braids::lut_vco_detune
                0x080a8978                braids::lut_fm_frequency_quantizer
                0x080a8a7c                braids::lut_flute_body_filter
                0x080a8b7c                braids::lut_blowing_envelope
                0x080a8e8c                braids::lut_bowing_friction
                0x080a9090                braids::lut_bowing_envelope
                0x080a9670                braids::lut_granular_envelope_rate
                0x080a9874                braids::lut_granular_envelope
                0x080a9c78                braids::lut_svf_scale
                0x080a9e7c                braids::lut_svf_damp
                0x080aa080                braids::lut_svf_cutoff
                0x080aa284                braids::lut_resonator_scale
                0x080aa388                braids::lut_resonator_coefficient
 *fill*         0x080aa48a        0x6 
 .rodata        0x080aa490     0xcea0 build/obj/warps_resources.o
                0x080aa490                warps::wav_buzzy_q
                0x080ab494                warps::wav_buzzy_i
                0x080ac498                warps::wav_harmonics_q
                0x080ad49c                warps::wav_harmonics_i
                0x080ae4a0                warps::wav_sine_q
                0x080af4a4                warps::wav_sine_i
                0x080b04a8                warps::lut_ap_poles
                0x080b04ec                warps::lut_pot_curve
                0x080b0cf0                warps::lut_midi_to_f_low
                0x080b10f0                warps::lut_midi_to_f_high
                0x080b14f0                warps::lut_bipolar_fold
                0x080b54f4                warps::lut_xfade_out
                0x080b58f8                warps::lut_xfade_in
                0x080b5cfc                warps::lut_sin
                0x080b7100                warps::fb_7040_48000
                0x080b711c                warps::fb_5588_48000
                0x080b7138                warps::fb_4435_48000
                0x080b7154                warps::fb_3520_48000
                0x080b7170                warps::fb_2794_48000
                0x080b718c                warps::fb_2217_12000
                0x080b71a8                warps::fb_1760_12000
                0x080b71c4                warps::fb_1397_12000
                0x080b71e0                warps::fb_1109_12000
                0x080b71fc                warps::fb_880_12000
                0x080b7218                warps::fb_698_12000
                0x080b7234                warps::fb_554_3000
                0x080b7250                warps::fb_440_3000
                0x080b726c                warps::fb_349_3000
                0x080b7288                warps::fb_277_3000
                0x080b72a4                warps::fb_220_3000
                0x080b72c0                warps::fb_175_3000
                0x080b72dc                warps::fb_139_3000
                0x080b72f8                warps::fb_110_3000
                0x080b7314                warps::fb__87_3000
 .rodata        0x080b7330      0x19c build/obj/ominous_voice.o
 *fill*         0x080b74cc        0x4 
 .rodata        0x080b74d0     0x3b6a build/obj/elements_resources.o
                0x080b76d4                elements::smp_boundaries
                0x080b76fc                elements::lut_detune_quantizer
                0x080b7800                elements::lut_midi_to_f_low
                0x080b7c00                elements::lut_midi_to_increment_high
                0x080b8000                elements::lut_midi_to_f_high
                0x080b8400                elements::lut_env_quartic
                0x080b8808                elements::lut_env_expo
                0x080b8c10                elements::lut_env_linear
                0x080b9018                elements::lut_env_increments
                0x080b9420                elements::lut_accent_gain_fine
                0x080b9824                elements::lut_accent_gain_coarse
                0x080b9c28                elements::lut_approx_svf_h
                0x080ba02c                elements::lut_approx_svf_r
                0x080ba430                elements::lut_approx_svf_g
                0x080ba834                elements::lut_approx_svf_gain
                0x080bac38                elements::lut_db_led_brightness
 *fill*         0x080bb03a        0x6 
 .rodata        0x080bb040     0xb238 build/obj/clouds_resources.o
                0x080bb040                clouds::lut_quantized_pitch
                0x080bc044                clouds::lut_grain_size
                0x080bc448                clouds::lut_cutoff
                0x080bc84c                clouds::lut_sine_window_4096
                0x080c084c                clouds::lut_xfade_out
                0x080c0890                clouds::lut_xfade_in
                0x080c08d4                clouds::lut_window
                0x080c48d8                clouds::lut_sin
                0x080c5cdc                clouds::lut_db
                0x080c5ee0                clouds::src_filter_1x_2_91
                0x080c604c                clouds::src_filter_1x_2_63
                0x080c6148                clouds::src_filter_1x_2_45
                0x080c61fc                clouds::src_filter_1x_2_31
 *fill*         0x080c6278        0x8 
 .rodata        0x080c6280       0x60 build/obj/frame_transformation.o
 .rodata        0x080c62e0     0x3642 build/obj/streams_resources.o
                0x080c62e8                streams::lut_lorenz_rate
                0x080c66ec                streams::lut_log2
                0x080c6af0                streams::lut_exp2
                0x080c6ef4                streams::lut_lp_coefficients
                0x080c78f4                streams::lut_env_increments
                0x080c7cf8                streams::lut_soft_knee
                0x080c7efc                streams::lut_compressor_ratio
                0x080c8100                streams::lut_2164_gain
                0x080c8304                streams::lut_svf_damp
                0x080c8508                streams::lut_svf_cutoff
                0x080c870c                streams::lut_square_root
                0x080c8910                streams::lut_env_quartic
                0x080c8b14                streams::lut_env_expo
                0x080c8d18                streams::lut_env_linear
                0x080c8f1c                streams::wav_db
                0x080c9120                streams::wav_gompertz
 *fill*         0x080c9922        0xe 
 .rodata        0x080c9930       0x90 build/obj/processor.o
                0x080c9930                streams::Processor::callbacks_table_
 *(.rodata.*)
 .rodata.str1.4
                0x080c99c0        0x5 build/obj/chsys.o
 *fill*         0x080c99c5        0xb 
 .rodata.str1.4
                0x080c99d0        0xd build/obj/usb_lld.o
 *fill*         0x080c99dd        0x3 
 .rodata.str1.4
                0x080c99e0       0x48 build/obj/ff.o
 *fill*         0x080c9a28        0x8 
 .rodata.str1.4
                0x080c9a30        0x7 build/obj/chprintf.o
 *fill*         0x080c9a37        0x9 
 .rodata.str1.4
                0x080c9a40       0xa3 build/obj/ui.o
                                 0xa7 (size before relaxing)
 *fill*         0x080c9ae3        0xd 
 .rodata.str1.4
                0x080c9af0        0x2 build/obj/sdcard.o
 *fill*         0x080c9af2        0xe 
 .rodata.str1.4
                0x080c9b00       0x46 build/obj/pconnection.o
                                 0x4a (size before relaxing)
 *fill*         0x080c9b46        0xa 
 .rodata.str1.4
                0x080c9b50      0x10b build/obj/patch.o
 *fill*         0x080c9c5b        0x5 
 .rodata.str1.4
                0x080c9c60      0x255 build/obj/usbh_core.o
 *fill*         0x080c9eb5        0xb 
 .rodata.str1.4
                0x080c9ec0       0xec build/obj/usbh_ctlreq.o
 *fill*         0x080c9fac        0x4 
 .rodata.str1.4
                0x080c9fb0       0x48 build/obj/usbh_hid.o
 *fill*         0x080c9ff8        0x8 
 .rodata.str1.4
                0x080ca000      0x2c4 build/obj/usbh_midi_core.o
 *fill*         0x080ca2c4        0xc 
 .rodata.str1.4
                0x080ca2d0       0xf0 build/obj/usbh_vendor.o
 .rodata.str1.4
                0x080ca3c0       0x3d build/obj/usbh_conf.o
 .rodata.str1.4
                0x00000000       0x3d build/obj/serial_midi.o
                                  0x5 (size before relaxing)
 *fill*         0x080ca3fd        0x3 
 .rodata.str1.4
                0x080ca400       0x25 build/obj/spilink.o
 *fill*         0x080ca425        0xb 
 .rodata.str1.4
                0x080ca430      0x2a9 build/obj/exceptions.o
 *fill*         0x080ca6d9        0x7 
 .rodata.str1.4
                0x080ca6e0        0x7 build/obj/sysmon.o
 *fill*         0x080ca6e7        0x9 
 .rodata.str1.4
                0x080ca6f0        0x2 build/obj/axoloti_memory.o
 *fill*         0x080ca6f2        0xe 
 .rodata.str1.4
                0x080ca700       0x6f build/obj/axoloti_mi.o
 *fill*         0x080ca76f        0x1 
 .rodata._ZN6stmlib6ShyFFTIfLj4096ENS_14RotationPhasorEE16bit_rev_256_lut_E
                0x080ca770      0x100 build/obj/stft.o
                0x080ca770                stmlib::ShyFFT<float, 4096u, stmlib::RotationPhasor>::bit_rev_256_lut_
 .rodata.str1.4
                0x080ca870        0x4 /home/sbcm/Dropbox/pcb-layouts/axo-427-core/ksoloti/platform_linux/bin/../lib/gcc/arm-none-eabi/4.9.3/../../../../arm-none-eabi/lib/armv7e-m/fpu/libm.a(lib_a-w_log.o)
                                  0x5 (size before relaxing)
 *fill*         0x080ca874        0xc 
 .rodata.str1.4
                0x080ca880        0x4 /home/sbcm/Dropbox/pcb-layouts/axo-427-core/ksoloti/platform_linux/bin/../lib/gcc/arm-none-eabi/4.9.3/../../../../arm-none-eabi/lib/armv7e-m/fpu/libm.a(lib_a-w_pow.o)
 *fill*         0x080ca884        0xc 
 .rodata.str1.4
                0x080ca890        0x5 /home/sbcm/Dropbox/pcb-layouts/axo-427-core/ksoloti/platform_linux/bin/../lib/gcc/arm-none-eabi/4.9.3/../../../../arm-none-eabi/lib/armv7e-m/fpu/libm.a(lib_a-wf_pow.o)
 *fill*         0x080ca895        0xb 
 .rodata.dp_h   0x080ca8a0       0x10 /home/sbcm/Dropbox/pcb-layouts/axo-427-core/ksoloti/platform_linux/bin/../lib/gcc/arm-none-eabi/4.9.3/../../../../arm-none-eabi/lib/armv7e-m/fpu/libm.a(lib_a-e_pow.o)
 .rodata.dp_l   0x080ca8b0       0x10 /home/sbcm/Dropbox/pcb-layouts/axo-427-core/ksoloti/platform_linux/bin/../lib/gcc/arm-none-eabi/4.9.3/../../../../arm-none-eabi/lib/armv7e-m/fpu/libm.a(lib_a-e_pow.o)
 .rodata.bp     0x080ca8c0       0x10 /home/sbcm/Dropbox/pcb-layouts/axo-427-core/ksoloti/platform_linux/bin/../lib/gcc/arm-none-eabi/4.9.3/../../../../arm-none-eabi/lib/armv7e-m/fpu/libm.a(lib_a-e_pow.o)
 .rodata.str1.4
                0x00000000        0x1 /home/sbcm/Dropbox/pcb-layouts/axo-427-core/ksoloti/platform_linux/bin/../lib/gcc/arm-none-eabi/4.9.3/../../../../arm-none-eabi/lib/armv7e-m/fpu/libm.a(lib_a-e_pow.o)
 .rodata.dp_h   0x080ca8d0        0x8 /home/sbcm/Dropbox/pcb-layouts/axo-427-core/ksoloti/platform_linux/bin/../lib/gcc/arm-none-eabi/4.9.3/../../../../arm-none-eabi/lib/armv7e-m/fpu/libm.a(lib_a-ef_pow.o)
 *fill*         0x080ca8d8        0x8 
 .rodata.dp_l   0x080ca8e0        0x8 /home/sbcm/Dropbox/pcb-layouts/axo-427-core/ksoloti/platform_linux/bin/../lib/gcc/arm-none-eabi/4.9.3/../../../../arm-none-eabi/lib/armv7e-m/fpu/libm.a(lib_a-ef_pow.o)
 *fill*         0x080ca8e8        0x8 
 .rodata.bp     0x080ca8f0        0x8 /home/sbcm/Dropbox/pcb-layouts/axo-427-core/ksoloti/platform_linux/bin/../lib/gcc/arm-none-eabi/4.9.3/../../../../arm-none-eabi/lib/armv7e-m/fpu/libm.a(lib_a-ef_pow.o)
 .rodata.str1.4
                0x00000000        0x1 /home/sbcm/Dropbox/pcb-layouts/axo-427-core/ksoloti/platform_linux/bin/../lib/gcc/arm-none-eabi/4.9.3/../../../../arm-none-eabi/lib/armv7e-m/fpu/libm.a(lib_a-ef_pow.o)
 *fill*         0x080ca8f8        0x8 
 .rodata.npio2_hw
                0x080ca900       0x80 /home/sbcm/Dropbox/pcb-layouts/axo-427-core/ksoloti/platform_linux/bin/../lib/gcc/arm-none-eabi/4.9.3/../../../../arm-none-eabi/lib/armv7e-m/fpu/libm.a(lib_a-ef_rem_pio2.o)
 .rodata.two_over_pi
                0x080ca980      0x318 /home/sbcm/Dropbox/pcb-layouts/axo-427-core/ksoloti/platform_linux/bin/../lib/gcc/arm-none-eabi/4.9.3/../../../../arm-none-eabi/lib/armv7e-m/fpu/libm.a(lib_a-ef_rem_pio2.o)
 *fill*         0x080cac98        0x8 
 .rodata.init_jk
                0x080caca0        0xc /home/sbcm/Dropbox/pcb-layouts/axo-427-core/ksoloti/platform_linux/bin/../lib/gcc/arm-none-eabi/4.9.3/../../../../arm-none-eabi/lib/armv7e-m/fpu/libm.a(lib_a-kf_rem_pio2.o)
 *fill*         0x080cacac        0x4 
 .rodata.PIo2   0x080cacb0       0x2c /home/sbcm/Dropbox/pcb-layouts/axo-427-core/ksoloti/platform_linux/bin/../lib/gcc/arm-none-eabi/4.9.3/../../../../arm-none-eabi/lib/armv7e-m/fpu/libm.a(lib_a-kf_rem_pio2.o)
 *fill*         0x080cacdc        0x4 
 .rodata.TWO52  0x080cace0       0x10 /home/sbcm/Dropbox/pcb-layouts/axo-427-core/ksoloti/platform_linux/bin/../lib/gcc/arm-none-eabi/4.9.3/../../../../arm-none-eabi/lib/armv7e-m/fpu/libm.a(lib_a-s_rint.o)
 .rodata.str1.4
                0x080cacf0        0x4 /home/sbcm/Dropbox/pcb-layouts/axo-427-core/ksoloti/platform_linux/bin/../lib/gcc/arm-none-eabi/4.9.3/../../../../arm-none-eabi/lib/armv7e-m/fpu/libg.a(lib_a-impure.o)
                                  0x2 (size before relaxing)
 *fill*         0x080cacf4        0xc 
 .rodata._global_impure_ptr
                0x080cad00        0x4 /home/sbcm/Dropbox/pcb-layouts/axo-427-core/ksoloti/platform_linux/bin/../lib/gcc/arm-none-eabi/4.9.3/../../../../arm-none-eabi/lib/armv7e-m/fpu/libg.a(lib_a-impure.o)
                0x080cad00                _global_impure_ptr
 *(.glue_7t)
 .glue_7t       0x00000000        0x0 linker stubs
 *(.glue_7)
 .glue_7        0x00000000        0x0 linker stubs
 *(.gcc*)

.vfp11_veneer   0x080cad04        0x0
 .vfp11_veneer  0x00000000        0x0 linker stubs

.v4_bx          0x080cad04        0x0
 .v4_bx         0x00000000        0x0 linker stubs

.iplt           0x080cad04        0x0
 .iplt          0x00000000        0x0 build/obj/crt0.o

.ARM.extab      0x080cad04       0x84
 *(.ARM.extab* .gnu.linkonce.armextab.*)
 .ARM.extab     0x080cad04        0xc build/obj/filter_bank.o
 .ARM.extab.text._ZN5warps19SampleRateConverterILNS_29SampleRateConversionDirectionE1ELl4ELl48EE7ProcessEPKfPfj
                0x080cad10        0x0 build/obj/filter_bank.o
 .ARM.extab.text._ZN5warps9Modulator11ProcessXmodILNS_13XmodAlgorithmE3ELS2_4EEEvffffPKfS4_Pfj
                0x080cad10        0x0 build/obj/modulator.o
 .ARM.extab.text._ZN5warps9Modulator11ProcessXmodILNS_13XmodAlgorithmE0ELS2_1EEEvffffPKfS4_Pfj
                0x080cad10        0x0 build/obj/modulator.o
 .ARM.extab.text._ZN5warps9Modulator11ProcessXmodILNS_13XmodAlgorithmE5ELS2_6EEEvffffPKfS4_Pfj
                0x080cad10        0x0 build/obj/modulator.o
 .ARM.extab.text._ZN5warps9Modulator11ProcessXmodILNS_13XmodAlgorithmE4ELS2_5EEEvffffPKfS4_Pfj
                0x080cad10        0x0 build/obj/modulator.o
 .ARM.extab.text._ZN5warps9Modulator11ProcessXmodILNS_13XmodAlgorithmE1ELS2_2EEEvffffPKfS4_Pfj
                0x080cad10        0x0 build/obj/modulator.o
 .ARM.extab.text._ZN5warps9Modulator11ProcessXmodILNS_13XmodAlgorithmE2ELS2_3EEEvffffPKfS4_Pfj
                0x080cad10        0x0 build/obj/modulator.o
 .ARM.extab     0x080cad10       0x18 build/obj/modulator.o
 .ARM.extab     0x080cad28        0x0 build/obj/oscillator.o
 .ARM.extab.text._ZN5warps10Oscillator14RenderPolyblepILNS_15OscillatorShapeE1EEEffPfS3_j
                0x080cad28        0x0 build/obj/oscillator.o
 .ARM.extab.text._ZN5warps10Oscillator14RenderPolyblepILNS_15OscillatorShapeE2EEEffPfS3_j
                0x080cad28        0x0 build/obj/oscillator.o
 .ARM.extab.text._ZN5warps10Oscillator14RenderPolyblepILNS_15OscillatorShapeE3EEEffPfS3_j
                0x080cad28        0x0 build/obj/oscillator.o
 .ARM.extab     0x080cad28        0x0 build/obj/vocoder.o
 .ARM.extab     0x080cad28        0x0 build/obj/axoloti_mi.o
 .ARM.extab     0x080cad28        0x0 build/obj/multistage_envelope.o
 .ARM.extab     0x080cad28        0x0 build/obj/ominous_voice.o
 .ARM.extab     0x080cad28        0x0 build/obj/resonator.o
 .ARM.extab     0x080cad28        0x0 build/obj/string.o
 .ARM.extab.text._ZN8elements6String15ProcessInternalILb1EEEvPKfPfS4_j
                0x080cad28        0x0 build/obj/string.o
 .ARM.extab.text._ZN8elements6String15ProcessInternalILb0EEEvPKfPfS4_j
                0x080cad28        0x0 build/obj/string.o
 .ARM.extab     0x080cad28        0x0 build/obj/tube.o
 .ARM.extab     0x080cad28        0x0 build/obj/exciter.o
 .ARM.extab     0x080cad28        0xc build/obj/part.o
 .ARM.extab     0x080cad34        0xc build/obj/voice.o
 .ARM.extab     0x080cad40        0x0 build/obj/correlator.o
 .ARM.extab     0x080cad40       0x24 build/obj/granular_processor.o
 .ARM.extab.text._ZN6clouds20GranularSamplePlayer4PlayILNS_10ResolutionE3EEEvPKNS_11AudioBufferIXT_EEERKNS_10ParametersEPfj
                0x080cad64        0x0 build/obj/granular_processor.o
 .ARM.extab.text._ZN6clouds20GranularSamplePlayer4PlayILNS_10ResolutionE0EEEvPKNS_11AudioBufferIXT_EEERKNS_10ParametersEPfj
                0x080cad64        0x0 build/obj/granular_processor.o
 .ARM.extab     0x080cad64        0x0 build/obj/frame_transformation.o
 .ARM.extab     0x080cad64        0x0 build/obj/phase_vocoder.o
 .ARM.extab     0x080cad64        0xc build/obj/stft.o
 .ARM.extab     0x080cad70        0x0 build/obj/compressor.o
 .ARM.extab     0x080cad70        0x0 build/obj/envelope.o
 .ARM.extab     0x080cad70        0x0 build/obj/follower.o
 .ARM.extab     0x080cad70        0x0 build/obj/lorenz_generator.o
 .ARM.extab.text._ZN7streams9Processor19CompressorConfigureEbPlS1_
                0x080cad70        0x0 build/obj/processor.o
 .ARM.extab.text._ZN7streams9Processor20FilterControllerInitEv
                0x080cad70        0x0 build/obj/processor.o
 .ARM.extab.text._ZN7streams9Processor25FilterControllerConfigureEbPlS1_
                0x080cad70        0x0 build/obj/processor.o
 .ARM.extab.text._ZN7streams9Processor24LorenzGeneratorConfigureEbPlS1_
                0x080cad70        0x0 build/obj/processor.o
 .ARM.extab.text._ZN7streams9Processor22LorenzGeneratorProcessEssPtS1_
                0x080cad70        0x0 build/obj/processor.o
 .ARM.extab.text._ZN7streams9Processor19LorenzGeneratorInitEv
                0x080cad70        0x0 build/obj/processor.o
 .ARM.extab.text._ZN7streams9Processor17CompressorProcessEssPtS1_
                0x080cad70        0x0 build/obj/processor.o
 .ARM.extab.text._ZN7streams9Processor14CompressorInitEv
                0x080cad70        0x0 build/obj/processor.o
 .ARM.extab.text._ZN7streams9Processor15FollowerProcessEssPtS1_
                0x080cad70        0x0 build/obj/processor.o
 .ARM.extab.text._ZN7streams9Processor12FollowerInitEv
                0x080cad70        0x0 build/obj/processor.o
 .ARM.extab.text._ZN7streams9Processor14VactrolProcessEssPtS1_
                0x080cad70        0x0 build/obj/processor.o
 .ARM.extab.text._ZN7streams9Processor11VactrolInitEv
                0x080cad70        0x0 build/obj/processor.o
 .ARM.extab.text._ZN7streams9Processor15EnvelopeProcessEssPtS1_
                0x080cad70        0x0 build/obj/processor.o
 .ARM.extab.text._ZN7streams9Processor12EnvelopeInitEv
                0x080cad70        0x0 build/obj/processor.o
 .ARM.extab.text._ZN7streams9Processor23FilterControllerProcessEssPtS1_
                0x080cad70        0x0 build/obj/processor.o
 .ARM.extab.text._ZN7streams9Processor16VactrolConfigureEbPlS1_
                0x080cad70        0x0 build/obj/processor.o
 .ARM.extab.text._ZN7streams9Processor17FollowerConfigureEbPlS1_
                0x080cad70        0x0 build/obj/processor.o
 .ARM.extab.text._ZN7streams9Processor17EnvelopeConfigureEbPlS1_
                0x080cad70        0x0 build/obj/processor.o
 .ARM.extab     0x080cad70        0x0 build/obj/processor.o
 .ARM.extab     0x080cad70        0x0 build/obj/svf.o
 .ARM.extab     0x080cad70        0x0 build/obj/vactrol.o
 .ARM.extab     0x080cad70        0x0 /home/sbcm/Dropbox/pcb-layouts/axo-427-core/ksoloti/platform_linux/bin/../lib/gcc/arm-none-eabi/4.9.3/armv7e-m/fpu/libgcc.a(unwind-arm.o)
 .ARM.extab     0x080cad70       0x18 /home/sbcm/Dropbox/pcb-layouts/axo-427-core/ksoloti/platform_linux/bin/../lib/gcc/arm-none-eabi/4.9.3/armv7e-m/fpu/libgcc.a(pr-support.o)

.ARM.exidx      0x080cad88      0x200
                0x080cad88                PROVIDE (__exidx_start, .)
 *(.ARM.exidx* .gnu.linkonce.armexidx.*)
 .ARM.exidx     0x080cad88       0x10 build/obj/filter_bank.o
                                 0x18 (size before relaxing)
 .ARM.exidx.text._ZN5warps19SampleRateConverterILNS_29SampleRateConversionDirectionE1ELl4ELl48EE7ProcessEPKfPfj
                0x080caf88        0x0 build/obj/filter_bank.o
                                  0x8 (size before relaxing)
 .ARM.exidx.text._ZN5warps9Modulator11ProcessXmodILNS_13XmodAlgorithmE3ELS2_4EEEvffffPKfS4_Pfj
                0x080caf88        0x0 build/obj/modulator.o
                                  0x8 (size before relaxing)
 .ARM.exidx.text._ZN5warps9Modulator11ProcessXmodILNS_13XmodAlgorithmE0ELS2_1EEEvffffPKfS4_Pfj
                0x080caf88        0x0 build/obj/modulator.o
                                  0x8 (size before relaxing)
 .ARM.exidx.text._ZN5warps9Modulator11ProcessXmodILNS_13XmodAlgorithmE5ELS2_6EEEvffffPKfS4_Pfj
                0x080caf88        0x0 build/obj/modulator.o
                                  0x8 (size before relaxing)
 .ARM.exidx.text._ZN5warps9Modulator11ProcessXmodILNS_13XmodAlgorithmE4ELS2_5EEEvffffPKfS4_Pfj
                0x080caf88        0x0 build/obj/modulator.o
                                  0x8 (size before relaxing)
 .ARM.exidx.text._ZN5warps9Modulator11ProcessXmodILNS_13XmodAlgorithmE1ELS2_2EEEvffffPKfS4_Pfj
                0x080caf88        0x0 build/obj/modulator.o
                                  0x8 (size before relaxing)
 .ARM.exidx.text._ZN5warps9Modulator11ProcessXmodILNS_13XmodAlgorithmE2ELS2_3EEEvffffPKfS4_Pfj
                0x080caf88        0x0 build/obj/modulator.o
                                  0x8 (size before relaxing)
 .ARM.exidx     0x080cad98       0x18 build/obj/modulator.o
 .ARM.exidx     0x080cadb0        0x8 build/obj/oscillator.o
                                 0x28 (size before relaxing)
 .ARM.exidx.text._ZN5warps10Oscillator14RenderPolyblepILNS_15OscillatorShapeE1EEEffPfS3_j
                0x080caf88        0x0 build/obj/oscillator.o
                                  0x8 (size before relaxing)
 .ARM.exidx.text._ZN5warps10Oscillator14RenderPolyblepILNS_15OscillatorShapeE2EEEffPfS3_j
                0x080caf88        0x0 build/obj/oscillator.o
                                  0x8 (size before relaxing)
 .ARM.exidx.text._ZN5warps10Oscillator14RenderPolyblepILNS_15OscillatorShapeE3EEEffPfS3_j
                0x080caf88        0x0 build/obj/oscillator.o
                                  0x8 (size before relaxing)
 .ARM.exidx     0x080cadb8       0x10 build/obj/vocoder.o
 .ARM.exidx     0x080cadc8        0x8 build/obj/axoloti_mi.o
 .ARM.exidx     0x080cadd0        0x8 build/obj/multistage_envelope.o
 .ARM.exidx     0x080cadd8       0x10 build/obj/ominous_voice.o
                                 0x30 (size before relaxing)
 .ARM.exidx     0x080cade8       0x10 build/obj/resonator.o
                                 0x18 (size before relaxing)
 .ARM.exidx     0x080cadf8       0x10 build/obj/string.o
 .ARM.exidx.text._ZN8elements6String15ProcessInternalILb1EEEvPKfPfS4_j
                0x080caf88        0x0 build/obj/string.o
                                  0x8 (size before relaxing)
 .ARM.exidx.text._ZN8elements6String15ProcessInternalILb0EEEvPKfPfS4_j
                0x080caf88        0x0 build/obj/string.o
                                  0x8 (size before relaxing)
 .ARM.exidx     0x080cae08        0x0 build/obj/tube.o
                                 0x10 (size before relaxing)
 .ARM.exidx     0x080cae08        0x8 build/obj/exciter.o
                                 0x50 (size before relaxing)
 .ARM.exidx     0x080cae10       0x18 build/obj/part.o
 .ARM.exidx     0x080cae28       0x18 build/obj/voice.o
 .ARM.exidx     0x080cae40        0x8 build/obj/correlator.o
                                 0x18 (size before relaxing)
 .ARM.exidx     0x080cae48       0x20 build/obj/granular_processor.o
                                 0x40 (size before relaxing)
 .ARM.exidx.text._ZN6clouds20GranularSamplePlayer4PlayILNS_10ResolutionE3EEEvPKNS_11AudioBufferIXT_EEERKNS_10ParametersEPfj
                0x080caf88        0x0 build/obj/granular_processor.o
                                  0x8 (size before relaxing)
 .ARM.exidx.text._ZN6clouds20GranularSamplePlayer4PlayILNS_10ResolutionE0EEEvPKNS_11AudioBufferIXT_EEERKNS_10ParametersEPfj
                0x080caf88        0x0 build/obj/granular_processor.o
                                  0x8 (size before relaxing)
 .ARM.exidx     0x080cae68        0x8 build/obj/frame_transformation.o
                                 0x60 (size before relaxing)
 .ARM.exidx     0x080cae70       0x18 build/obj/phase_vocoder.o
 .ARM.exidx     0x080cae88       0x20 build/obj/stft.o
 .ARM.exidx     0x080caea8        0x8 build/obj/compressor.o
                                 0x28 (size before relaxing)
 .ARM.exidx     0x080caeb0        0x0 build/obj/envelope.o
                                 0x10 (size before relaxing)
 .ARM.exidx     0x080caeb0       0x10 build/obj/follower.o
 .ARM.exidx     0x080caec0        0x8 build/obj/lorenz_generator.o
                                 0x10 (size before relaxing)
 .ARM.exidx.text._ZN7streams9Processor19CompressorConfigureEbPlS1_
                0x080caf88        0x0 build/obj/processor.o
                                  0x8 (size before relaxing)
 .ARM.exidx.text._ZN7streams9Processor20FilterControllerInitEv
                0x080caf88        0x0 build/obj/processor.o
                                  0x8 (size before relaxing)
 .ARM.exidx.text._ZN7streams9Processor25FilterControllerConfigureEbPlS1_
                0x080caf88        0x0 build/obj/processor.o
                                  0x8 (size before relaxing)
 .ARM.exidx.text._ZN7streams9Processor24LorenzGeneratorConfigureEbPlS1_
                0x080caf88        0x0 build/obj/processor.o
                                  0x8 (size before relaxing)
 .ARM.exidx.text._ZN7streams9Processor22LorenzGeneratorProcessEssPtS1_
                0x080caf88        0x0 build/obj/processor.o
                                  0x8 (size before relaxing)
 .ARM.exidx.text._ZN7streams9Processor19LorenzGeneratorInitEv
                0x080caf88        0x0 build/obj/processor.o
                                  0x8 (size before relaxing)
 .ARM.exidx.text._ZN7streams9Processor17CompressorProcessEssPtS1_
                0x080caf88        0x0 build/obj/processor.o
                                  0x8 (size before relaxing)
 .ARM.exidx.text._ZN7streams9Processor14CompressorInitEv
                0x080caf88        0x0 build/obj/processor.o
                                  0x8 (size before relaxing)
 .ARM.exidx.text._ZN7streams9Processor15FollowerProcessEssPtS1_
                0x080caf88        0x0 build/obj/processor.o
                                  0x8 (size before relaxing)
 .ARM.exidx.text._ZN7streams9Processor12FollowerInitEv
                0x080caf88        0x0 build/obj/processor.o
                                  0x8 (size before relaxing)
 .ARM.exidx.text._ZN7streams9Processor14VactrolProcessEssPtS1_
                0x080caf88        0x0 build/obj/processor.o
                                  0x8 (size before relaxing)
 .ARM.exidx.text._ZN7streams9Processor11VactrolInitEv
                0x080caf88        0x0 build/obj/processor.o
                                  0x8 (size before relaxing)
 .ARM.exidx.text._ZN7streams9Processor15EnvelopeProcessEssPtS1_
                0x080caf88        0x0 build/obj/processor.o
                                  0x8 (size before relaxing)
 .ARM.exidx.text._ZN7streams9Processor12EnvelopeInitEv
                0x080caf88        0x0 build/obj/processor.o
                                  0x8 (size before relaxing)
 .ARM.exidx.text._ZN7streams9Processor23FilterControllerProcessEssPtS1_
                0x080caf88        0x0 build/obj/processor.o
                                  0x8 (size before relaxing)
 .ARM.exidx.text._ZN7streams9Processor16VactrolConfigureEbPlS1_
                0x080caf88        0x0 build/obj/processor.o
                                  0x8 (size before relaxing)
 .ARM.exidx.text._ZN7streams9Processor17FollowerConfigureEbPlS1_
                0x080caf88        0x0 build/obj/processor.o
                                  0x8 (size before relaxing)
 .ARM.exidx.text._ZN7streams9Processor17EnvelopeConfigureEbPlS1_
                0x080caf88        0x0 build/obj/processor.o
                                  0x8 (size before relaxing)
 .ARM.exidx     0x080caec8        0x8 build/obj/processor.o
 .ARM.exidx     0x080caed0        0x8 build/obj/svf.o
                                 0x10 (size before relaxing)
 .ARM.exidx     0x080caed8        0x0 build/obj/vactrol.o
                                 0x10 (size before relaxing)
 .ARM.exidx     0x080caed8       0x78 /home/sbcm/Dropbox/pcb-layouts/axo-427-core/ksoloti/platform_linux/bin/../lib/gcc/arm-none-eabi/4.9.3/armv7e-m/fpu/libgcc.a(unwind-arm.o)
                                 0xd8 (size before relaxing)
 .ARM.exidx     0x080caf50       0x38 /home/sbcm/Dropbox/pcb-layouts/axo-427-core/ksoloti/platform_linux/bin/../lib/gcc/arm-none-eabi/4.9.3/armv7e-m/fpu/libgcc.a(pr-support.o)
                                 0x48 (size before relaxing)
                0x080caf88                PROVIDE (__exidx_end, .)

.rel.dyn        0x080caf88        0x0
 .rel.iplt      0x00000000        0x0 build/obj/crt0.o

.eh_frame_hdr
 *(.eh_frame_hdr)

.eh_frame
 *(.eh_frame)

.textalign      0x080caf88        0x0
                0x080caf88                . = ALIGN (0x8)

.samples        0x080caf88        0x0
                0x080caf88                . = ALIGN (0x8)
                0x080caf88                _etext = .
                0x080caf88                _textdata = _etext

.stacks         0x1000c000      0x800
                0x1000c000                . = ALIGN (0x8)
                0x1000c000                __main_stack_base__ = .
                0x1000c400                . = (. + __main_stack_size__)
 *fill*         0x1000c000      0x400 
                0x1000c400                . = ALIGN (0x8)
                0x1000c400                __main_stack_end__ = .
                0x1000c400                __process_stack_base__ = .
                0x1000c400                __main_thread_stack_base__ = .
                0x1000c800                . = (. + __process_stack_size__)
 *fill*         0x1000c400      0x400 
                0x1000c800                . = ALIGN (0x8)
                0x1000c800                __process_stack_end__ = .
                0x1000c800                __main_thread_stack_end__ = .

.data           0x20000200     0x1f7c load address 0x080caf88
                0x20000200                . = ALIGN (0x4)
                0x20000200                PROVIDE (_data, .)
 *(.data)
 .data          0x20000200        0x0 build/obj/arm_bitreversal2.o
 .data          0x20000200        0x0 build/obj/crt0.o
 .data          0x20000200        0x0 build/obj/vectors.o
 .data          0x20000200        0x0 build/obj/chcore.o
 .data          0x20000200        0x0 build/obj/chcore_v7m.o
 .data          0x20000200        0x0 build/obj/nvic.o
 .data          0x20000200        0x0 build/obj/chsys.o
 .data          0x20000200        0x0 build/obj/chdebug.o
 .data          0x20000200        0x0 build/obj/chlists.o
 .data          0x20000200        0x0 build/obj/chvt.o
 .data          0x20000200        0x0 build/obj/chschd.o
 .data          0x20000200        0x0 build/obj/chthreads.o
 .data          0x20000200        0x0 build/obj/chdynamic.o
 .data          0x20000200        0x0 build/obj/chregistry.o
 .data          0x20000200        0x0 build/obj/chsem.o
 .data          0x20000200        0x0 build/obj/chmtx.o
 .data          0x20000200        0x0 build/obj/chcond.o
 .data          0x20000200        0x0 build/obj/chevents.o
 .data          0x20000200        0x0 build/obj/chmsg.o
 .data          0x20000200        0x0 build/obj/chmboxes.o
 .data          0x20000200        0x0 build/obj/chqueues.o
 .data          0x20000200        0x0 build/obj/chmemcore.o
 .data          0x20000200        0x0 build/obj/chheap.o
 .data          0x20000200        0x0 build/obj/chmempools.o
 .data          0x20000200        0x0 build/obj/hal.o
 .data          0x20000200        0x0 build/obj/adc.o
 .data          0x20000200        0x0 build/obj/can.o
 .data          0x20000200        0x0 build/obj/ext.o
 .data          0x20000200        0x0 build/obj/gpt.o
 .data          0x20000200        0x0 build/obj/i2c.o
 .data          0x20000200        0x0 build/obj/icu.o
 .data          0x20000200        0x0 build/obj/mac.o
 .data          0x20000200        0x0 build/obj/mmc_spi.o
 .data          0x20000200        0x0 build/obj/mmcsd.o
 .data          0x20000200        0x0 build/obj/pal.o
 .data          0x20000200        0x0 build/obj/pwm.o
 .data          0x20000200        0x0 build/obj/rtc.o
 .data          0x20000200        0x0 build/obj/sdc.o
 .data          0x20000200        0x0 build/obj/serial.o
 .data          0x20000200        0x0 build/obj/serial_usb.o
 .data          0x20000200        0x0 build/obj/spi.o
 .data          0x20000200        0x0 build/obj/tm.o
 .data          0x20000200        0x0 build/obj/uart.o
 .data          0x20000200        0x0 build/obj/usb.o
 .data          0x20000200        0x0 build/obj/stm32_dma.o
 .data          0x20000200        0x0 build/obj/hal_lld.o
 .data          0x20000200        0x0 build/obj/adc_lld.o
 .data          0x20000200        0x0 build/obj/ext_lld_isr.o
 .data          0x20000200        0x0 build/obj/can_lld.o
 .data          0x20000200        0x0 build/obj/ext_lld.o
 .data          0x20000200        0x0 build/obj/mac_lld.o
 .data          0x20000200        0x0 build/obj/sdc_lld.o
 .data          0x20000200        0x0 build/obj/pal_lld.o
 .data          0x20000200        0x0 build/obj/i2c_lld.o
 .data          0x20000200        0x0 build/obj/usb_lld.o
 .data          0x20000200        0x0 build/obj/rtc_lld.o
 .data          0x20000200        0x0 build/obj/spi_lld.o
 .data          0x20000200        0x0 build/obj/gpt_lld.o
 .data          0x20000200        0x0 build/obj/icu_lld.o
 .data          0x20000200        0x0 build/obj/pwm_lld.o
 .data          0x20000200        0x0 build/obj/serial_lld.o
 .data          0x20000200        0x0 build/obj/uart_lld.o
 .data          0x20000200        0x0 build/obj/board.o
 .data          0x20000200        0x0 build/obj/fatfs_diskio.o
 .data          0x20000200        0x0 build/obj/fatfs_syscall.o
 .data          0x20000200        0x0 build/obj/ff.o
 .data          0x20000200        0x0 build/obj/ccsbcs.o
 .data          0x20000200        0x0 build/obj/chprintf.o
 .data          0x20000200        0x0 build/obj/memstreams.o
 .data          0x20000200        0x0 build/obj/axoloti_control.o
 .data          0x20000200       0x18 build/obj/codec.o
                0x20000210                sai_a
                0x20000214                sai_b
 .data          0x20000218        0x0 build/obj/axoloti.o
 .data          0x20000218        0x0 build/obj/axoloti_filters.o
 .data          0x20000218        0x0 build/obj/axoloti_math.o
 .data          0x20000218     0x1000 build/obj/axoloti_oscs.o
                0x20000218                blept
 .data          0x20001218        0x1 build/obj/axoloti_board.o
                0x20001218                adc_ch
 .data          0x20001219        0x0 build/obj/midi.o
 *fill*         0x20001219        0x3 
 .data          0x2000121c        0x4 build/obj/ui.o
                0x2000121c                pControlUpdate
 .data          0x20001220        0x0 build/obj/glcdfont.o
 .data          0x20001220       0x62 build/obj/usbcfg.o
 .data          0x20001282        0x0 build/obj/sdcard.o
 .data          0x20001282        0x0 build/obj/pconnection.o
 .data          0x20001282        0x0 build/obj/parameters.o
 .data          0x20001282        0x0 build/obj/main.o
 .data          0x20001282        0x1 build/obj/patch.o
                0x20001282                loadPatchIndex
 *fill*         0x20001283        0xd 
 .data          0x20001290       0xac build/obj/flash.o
                0x20001290                flash_WaitForLastOperation
                0x200012c0                flash_Erase_sector1
 .data          0x2000133c        0x0 build/obj/virtual_control.o
 .data          0x2000133c        0x0 build/obj/arm_bitreversal.o
 .data          0x2000133c        0x0 build/obj/arm_cfft_f32.o
 .data          0x2000133c        0x0 build/obj/arm_cfft_q15.o
 .data          0x2000133c        0x0 build/obj/arm_cfft_q31.o
 .data          0x2000133c        0x0 build/obj/arm_cfft_radix2_f32.o
 .data          0x2000133c        0x0 build/obj/arm_cfft_radix2_init_f32.o
 .data          0x2000133c        0x0 build/obj/arm_cfft_radix2_init_q15.o
 .data          0x2000133c        0x0 build/obj/arm_cfft_radix2_init_q31.o
 .data          0x2000133c        0x0 build/obj/arm_cfft_radix2_q15.o
 .data          0x2000133c        0x0 build/obj/arm_cfft_radix2_q31.o
 .data          0x2000133c        0x0 build/obj/arm_cfft_radix4_f32.o
 .data          0x2000133c        0x0 build/obj/arm_cfft_radix4_init_f32.o
 .data          0x2000133c        0x0 build/obj/arm_cfft_radix4_init_q15.o
 .data          0x2000133c        0x0 build/obj/arm_cfft_radix4_init_q31.o
 .data          0x2000133c        0x0 build/obj/arm_cfft_radix4_q15.o
 .data          0x2000133c        0x0 build/obj/arm_cfft_radix4_q31.o
 .data          0x2000133c        0x0 build/obj/arm_cfft_radix8_f32.o
 .data          0x2000133c        0x0 build/obj/arm_rfft_f32.o
 .data          0x2000133c        0x0 build/obj/arm_rfft_fast_f32.o
 .data          0x2000133c        0x0 build/obj/arm_rfft_fast_init_f32.o
 .data          0x2000133c        0x0 build/obj/arm_rfft_init_f32.o
 .data          0x2000133c        0x0 build/obj/arm_rfft_init_q15.o
 .data          0x2000133c        0x0 build/obj/arm_rfft_init_q31.o
 .data          0x2000133c        0x0 build/obj/arm_rfft_q15.o
 .data          0x2000133c        0x0 build/obj/arm_rfft_q31.o
 .data          0x2000133c        0x0 build/obj/arm_mult_q31.o
 .data          0x2000133c        0x0 build/obj/arm_mult_q15.o
 .data          0x2000133c        0x0 build/obj/arm_mult_f32.o
 .data          0x2000133c        0x0 build/obj/arm_shift_q31.o
 .data          0x2000133c        0x0 build/obj/arm_shift_q15.o
 .data          0x2000133c        0x0 build/obj/arm_scale_f32.o
 .data          0x2000133c        0x0 build/obj/arm_cmplx_mult_cmplx_q31.o
 .data          0x2000133c        0x0 build/obj/arm_cmplx_mult_cmplx_f32.o
 .data          0x2000133c        0x0 build/obj/arm_cmplx_mag_q31.o
 .data          0x2000133c        0x0 build/obj/arm_cmplx_mult_cmplx_q15.o
 .data          0x2000133c        0x0 build/obj/arm_cmplx_mag_q15.o
 .data          0x2000133c        0x0 build/obj/arm_cos_q31.o
 .data          0x2000133c        0x0 build/obj/arm_sin_q31.o
 .data          0x2000133c        0x0 build/obj/arm_sqrt_q31.o
 .data          0x2000133c        0x0 build/obj/arm_sqrt_q15.o
 .data          0x2000133c        0x0 build/obj/arm_fir_init_q31.o
 .data          0x2000133c        0x0 build/obj/arm_fir_fast_q31.o
 .data          0x2000133c        0x0 build/obj/arm_biquad_cascade_df1_32x64_init_q31.o
 .data          0x2000133c        0x0 build/obj/arm_biquad_cascade_df1_32x64_q31.o
 .data          0x2000133c        0x0 build/obj/arm_biquad_cascade_df1_fast_q31.o
 .data          0x2000133c        0x0 build/obj/arm_biquad_cascade_df1_init_q31.o
 .data          0x2000133c        0x0 build/obj/arm_biquad_cascade_df1_q31.o
 .data          0x2000133c        0x0 build/obj/arm_fir_interpolate_init_q31.o
 .data          0x2000133c        0x0 build/obj/arm_fir_interpolate_q31.o
 .data          0x2000133c        0x0 build/obj/arm_fir_decimate_init_q31.o
 .data          0x2000133c        0x0 build/obj/arm_fir_decimate_q31.o
 .data          0x2000133c        0x0 build/obj/arm_fir_decimate_fast_q31.o
 .data          0x2000133c        0x0 build/obj/arm_fir_lattice_init_q31.o
 .data          0x2000133c        0x0 build/obj/arm_fir_lattice_q31.o
 .data          0x2000133c        0x0 build/obj/arm_iir_lattice_init_q31.o
 .data          0x2000133c        0x0 build/obj/arm_iir_lattice_q31.o
 .data          0x2000133c        0x0 build/obj/arm_common_tables.o
 .data          0x2000133c        0x0 build/obj/arm_const_structs.o
 .data          0x2000133c        0x0 build/obj/usbh_core.o
 .data          0x2000133c        0x0 build/obj/usbh_ctlreq.o
 .data          0x2000133c        0x0 build/obj/usbh_ioreq.o
 .data          0x2000133c        0x0 build/obj/usbh_pipes.o
 .data          0x2000133c       0x20 build/obj/usbh_hid.o
                0x2000133c                HID_Class
 .data          0x2000135c        0x0 build/obj/usbh_hid_keybd.o
 .data          0x2000135c        0x0 build/obj/usbh_hid_mouse.o
 .data          0x2000135c        0x0 build/obj/usbh_hid_parser.o
 .data          0x2000135c        0x0 build/obj/stm32f4xx_ll_usb.o
 .data          0x2000135c        0x0 build/obj/stm32f4xx_hal_gpio.o
 .data          0x2000135c        0x0 build/obj/stm32f4xx_hal_cortex.o
 .data          0x2000135c        0x0 build/obj/stm32f4xx_hal_hcd.o
 .data          0x2000135c        0x0 build/obj/stm32f4xx_hal_i2c.o
 .data          0x2000135c       0x20 build/obj/usbh_midi_core.o
                0x2000135c                MIDI_Class
 .data          0x2000137c       0x24 build/obj/usbh_vendor.o
                0x20001380                Vendor_Class
 .data          0x200013a0        0x0 build/obj/usbh_conf.o
 .data          0x200013a0        0x0 build/obj/serial_midi.o
 .data          0x200013a0        0x0 build/obj/bulk_usb.o
 .data          0x200013a0        0x0 build/obj/midi_usb.o
 .data          0x200013a0        0x0 build/obj/spilink.o
 .data          0x200013a0        0x0 build/obj/spidb.o
 .data          0x200013a0        0x0 build/obj/crc32.o
 .data          0x200013a0        0x0 build/obj/exceptions.o
 .data          0x200013a0        0x0 build/obj/watchdog.o
 .data          0x200013a0        0x5 build/obj/sysmon.o
                0x200013a0                pattern
                0x200013a4                isEnabled
 .data          0x200013a5        0x0 build/obj/axoloti_memory.o
 .data          0x200013a5        0x0 build/obj/units.o
 .data          0x200013a5        0x0 build/obj/atan.o
 *fill*         0x200013a5        0x3 
 .data          0x200013a8        0x4 build/obj/random.o
                0x200013a8                stmlib::Random::rng_state_
 .data          0x200013ac        0x0 build/obj/mutable_resources.o
 .data          0x200013ac       0xb8 build/obj/braids_resources.o
                0x200013ac                braids::char_table
                0x200013b0                braids::wt_table
                0x200013bc                braids::waveshaper_table
                0x200013cc                braids::waveform_table
                0x20001414                braids::lookup_table_hr_table
                0x20001420                braids::lookup_table_signed_table
                0x20001424                braids::lookup_table_table
                0x20001460                braids::string_table
 .data          0x20001464        0x0 build/obj/analog_oscillator.o
 .data          0x20001464        0x0 build/obj/digital_oscillator.o
 .data          0x20001464        0x0 build/obj/macro_oscillator.o
 .data          0x20001464       0x88 build/obj/warps_resources.o
                0x20001464                warps::wav_table
                0x2000147c                warps::lookup_table_table
                0x2000149c                warps::filter_bank_table
 .data          0x200014ec        0x0 build/obj/filter_bank.o
 .data          0x200014ec       0x30 build/obj/modulator.o
                0x200014ec                warps::Modulator::xmod_table_
 .data          0x2000151c       0x28 build/obj/oscillator.o
                0x2000151c                warps::Oscillator::fn_table_
 .data          0x20001544        0x0 build/obj/vocoder.o
 .data          0x20001544        0x0 build/obj/axoloti_mi.o
 .data          0x20001544        0x0 build/obj/multistage_envelope.o
 .data          0x20001544        0x0 build/obj/ominous_voice.o
 .data          0x20001544        0x0 build/obj/resonator.o
 .data          0x20001544        0x0 build/obj/string.o
 .data          0x20001544        0x0 build/obj/tube.o
 .data          0x20001544       0x38 build/obj/exciter.o
                0x20001544                elements::Exciter::fn_table_
 .data          0x2000157c       0x54 build/obj/elements_resources.o
                0x2000157c                elements::sample_boundary_table
                0x20001580                elements::lookup_table_table
                0x200015cc                elements::lookup_table_int16_table
 .data          0x200015d0        0x0 build/obj/part.o
 .data          0x200015d0       0xdc build/obj/voice.o
                0x200015d0                elements::chords
 .data          0x200016ac       0x34 build/obj/clouds_resources.o
                0x200016ac                clouds::lookup_table_table
                0x200016cc                clouds::lookup_table_int16_table
                0x200016d0                clouds::src_filter_table
 .data          0x200016e0        0x0 build/obj/correlator.o
 .data          0x200016e0      0x200 build/obj/mu_law.o
                0x200016e0                clouds::lut_ulaw
 .data          0x200018e0        0x0 build/obj/granular_processor.o
 .data          0x200018e0        0x0 build/obj/frame_transformation.o
 .data          0x200018e0        0x0 build/obj/phase_vocoder.o
 .data          0x200018e0        0x0 build/obj/stft.o
 .data          0x200018e0       0x14 build/obj/rings_resources.o
                0x200018e0                rings::lookup_table_table
 .data          0x200018f4       0x44 build/obj/streams_resources.o
                0x200018f4                streams::lookup_table_32_table
                0x20001908                streams::lookup_table_table
                0x2000192c                streams::waveforms_table
                0x20001934                streams::string_table
 .data          0x20001938        0x0 build/obj/compressor.o
 .data          0x20001938        0x0 build/obj/envelope.o
 .data          0x20001938        0x0 build/obj/follower.o
 .data          0x20001938        0x0 build/obj/lorenz_generator.o
 .data          0x20001938        0x0 build/obj/processor.o
 .data          0x20001938        0x0 build/obj/svf.o
 .data          0x20001938        0x0 build/obj/vactrol.o
 .data          0x20001938        0x0 /home/sbcm/Dropbox/pcb-layouts/axo-427-core/ksoloti/platform_linux/bin/../lib/gcc/arm-none-eabi/4.9.3/../../../../arm-none-eabi/lib/armv7e-m/fpu/libm.a(lib_a-sf_cos.o)
 .data          0x20001938        0x0 /home/sbcm/Dropbox/pcb-layouts/axo-427-core/ksoloti/platform_linux/bin/../lib/gcc/arm-none-eabi/4.9.3/../../../../arm-none-eabi/lib/armv7e-m/fpu/libm.a(lib_a-sf_sin.o)
 .data          0x20001938        0x0 /home/sbcm/Dropbox/pcb-layouts/axo-427-core/ksoloti/platform_linux/bin/../lib/gcc/arm-none-eabi/4.9.3/../../../../arm-none-eabi/lib/armv7e-m/fpu/libm.a(lib_a-w_log.o)
 .data          0x20001938        0x0 /home/sbcm/Dropbox/pcb-layouts/axo-427-core/ksoloti/platform_linux/bin/../lib/gcc/arm-none-eabi/4.9.3/../../../../arm-none-eabi/lib/armv7e-m/fpu/libm.a(lib_a-w_pow.o)
 .data          0x20001938        0x0 /home/sbcm/Dropbox/pcb-layouts/axo-427-core/ksoloti/platform_linux/bin/../lib/gcc/arm-none-eabi/4.9.3/../../../../arm-none-eabi/lib/armv7e-m/fpu/libm.a(lib_a-wf_pow.o)
 .data          0x20001938        0x0 /home/sbcm/Dropbox/pcb-layouts/axo-427-core/ksoloti/platform_linux/bin/../lib/gcc/arm-none-eabi/4.9.3/../../../../arm-none-eabi/lib/armv7e-m/fpu/libm.a(lib_a-e_log.o)
 .data          0x20001938        0x0 /home/sbcm/Dropbox/pcb-layouts/axo-427-core/ksoloti/platform_linux/bin/../lib/gcc/arm-none-eabi/4.9.3/../../../../arm-none-eabi/lib/armv7e-m/fpu/libm.a(lib_a-e_pow.o)
 .data          0x20001938        0x0 /home/sbcm/Dropbox/pcb-layouts/axo-427-core/ksoloti/platform_linux/bin/../lib/gcc/arm-none-eabi/4.9.3/../../../../arm-none-eabi/lib/armv7e-m/fpu/libm.a(lib_a-e_sqrt.o)
 .data          0x20001938        0x0 /home/sbcm/Dropbox/pcb-layouts/axo-427-core/ksoloti/platform_linux/bin/../lib/gcc/arm-none-eabi/4.9.3/../../../../arm-none-eabi/lib/armv7e-m/fpu/libm.a(lib_a-ef_pow.o)
 .data          0x20001938        0x0 /home/sbcm/Dropbox/pcb-layouts/axo-427-core/ksoloti/platform_linux/bin/../lib/gcc/arm-none-eabi/4.9.3/../../../../arm-none-eabi/lib/armv7e-m/fpu/libm.a(lib_a-ef_rem_pio2.o)
 .data          0x20001938        0x0 /home/sbcm/Dropbox/pcb-layouts/axo-427-core/ksoloti/platform_linux/bin/../lib/gcc/arm-none-eabi/4.9.3/../../../../arm-none-eabi/lib/armv7e-m/fpu/libm.a(lib_a-ef_sqrt.o)
 .data          0x20001938        0x0 /home/sbcm/Dropbox/pcb-layouts/axo-427-core/ksoloti/platform_linux/bin/../lib/gcc/arm-none-eabi/4.9.3/../../../../arm-none-eabi/lib/armv7e-m/fpu/libm.a(lib_a-kf_cos.o)
 .data          0x20001938        0x0 /home/sbcm/Dropbox/pcb-layouts/axo-427-core/ksoloti/platform_linux/bin/../lib/gcc/arm-none-eabi/4.9.3/../../../../arm-none-eabi/lib/armv7e-m/fpu/libm.a(lib_a-kf_rem_pio2.o)
 .data          0x20001938        0x0 /home/sbcm/Dropbox/pcb-layouts/axo-427-core/ksoloti/platform_linux/bin/../lib/gcc/arm-none-eabi/4.9.3/../../../../arm-none-eabi/lib/armv7e-m/fpu/libm.a(lib_a-kf_sin.o)
 .data          0x20001938        0x0 /home/sbcm/Dropbox/pcb-layouts/axo-427-core/ksoloti/platform_linux/bin/../lib/gcc/arm-none-eabi/4.9.3/../../../../arm-none-eabi/lib/armv7e-m/fpu/libm.a(lib_a-s_fabs.o)
 .data          0x20001938        0x0 /home/sbcm/Dropbox/pcb-layouts/axo-427-core/ksoloti/platform_linux/bin/../lib/gcc/arm-none-eabi/4.9.3/../../../../arm-none-eabi/lib/armv7e-m/fpu/libm.a(lib_a-s_finite.o)
 .data          0x20001938        0x0 /home/sbcm/Dropbox/pcb-layouts/axo-427-core/ksoloti/platform_linux/bin/../lib/gcc/arm-none-eabi/4.9.3/../../../../arm-none-eabi/lib/armv7e-m/fpu/libm.a(lib_a-s_fpclassify.o)
 .data          0x20001938        0x0 /home/sbcm/Dropbox/pcb-layouts/axo-427-core/ksoloti/platform_linux/bin/../lib/gcc/arm-none-eabi/4.9.3/../../../../arm-none-eabi/lib/armv7e-m/fpu/libm.a(lib_a-s_lib_ver.o)
 .data          0x20001938        0x0 /home/sbcm/Dropbox/pcb-layouts/axo-427-core/ksoloti/platform_linux/bin/../lib/gcc/arm-none-eabi/4.9.3/../../../../arm-none-eabi/lib/armv7e-m/fpu/libm.a(lib_a-s_matherr.o)
 .data          0x20001938        0x0 /home/sbcm/Dropbox/pcb-layouts/axo-427-core/ksoloti/platform_linux/bin/../lib/gcc/arm-none-eabi/4.9.3/../../../../arm-none-eabi/lib/armv7e-m/fpu/libm.a(lib_a-s_nan.o)
 .data          0x20001938        0x0 /home/sbcm/Dropbox/pcb-layouts/axo-427-core/ksoloti/platform_linux/bin/../lib/gcc/arm-none-eabi/4.9.3/../../../../arm-none-eabi/lib/armv7e-m/fpu/libm.a(lib_a-s_rint.o)
 .data          0x20001938        0x0 /home/sbcm/Dropbox/pcb-layouts/axo-427-core/ksoloti/platform_linux/bin/../lib/gcc/arm-none-eabi/4.9.3/../../../../arm-none-eabi/lib/armv7e-m/fpu/libm.a(lib_a-s_scalbn.o)
 .data          0x20001938        0x0 /home/sbcm/Dropbox/pcb-layouts/axo-427-core/ksoloti/platform_linux/bin/../lib/gcc/arm-none-eabi/4.9.3/../../../../arm-none-eabi/lib/armv7e-m/fpu/libm.a(lib_a-sf_fabs.o)
 .data          0x20001938        0x0 /home/sbcm/Dropbox/pcb-layouts/axo-427-core/ksoloti/platform_linux/bin/../lib/gcc/arm-none-eabi/4.9.3/../../../../arm-none-eabi/lib/armv7e-m/fpu/libm.a(lib_a-sf_finite.o)
 .data          0x20001938        0x0 /home/sbcm/Dropbox/pcb-layouts/axo-427-core/ksoloti/platform_linux/bin/../lib/gcc/arm-none-eabi/4.9.3/../../../../arm-none-eabi/lib/armv7e-m/fpu/libm.a(lib_a-sf_floor.o)
 .data          0x20001938        0x0 /home/sbcm/Dropbox/pcb-layouts/axo-427-core/ksoloti/platform_linux/bin/../lib/gcc/arm-none-eabi/4.9.3/../../../../arm-none-eabi/lib/armv7e-m/fpu/libm.a(lib_a-sf_fpclassify.o)
 .data          0x20001938        0x0 /home/sbcm/Dropbox/pcb-layouts/axo-427-core/ksoloti/platform_linux/bin/../lib/gcc/arm-none-eabi/4.9.3/../../../../arm-none-eabi/lib/armv7e-m/fpu/libm.a(lib_a-sf_nan.o)
 .data          0x20001938        0x0 /home/sbcm/Dropbox/pcb-layouts/axo-427-core/ksoloti/platform_linux/bin/../lib/gcc/arm-none-eabi/4.9.3/../../../../arm-none-eabi/lib/armv7e-m/fpu/libm.a(lib_a-sf_scalbn.o)
 .data          0x20001938        0x0 /home/sbcm/Dropbox/pcb-layouts/axo-427-core/ksoloti/platform_linux/bin/../lib/gcc/arm-none-eabi/4.9.3/../../../../arm-none-eabi/lib/armv7e-m/fpu/libm.a(lib_a-s_copysign.o)
 .data          0x20001938        0x0 /home/sbcm/Dropbox/pcb-layouts/axo-427-core/ksoloti/platform_linux/bin/../lib/gcc/arm-none-eabi/4.9.3/../../../../arm-none-eabi/lib/armv7e-m/fpu/libm.a(lib_a-sf_copysign.o)
 .data          0x20001938        0x0 /home/sbcm/Dropbox/pcb-layouts/axo-427-core/ksoloti/platform_linux/bin/../lib/gcc/arm-none-eabi/4.9.3/armv7e-m/fpu/libgcc.a(_arm_addsubdf3.o)
 .data          0x20001938        0x0 /home/sbcm/Dropbox/pcb-layouts/axo-427-core/ksoloti/platform_linux/bin/../lib/gcc/arm-none-eabi/4.9.3/armv7e-m/fpu/libgcc.a(_arm_muldivdf3.o)
 .data          0x20001938        0x0 /home/sbcm/Dropbox/pcb-layouts/axo-427-core/ksoloti/platform_linux/bin/../lib/gcc/arm-none-eabi/4.9.3/armv7e-m/fpu/libgcc.a(_arm_cmpdf2.o)
 .data          0x20001938        0x0 /home/sbcm/Dropbox/pcb-layouts/axo-427-core/ksoloti/platform_linux/bin/../lib/gcc/arm-none-eabi/4.9.3/armv7e-m/fpu/libgcc.a(_arm_fixdfsi.o)
 .data          0x20001938        0x0 /home/sbcm/Dropbox/pcb-layouts/axo-427-core/ksoloti/platform_linux/bin/../lib/gcc/arm-none-eabi/4.9.3/armv7e-m/fpu/libgcc.a(_arm_fixunsdfsi.o)
 .data          0x20001938        0x0 /home/sbcm/Dropbox/pcb-layouts/axo-427-core/ksoloti/platform_linux/bin/../lib/gcc/arm-none-eabi/4.9.3/armv7e-m/fpu/libgcc.a(_arm_truncdfsf2.o)
 .data          0x20001938        0x0 /home/sbcm/Dropbox/pcb-layouts/axo-427-core/ksoloti/platform_linux/bin/../lib/gcc/arm-none-eabi/4.9.3/armv7e-m/fpu/libgcc.a(unwind-arm.o)
 .data          0x20001938        0x0 /home/sbcm/Dropbox/pcb-layouts/axo-427-core/ksoloti/platform_linux/bin/../lib/gcc/arm-none-eabi/4.9.3/armv7e-m/fpu/libgcc.a(libunwind.o)
 .data          0x20001938        0x0 /home/sbcm/Dropbox/pcb-layouts/axo-427-core/ksoloti/platform_linux/bin/../lib/gcc/arm-none-eabi/4.9.3/armv7e-m/fpu/libgcc.a(pr-support.o)
 .data          0x20001938        0x0 /home/sbcm/Dropbox/pcb-layouts/axo-427-core/ksoloti/platform_linux/bin/../lib/gcc/arm-none-eabi/4.9.3/../../../../arm-none-eabi/lib/armv7e-m/fpu/libg.a(lib_a-abort.o)
 .data          0x20001938        0x0 /home/sbcm/Dropbox/pcb-layouts/axo-427-core/ksoloti/platform_linux/bin/../lib/gcc/arm-none-eabi/4.9.3/../../../../arm-none-eabi/lib/armv7e-m/fpu/libg.a(lib_a-errno.o)
 .data          0x20001938        0x0 /home/sbcm/Dropbox/pcb-layouts/axo-427-core/ksoloti/platform_linux/bin/../lib/gcc/arm-none-eabi/4.9.3/../../../../arm-none-eabi/lib/armv7e-m/fpu/libg.a(lib_a-impure.o)
 .data          0x20001938        0x0 /home/sbcm/Dropbox/pcb-layouts/axo-427-core/ksoloti/platform_linux/bin/../lib/gcc/arm-none-eabi/4.9.3/../../../../arm-none-eabi/lib/armv7e-m/fpu/libg.a(lib_a-memcpy.o)
 .data          0x20001938        0x0 /home/sbcm/Dropbox/pcb-layouts/axo-427-core/ksoloti/platform_linux/bin/../lib/gcc/arm-none-eabi/4.9.3/../../../../arm-none-eabi/lib/armv7e-m/fpu/libg.a(lib_a-memmove.o)
 .data          0x20001938        0x0 /home/sbcm/Dropbox/pcb-layouts/axo-427-core/ksoloti/platform_linux/bin/../lib/gcc/arm-none-eabi/4.9.3/../../../../arm-none-eabi/lib/armv7e-m/fpu/libg.a(lib_a-memset.o)
 .data          0x20001938        0x0 /home/sbcm/Dropbox/pcb-layouts/axo-427-core/ksoloti/platform_linux/bin/../lib/gcc/arm-none-eabi/4.9.3/../../../../arm-none-eabi/lib/armv7e-m/fpu/libg.a(lib_a-signal.o)
 .data          0x20001938        0x0 /home/sbcm/Dropbox/pcb-layouts/axo-427-core/ksoloti/platform_linux/bin/../lib/gcc/arm-none-eabi/4.9.3/../../../../arm-none-eabi/lib/armv7e-m/fpu/libg.a(lib_a-signalr.o)
 .data          0x20001938        0x0 /home/sbcm/Dropbox/pcb-layouts/axo-427-core/ksoloti/platform_linux/bin/../lib/gcc/arm-none-eabi/4.9.3/../../../../arm-none-eabi/lib/armv7e-m/fpu/libg.a(lib_a-stpcpy.o)
 .data          0x20001938        0x0 /home/sbcm/Dropbox/pcb-layouts/axo-427-core/ksoloti/platform_linux/bin/../lib/gcc/arm-none-eabi/4.9.3/../../../../arm-none-eabi/lib/armv7e-m/fpu/libg.a(lib_a-strcpy.o)
 .data          0x20001938        0x0 /home/sbcm/Dropbox/pcb-layouts/axo-427-core/ksoloti/platform_linux/bin/../lib/gcc/arm-none-eabi/4.9.3/../../../../arm-none-eabi/lib/armv7e-m/fpu/libg.a(lib_a-strlen.o)
 .data          0x20001938        0x0 /home/sbcm/Dropbox/pcb-layouts/axo-427-core/ksoloti/platform_linux/bin/../lib/gcc/arm-none-eabi/4.9.3/../../../../arm-none-eabi/lib/armv7e-m/fpu/libg.a(lib_a-mallocr.o)
 .data          0x20001938        0x0 /home/sbcm/Dropbox/pcb-layouts/axo-427-core/ksoloti/platform_linux/bin/../lib/gcc/arm-none-eabi/4.9.3/../../../../arm-none-eabi/lib/armv7e-m/fpu/libg.a(lib_a-mlock.o)
 .data          0x20001938        0x0 /home/sbcm/Dropbox/pcb-layouts/axo-427-core/ksoloti/platform_linux/bin/../lib/gcc/arm-none-eabi/4.9.3/../../../../arm-none-eabi/lib/armv7e-m/fpu/libg.a(lib_a-reent.o)
 .data          0x20001938        0x0 /home/sbcm/Dropbox/pcb-layouts/axo-427-core/ksoloti/platform_linux/bin/../lib/gcc/arm-none-eabi/4.9.3/../../../../arm-none-eabi/lib/armv7e-m/fpu/libg.a(lib_a-sbrkr.o)
 .data          0x20001938        0x0 /home/sbcm/Dropbox/pcb-layouts/axo-427-core/ksoloti/platform_linux/bin/../lib/gcc/arm-none-eabi/4.9.3/../../../../arm-none-eabi/lib/armv7e-m/fpu/libg.a(lib_a-freer.o)
                0x20001938                . = ALIGN (0x4)
 *(.data.*)
 .data.__fdlib_version
                0x20001938        0x1 /home/sbcm/Dropbox/pcb-layouts/axo-427-core/ksoloti/platform_linux/bin/../lib/gcc/arm-none-eabi/4.9.3/../../../../arm-none-eabi/lib/armv7e-m/fpu/libm.a(lib_a-s_lib_ver.o)
                0x20001938                __fdlib_version
 *fill*         0x20001939        0x7 
 .data.impure_data
                0x20001940      0x428 /home/sbcm/Dropbox/pcb-layouts/axo-427-core/ksoloti/platform_linux/bin/../lib/gcc/arm-none-eabi/4.9.3/../../../../arm-none-eabi/lib/armv7e-m/fpu/libg.a(lib_a-impure.o)
 .data._impure_ptr
                0x20001d68        0x4 /home/sbcm/Dropbox/pcb-layouts/axo-427-core/ksoloti/platform_linux/bin/../lib/gcc/arm-none-eabi/4.9.3/../../../../arm-none-eabi/lib/armv7e-m/fpu/libg.a(lib_a-impure.o)
                0x20001d68                _impure_ptr
 .data.__malloc_av_
                0x20001d6c      0x408 /home/sbcm/Dropbox/pcb-layouts/axo-427-core/ksoloti/platform_linux/bin/../lib/gcc/arm-none-eabi/4.9.3/../../../../arm-none-eabi/lib/armv7e-m/fpu/libg.a(lib_a-mallocr.o)
                0x20001d6c                __malloc_av_
 .data.__malloc_trim_threshold
                0x20002174        0x4 /home/sbcm/Dropbox/pcb-layouts/axo-427-core/ksoloti/platform_linux/bin/../lib/gcc/arm-none-eabi/4.9.3/../../../../arm-none-eabi/lib/armv7e-m/fpu/libg.a(lib_a-mallocr.o)
                0x20002174                __malloc_trim_threshold
 .data.__malloc_sbrk_base
                0x20002178        0x4 /home/sbcm/Dropbox/pcb-layouts/axo-427-core/ksoloti/platform_linux/bin/../lib/gcc/arm-none-eabi/4.9.3/../../../../arm-none-eabi/lib/armv7e-m/fpu/libg.a(lib_a-mallocr.o)
                0x20002178                __malloc_sbrk_base
                0x2000217c                . = ALIGN (0x4)
 *(.ramtext)
                0x2000217c                . = ALIGN (0x4)
                0x2000217c                PROVIDE (_edata, .)

.igot.plt       0x2000217c        0x0 load address 0x080ccf04
 .igot.plt      0x00000000        0x0 build/obj/crt0.o

.flashend       0x080ccf04        0x4
                0x080ccf04                . = ALIGN (0x4)
                0x080ccf04        0x4 LONG 0x12345678
                0x080ccf08                PROVIDE (_flash_end, .)

.bss            0x20002180     0x8ba8
                0x20002180                . = ALIGN (0x4)
                0x20002180                PROVIDE (_bss_start, .)
 *(.bss)
 .bss           0x20002180        0x0 build/obj/arm_bitreversal2.o
 .bss           0x20002180        0x0 build/obj/crt0.o
 .bss           0x20002180        0x0 build/obj/vectors.o
 .bss           0x20002180        0x0 build/obj/chcore.o
 .bss           0x20002180        0x0 build/obj/chcore_v7m.o
 .bss           0x20002180        0x0 build/obj/nvic.o
 .bss           0x20002180       0x40 build/obj/chsys.o
 .bss           0x200021c0        0x0 build/obj/chdebug.o
 .bss           0x200021c0        0x0 build/obj/chlists.o
 .bss           0x200021c0        0x0 build/obj/chvt.o
 .bss           0x200021c0        0x0 build/obj/chschd.o
 .bss           0x200021c0        0x0 build/obj/chthreads.o
 .bss           0x200021c0        0x0 build/obj/chdynamic.o
 .bss           0x200021c0        0x0 build/obj/chregistry.o
 .bss           0x200021c0        0x0 build/obj/chsem.o
 .bss           0x200021c0        0x0 build/obj/chmtx.o
 .bss           0x200021c0        0x0 build/obj/chcond.o
 .bss           0x200021c0        0x0 build/obj/chevents.o
 .bss           0x200021c0        0x0 build/obj/chmsg.o
 .bss           0x200021c0        0x0 build/obj/chmboxes.o
 .bss           0x200021c0        0x0 build/obj/chqueues.o
 .bss           0x200021c0        0x8 build/obj/chmemcore.o
 .bss           0x200021c8       0x20 build/obj/chheap.o
 .bss           0x200021e8        0x0 build/obj/chmempools.o
 .bss           0x200021e8        0x0 build/obj/hal.o
 .bss           0x200021e8        0x0 build/obj/adc.o
 .bss           0x200021e8        0x0 build/obj/can.o
 .bss           0x200021e8        0x0 build/obj/ext.o
 .bss           0x200021e8        0x0 build/obj/gpt.o
 .bss           0x200021e8        0x0 build/obj/i2c.o
 .bss           0x200021e8        0x0 build/obj/icu.o
 .bss           0x200021e8        0x0 build/obj/mac.o
 .bss           0x200021e8        0x0 build/obj/mmc_spi.o
 .bss           0x200021e8        0x0 build/obj/mmcsd.o
 .bss           0x200021e8        0x0 build/obj/pal.o
 .bss           0x200021e8        0x0 build/obj/pwm.o
 .bss           0x200021e8        0x0 build/obj/rtc.o
 .bss           0x200021e8        0x0 build/obj/sdc.o
 .bss           0x200021e8        0x0 build/obj/serial.o
 .bss           0x200021e8        0x0 build/obj/serial_usb.o
 .bss           0x200021e8        0x0 build/obj/spi.o
 .bss           0x200021e8        0x4 build/obj/tm.o
 .bss           0x200021ec        0x0 build/obj/uart.o
 .bss           0x200021ec        0x0 build/obj/usb.o
 .bss           0x200021ec       0x84 build/obj/stm32_dma.o
 .bss           0x20002270        0x0 build/obj/hal_lld.o
 .bss           0x20002270        0x0 build/obj/adc_lld.o
 .bss           0x20002270        0x0 build/obj/ext_lld_isr.o
 .bss           0x20002270        0x0 build/obj/can_lld.o
 .bss           0x20002270        0x0 build/obj/ext_lld.o
 .bss           0x20002270        0x0 build/obj/mac_lld.o
 .bss           0x20002270        0x0 build/obj/sdc_lld.o
 .bss           0x20002270        0x0 build/obj/pal_lld.o
 .bss           0x20002270        0x0 build/obj/i2c_lld.o
 .bss           0x20002270       0x1c build/obj/usb_lld.o
 .bss           0x2000228c        0x0 build/obj/rtc_lld.o
 .bss           0x2000228c        0x4 build/obj/spi_lld.o
 .bss           0x20002290        0x0 build/obj/gpt_lld.o
 .bss           0x20002290        0x0 build/obj/icu_lld.o
 .bss           0x20002290        0x0 build/obj/pwm_lld.o
 .bss           0x20002290        0x0 build/obj/serial_lld.o
 .bss           0x20002290        0x0 build/obj/uart_lld.o
 .bss           0x20002290        0x0 build/obj/board.o
 .bss           0x20002290        0x0 build/obj/fatfs_diskio.o
 .bss           0x20002290        0xc build/obj/fatfs_syscall.o
 .bss           0x2000229c        0xa build/obj/ff.o
 .bss           0x200022a6        0x0 build/obj/ccsbcs.o
 .bss           0x200022a6        0x0 build/obj/chprintf.o
 .bss           0x200022a6        0x0 build/obj/memstreams.o
 .bss           0x200022a6        0x0 build/obj/axoloti_control.o
 *fill*         0x200022a6        0x2 
 .bss           0x200022a8       0x5c build/obj/codec.o
 .bss           0x20002304        0x0 build/obj/axoloti.o
 .bss           0x20002304        0x0 build/obj/axoloti_filters.o
 .bss           0x20002304        0x0 build/obj/axoloti_math.o
 .bss           0x20002304        0x0 build/obj/axoloti_oscs.o
 .bss           0x20002304        0x0 build/obj/axoloti_board.o
 .bss           0x20002304        0x0 build/obj/midi.o
 *fill*         0x20002304        0x4 
 .bss           0x20002308      0x5e0 build/obj/ui.o
 .bss           0x200028e8        0x0 build/obj/glcdfont.o
 .bss           0x200028e8       0x50 build/obj/usbcfg.o
 .bss           0x20002938        0x1 build/obj/sdcard.o
                0x20002938                fs_ready
 *fill*         0x20002939        0x7 
 .bss           0x20002940      0x284 build/obj/pconnection.o
                0x20002b90                connected
                0x20002b94                AckPending
 .bss           0x20002bc4        0x0 build/obj/parameters.o
 .bss           0x20002bc4        0x0 build/obj/main.o
 .bss           0x20002bc4       0xd0 build/obj/patch.o
                0x20002bc8                loadFName
 .bss           0x20002c94        0x0 build/obj/flash.o
 .bss           0x20002c94        0x0 build/obj/virtual_control.o
 .bss           0x20002c94        0x0 build/obj/arm_bitreversal.o
 .bss           0x20002c94        0x0 build/obj/arm_cfft_f32.o
 .bss           0x20002c94        0x0 build/obj/arm_cfft_q15.o
 .bss           0x20002c94        0x0 build/obj/arm_cfft_q31.o
 .bss           0x20002c94        0x0 build/obj/arm_cfft_radix2_f32.o
 .bss           0x20002c94        0x0 build/obj/arm_cfft_radix2_init_f32.o
 .bss           0x20002c94        0x0 build/obj/arm_cfft_radix2_init_q15.o
 .bss           0x20002c94        0x0 build/obj/arm_cfft_radix2_init_q31.o
 .bss           0x20002c94        0x0 build/obj/arm_cfft_radix2_q15.o
 .bss           0x20002c94        0x0 build/obj/arm_cfft_radix2_q31.o
 .bss           0x20002c94        0x0 build/obj/arm_cfft_radix4_f32.o
 .bss           0x20002c94        0x0 build/obj/arm_cfft_radix4_init_f32.o
 .bss           0x20002c94        0x0 build/obj/arm_cfft_radix4_init_q15.o
 .bss           0x20002c94        0x0 build/obj/arm_cfft_radix4_init_q31.o
 .bss           0x20002c94        0x0 build/obj/arm_cfft_radix4_q15.o
 .bss           0x20002c94        0x0 build/obj/arm_cfft_radix4_q31.o
 .bss           0x20002c94        0x0 build/obj/arm_cfft_radix8_f32.o
 .bss           0x20002c94        0x0 build/obj/arm_rfft_f32.o
 .bss           0x20002c94        0x0 build/obj/arm_rfft_fast_f32.o
 .bss           0x20002c94        0x0 build/obj/arm_rfft_fast_init_f32.o
 .bss           0x20002c94        0x0 build/obj/arm_rfft_init_f32.o
 .bss           0x20002c94        0x0 build/obj/arm_rfft_init_q15.o
 .bss           0x20002c94        0x0 build/obj/arm_rfft_init_q31.o
 .bss           0x20002c94        0x0 build/obj/arm_rfft_q15.o
 .bss           0x20002c94        0x0 build/obj/arm_rfft_q31.o
 .bss           0x20002c94        0x0 build/obj/arm_mult_q31.o
 .bss           0x20002c94        0x0 build/obj/arm_mult_q15.o
 .bss           0x20002c94        0x0 build/obj/arm_mult_f32.o
 .bss           0x20002c94        0x0 build/obj/arm_shift_q31.o
 .bss           0x20002c94        0x0 build/obj/arm_shift_q15.o
 .bss           0x20002c94        0x0 build/obj/arm_scale_f32.o
 .bss           0x20002c94        0x0 build/obj/arm_cmplx_mult_cmplx_q31.o
 .bss           0x20002c94        0x0 build/obj/arm_cmplx_mult_cmplx_f32.o
 .bss           0x20002c94        0x0 build/obj/arm_cmplx_mag_q31.o
 .bss           0x20002c94        0x0 build/obj/arm_cmplx_mult_cmplx_q15.o
 .bss           0x20002c94        0x0 build/obj/arm_cmplx_mag_q15.o
 .bss           0x20002c94        0x0 build/obj/arm_cos_q31.o
 .bss           0x20002c94        0x0 build/obj/arm_sin_q31.o
 .bss           0x20002c94        0x0 build/obj/arm_sqrt_q31.o
 .bss           0x20002c94        0x0 build/obj/arm_sqrt_q15.o
 .bss           0x20002c94        0x0 build/obj/arm_fir_init_q31.o
 .bss           0x20002c94        0x0 build/obj/arm_fir_fast_q31.o
 .bss           0x20002c94        0x0 build/obj/arm_biquad_cascade_df1_32x64_init_q31.o
 .bss           0x20002c94        0x0 build/obj/arm_biquad_cascade_df1_32x64_q31.o
 .bss           0x20002c94        0x0 build/obj/arm_biquad_cascade_df1_fast_q31.o
 .bss           0x20002c94        0x0 build/obj/arm_biquad_cascade_df1_init_q31.o
 .bss           0x20002c94        0x0 build/obj/arm_biquad_cascade_df1_q31.o
 .bss           0x20002c94        0x0 build/obj/arm_fir_interpolate_init_q31.o
 .bss           0x20002c94        0x0 build/obj/arm_fir_interpolate_q31.o
 .bss           0x20002c94        0x0 build/obj/arm_fir_decimate_init_q31.o
 .bss           0x20002c94        0x0 build/obj/arm_fir_decimate_q31.o
 .bss           0x20002c94        0x0 build/obj/arm_fir_decimate_fast_q31.o
 .bss           0x20002c94        0x0 build/obj/arm_fir_lattice_init_q31.o
 .bss           0x20002c94        0x0 build/obj/arm_fir_lattice_q31.o
 .bss           0x20002c94        0x0 build/obj/arm_iir_lattice_init_q31.o
 .bss           0x20002c94        0x0 build/obj/arm_iir_lattice_q31.o
 .bss           0x20002c94        0x0 build/obj/arm_common_tables.o
 .bss           0x20002c94        0x0 build/obj/arm_const_structs.o
 *fill*         0x20002c94        0x4 
 .bss           0x20002c98      0x3e8 build/obj/usbh_core.o
 .bss           0x20003080        0x0 build/obj/usbh_ctlreq.o
 .bss           0x20003080        0x0 build/obj/usbh_ioreq.o
 .bss           0x20003080        0x0 build/obj/usbh_pipes.o
 .bss           0x20003080        0x0 build/obj/usbh_hid.o
 .bss           0x20003080        0x0 build/obj/usbh_hid_keybd.o
 .bss           0x20003080        0x0 build/obj/usbh_hid_mouse.o
 .bss           0x20003080        0x0 build/obj/usbh_hid_parser.o
 .bss           0x20003080        0x4 build/obj/stm32f4xx_ll_usb.o
 .bss           0x20003084        0x0 build/obj/stm32f4xx_hal_gpio.o
 .bss           0x20003084        0x0 build/obj/stm32f4xx_hal_cortex.o
 .bss           0x20003084        0x0 build/obj/stm32f4xx_hal_hcd.o
 .bss           0x20003084        0x0 build/obj/stm32f4xx_hal_i2c.o
 .bss           0x20003084      0x102 build/obj/usbh_midi_core.o
 .bss           0x20003186        0x0 build/obj/usbh_vendor.o
 .bss           0x20003186        0x1 build/obj/usbh_conf.o
                0x20003186                memused
 .bss           0x20003187        0x0 build/obj/serial_midi.o
 .bss           0x20003187        0x0 build/obj/bulk_usb.o
 .bss           0x20003187        0x0 build/obj/midi_usb.o
 *fill*         0x20003187        0x1 
 .bss           0x20003188      0x260 build/obj/spilink.o
                0x20003188                spilink_master_active
                0x200033e0                pThreadSpilink
                0x200033e4                frameno
 .bss           0x200033e8        0x0 build/obj/spidb.o
 .bss           0x200033e8        0x0 build/obj/crc32.o
 .bss           0x200033e8        0x0 build/obj/exceptions.o
 .bss           0x200033e8        0x0 build/obj/watchdog.o
 .bss           0x200033e8      0x258 build/obj/sysmon.o
                0x200033e8                errorflags
                0x200033ec                repeat
                0x200033ed                sdcsw_prev
 .bss           0x20003640       0x14 build/obj/axoloti_memory.o
 .bss           0x20003654        0x0 build/obj/units.o
 .bss           0x20003654        0x0 build/obj/atan.o
 .bss           0x20003654        0x0 build/obj/random.o
 .bss           0x20003654        0x0 build/obj/mutable_resources.o
 .bss           0x20003654        0x0 build/obj/braids_resources.o
 .bss           0x20003654        0x0 build/obj/analog_oscillator.o
 .bss           0x20003654        0x0 build/obj/digital_oscillator.o
 .bss           0x20003654        0x0 build/obj/macro_oscillator.o
 .bss           0x20003654        0x0 build/obj/warps_resources.o
 .bss           0x20003654        0x0 build/obj/filter_bank.o
 .bss           0x20003654        0x0 build/obj/modulator.o
 .bss           0x20003654        0x0 build/obj/oscillator.o
 .bss           0x20003654        0x0 build/obj/vocoder.o
 .bss           0x20003654        0x0 build/obj/axoloti_mi.o
 .bss           0x20003654        0x0 build/obj/multistage_envelope.o
 .bss           0x20003654        0x0 build/obj/ominous_voice.o
 .bss           0x20003654        0x0 build/obj/resonator.o
 .bss           0x20003654        0x0 build/obj/string.o
 .bss           0x20003654        0x0 build/obj/tube.o
 .bss           0x20003654        0x0 build/obj/exciter.o
 .bss           0x20003654        0x8 build/obj/elements_resources.o
                0x20003654                elements::sample_table
                0x2000365c                elements::lookup_table_uint32_table
 .bss           0x2000365c        0x0 build/obj/part.o
 .bss           0x2000365c        0x0 build/obj/voice.o
 .bss           0x2000365c        0x0 build/obj/clouds_resources.o
 .bss           0x2000365c        0x0 build/obj/correlator.o
 .bss           0x2000365c        0x0 build/obj/mu_law.o
 .bss           0x2000365c        0x0 build/obj/granular_processor.o
 .bss           0x2000365c        0x0 build/obj/frame_transformation.o
 .bss           0x2000365c        0x0 build/obj/phase_vocoder.o
 .bss           0x2000365c        0x0 build/obj/stft.o
 .bss           0x2000365c        0x0 build/obj/rings_resources.o
                0x2000365c                rings::lookup_table_int16_table
                0x2000365c                rings::lookup_table_uint32_table
 .bss           0x2000365c        0x0 build/obj/streams_resources.o
 .bss           0x2000365c        0x0 build/obj/compressor.o
 .bss           0x2000365c        0x0 build/obj/envelope.o
 .bss           0x2000365c        0x0 build/obj/follower.o
 .bss           0x2000365c        0x0 build/obj/lorenz_generator.o
 .bss           0x2000365c        0x0 build/obj/processor.o
 .bss           0x2000365c        0x0 build/obj/svf.o
 .bss           0x2000365c        0x0 build/obj/vactrol.o
 .bss           0x2000365c        0x0 /home/sbcm/Dropbox/pcb-layouts/axo-427-core/ksoloti/platform_linux/bin/../lib/gcc/arm-none-eabi/4.9.3/../../../../arm-none-eabi/lib/armv7e-m/fpu/libm.a(lib_a-sf_cos.o)
 .bss           0x2000365c        0x0 /home/sbcm/Dropbox/pcb-layouts/axo-427-core/ksoloti/platform_linux/bin/../lib/gcc/arm-none-eabi/4.9.3/../../../../arm-none-eabi/lib/armv7e-m/fpu/libm.a(lib_a-sf_sin.o)
 .bss           0x2000365c        0x0 /home/sbcm/Dropbox/pcb-layouts/axo-427-core/ksoloti/platform_linux/bin/../lib/gcc/arm-none-eabi/4.9.3/../../../../arm-none-eabi/lib/armv7e-m/fpu/libm.a(lib_a-w_log.o)
 .bss           0x2000365c        0x0 /home/sbcm/Dropbox/pcb-layouts/axo-427-core/ksoloti/platform_linux/bin/../lib/gcc/arm-none-eabi/4.9.3/../../../../arm-none-eabi/lib/armv7e-m/fpu/libm.a(lib_a-w_pow.o)
 .bss           0x2000365c        0x0 /home/sbcm/Dropbox/pcb-layouts/axo-427-core/ksoloti/platform_linux/bin/../lib/gcc/arm-none-eabi/4.9.3/../../../../arm-none-eabi/lib/armv7e-m/fpu/libm.a(lib_a-wf_pow.o)
 .bss           0x2000365c        0x0 /home/sbcm/Dropbox/pcb-layouts/axo-427-core/ksoloti/platform_linux/bin/../lib/gcc/arm-none-eabi/4.9.3/../../../../arm-none-eabi/lib/armv7e-m/fpu/libm.a(lib_a-e_log.o)
 .bss           0x2000365c        0x0 /home/sbcm/Dropbox/pcb-layouts/axo-427-core/ksoloti/platform_linux/bin/../lib/gcc/arm-none-eabi/4.9.3/../../../../arm-none-eabi/lib/armv7e-m/fpu/libm.a(lib_a-e_pow.o)
 .bss           0x2000365c        0x0 /home/sbcm/Dropbox/pcb-layouts/axo-427-core/ksoloti/platform_linux/bin/../lib/gcc/arm-none-eabi/4.9.3/../../../../arm-none-eabi/lib/armv7e-m/fpu/libm.a(lib_a-e_sqrt.o)
 .bss           0x2000365c        0x0 /home/sbcm/Dropbox/pcb-layouts/axo-427-core/ksoloti/platform_linux/bin/../lib/gcc/arm-none-eabi/4.9.3/../../../../arm-none-eabi/lib/armv7e-m/fpu/libm.a(lib_a-ef_pow.o)
 .bss           0x2000365c        0x0 /home/sbcm/Dropbox/pcb-layouts/axo-427-core/ksoloti/platform_linux/bin/../lib/gcc/arm-none-eabi/4.9.3/../../../../arm-none-eabi/lib/armv7e-m/fpu/libm.a(lib_a-ef_rem_pio2.o)
 .bss           0x2000365c        0x0 /home/sbcm/Dropbox/pcb-layouts/axo-427-core/ksoloti/platform_linux/bin/../lib/gcc/arm-none-eabi/4.9.3/../../../../arm-none-eabi/lib/armv7e-m/fpu/libm.a(lib_a-ef_sqrt.o)
 .bss           0x2000365c        0x0 /home/sbcm/Dropbox/pcb-layouts/axo-427-core/ksoloti/platform_linux/bin/../lib/gcc/arm-none-eabi/4.9.3/../../../../arm-none-eabi/lib/armv7e-m/fpu/libm.a(lib_a-kf_cos.o)
 .bss           0x2000365c        0x0 /home/sbcm/Dropbox/pcb-layouts/axo-427-core/ksoloti/platform_linux/bin/../lib/gcc/arm-none-eabi/4.9.3/../../../../arm-none-eabi/lib/armv7e-m/fpu/libm.a(lib_a-kf_rem_pio2.o)
 .bss           0x2000365c        0x0 /home/sbcm/Dropbox/pcb-layouts/axo-427-core/ksoloti/platform_linux/bin/../lib/gcc/arm-none-eabi/4.9.3/../../../../arm-none-eabi/lib/armv7e-m/fpu/libm.a(lib_a-kf_sin.o)
 .bss           0x2000365c        0x0 /home/sbcm/Dropbox/pcb-layouts/axo-427-core/ksoloti/platform_linux/bin/../lib/gcc/arm-none-eabi/4.9.3/../../../../arm-none-eabi/lib/armv7e-m/fpu/libm.a(lib_a-s_fabs.o)
 .bss           0x2000365c        0x0 /home/sbcm/Dropbox/pcb-layouts/axo-427-core/ksoloti/platform_linux/bin/../lib/gcc/arm-none-eabi/4.9.3/../../../../arm-none-eabi/lib/armv7e-m/fpu/libm.a(lib_a-s_finite.o)
 .bss           0x2000365c        0x0 /home/sbcm/Dropbox/pcb-layouts/axo-427-core/ksoloti/platform_linux/bin/../lib/gcc/arm-none-eabi/4.9.3/../../../../arm-none-eabi/lib/armv7e-m/fpu/libm.a(lib_a-s_fpclassify.o)
 .bss           0x2000365c        0x0 /home/sbcm/Dropbox/pcb-layouts/axo-427-core/ksoloti/platform_linux/bin/../lib/gcc/arm-none-eabi/4.9.3/../../../../arm-none-eabi/lib/armv7e-m/fpu/libm.a(lib_a-s_lib_ver.o)
 .bss           0x2000365c        0x0 /home/sbcm/Dropbox/pcb-layouts/axo-427-core/ksoloti/platform_linux/bin/../lib/gcc/arm-none-eabi/4.9.3/../../../../arm-none-eabi/lib/armv7e-m/fpu/libm.a(lib_a-s_matherr.o)
 .bss           0x2000365c        0x0 /home/sbcm/Dropbox/pcb-layouts/axo-427-core/ksoloti/platform_linux/bin/../lib/gcc/arm-none-eabi/4.9.3/../../../../arm-none-eabi/lib/armv7e-m/fpu/libm.a(lib_a-s_nan.o)
 .bss           0x2000365c        0x0 /home/sbcm/Dropbox/pcb-layouts/axo-427-core/ksoloti/platform_linux/bin/../lib/gcc/arm-none-eabi/4.9.3/../../../../arm-none-eabi/lib/armv7e-m/fpu/libm.a(lib_a-s_rint.o)
 .bss           0x2000365c        0x0 /home/sbcm/Dropbox/pcb-layouts/axo-427-core/ksoloti/platform_linux/bin/../lib/gcc/arm-none-eabi/4.9.3/../../../../arm-none-eabi/lib/armv7e-m/fpu/libm.a(lib_a-s_scalbn.o)
 .bss           0x2000365c        0x0 /home/sbcm/Dropbox/pcb-layouts/axo-427-core/ksoloti/platform_linux/bin/../lib/gcc/arm-none-eabi/4.9.3/../../../../arm-none-eabi/lib/armv7e-m/fpu/libm.a(lib_a-sf_fabs.o)
 .bss           0x2000365c        0x0 /home/sbcm/Dropbox/pcb-layouts/axo-427-core/ksoloti/platform_linux/bin/../lib/gcc/arm-none-eabi/4.9.3/../../../../arm-none-eabi/lib/armv7e-m/fpu/libm.a(lib_a-sf_finite.o)
 .bss           0x2000365c        0x0 /home/sbcm/Dropbox/pcb-layouts/axo-427-core/ksoloti/platform_linux/bin/../lib/gcc/arm-none-eabi/4.9.3/../../../../arm-none-eabi/lib/armv7e-m/fpu/libm.a(lib_a-sf_floor.o)
 .bss           0x2000365c        0x0 /home/sbcm/Dropbox/pcb-layouts/axo-427-core/ksoloti/platform_linux/bin/../lib/gcc/arm-none-eabi/4.9.3/../../../../arm-none-eabi/lib/armv7e-m/fpu/libm.a(lib_a-sf_fpclassify.o)
 .bss           0x2000365c        0x0 /home/sbcm/Dropbox/pcb-layouts/axo-427-core/ksoloti/platform_linux/bin/../lib/gcc/arm-none-eabi/4.9.3/../../../../arm-none-eabi/lib/armv7e-m/fpu/libm.a(lib_a-sf_nan.o)
 .bss           0x2000365c        0x0 /home/sbcm/Dropbox/pcb-layouts/axo-427-core/ksoloti/platform_linux/bin/../lib/gcc/arm-none-eabi/4.9.3/../../../../arm-none-eabi/lib/armv7e-m/fpu/libm.a(lib_a-sf_scalbn.o)
 .bss           0x2000365c        0x0 /home/sbcm/Dropbox/pcb-layouts/axo-427-core/ksoloti/platform_linux/bin/../lib/gcc/arm-none-eabi/4.9.3/../../../../arm-none-eabi/lib/armv7e-m/fpu/libm.a(lib_a-s_copysign.o)
 .bss           0x2000365c        0x0 /home/sbcm/Dropbox/pcb-layouts/axo-427-core/ksoloti/platform_linux/bin/../lib/gcc/arm-none-eabi/4.9.3/../../../../arm-none-eabi/lib/armv7e-m/fpu/libm.a(lib_a-sf_copysign.o)
 .bss           0x2000365c        0x0 /home/sbcm/Dropbox/pcb-layouts/axo-427-core/ksoloti/platform_linux/bin/../lib/gcc/arm-none-eabi/4.9.3/armv7e-m/fpu/libgcc.a(_arm_addsubdf3.o)
 .bss           0x2000365c        0x0 /home/sbcm/Dropbox/pcb-layouts/axo-427-core/ksoloti/platform_linux/bin/../lib/gcc/arm-none-eabi/4.9.3/armv7e-m/fpu/libgcc.a(_arm_muldivdf3.o)
 .bss           0x2000365c        0x0 /home/sbcm/Dropbox/pcb-layouts/axo-427-core/ksoloti/platform_linux/bin/../lib/gcc/arm-none-eabi/4.9.3/armv7e-m/fpu/libgcc.a(_arm_cmpdf2.o)
 .bss           0x2000365c        0x0 /home/sbcm/Dropbox/pcb-layouts/axo-427-core/ksoloti/platform_linux/bin/../lib/gcc/arm-none-eabi/4.9.3/armv7e-m/fpu/libgcc.a(_arm_fixdfsi.o)
 .bss           0x2000365c        0x0 /home/sbcm/Dropbox/pcb-layouts/axo-427-core/ksoloti/platform_linux/bin/../lib/gcc/arm-none-eabi/4.9.3/armv7e-m/fpu/libgcc.a(_arm_fixunsdfsi.o)
 .bss           0x2000365c        0x0 /home/sbcm/Dropbox/pcb-layouts/axo-427-core/ksoloti/platform_linux/bin/../lib/gcc/arm-none-eabi/4.9.3/armv7e-m/fpu/libgcc.a(_arm_truncdfsf2.o)
 .bss           0x2000365c        0x0 /home/sbcm/Dropbox/pcb-layouts/axo-427-core/ksoloti/platform_linux/bin/../lib/gcc/arm-none-eabi/4.9.3/armv7e-m/fpu/libgcc.a(unwind-arm.o)
 .bss           0x2000365c        0x0 /home/sbcm/Dropbox/pcb-layouts/axo-427-core/ksoloti/platform_linux/bin/../lib/gcc/arm-none-eabi/4.9.3/armv7e-m/fpu/libgcc.a(libunwind.o)
 .bss           0x2000365c        0x0 /home/sbcm/Dropbox/pcb-layouts/axo-427-core/ksoloti/platform_linux/bin/../lib/gcc/arm-none-eabi/4.9.3/armv7e-m/fpu/libgcc.a(pr-support.o)
 .bss           0x2000365c        0x0 /home/sbcm/Dropbox/pcb-layouts/axo-427-core/ksoloti/platform_linux/bin/../lib/gcc/arm-none-eabi/4.9.3/../../../../arm-none-eabi/lib/armv7e-m/fpu/libg.a(lib_a-abort.o)
 .bss           0x2000365c        0x0 /home/sbcm/Dropbox/pcb-layouts/axo-427-core/ksoloti/platform_linux/bin/../lib/gcc/arm-none-eabi/4.9.3/../../../../arm-none-eabi/lib/armv7e-m/fpu/libg.a(lib_a-errno.o)
 .bss           0x2000365c        0x0 /home/sbcm/Dropbox/pcb-layouts/axo-427-core/ksoloti/platform_linux/bin/../lib/gcc/arm-none-eabi/4.9.3/../../../../arm-none-eabi/lib/armv7e-m/fpu/libg.a(lib_a-impure.o)
 .bss           0x2000365c        0x0 /home/sbcm/Dropbox/pcb-layouts/axo-427-core/ksoloti/platform_linux/bin/../lib/gcc/arm-none-eabi/4.9.3/../../../../arm-none-eabi/lib/armv7e-m/fpu/libg.a(lib_a-memcpy.o)
 .bss           0x2000365c        0x0 /home/sbcm/Dropbox/pcb-layouts/axo-427-core/ksoloti/platform_linux/bin/../lib/gcc/arm-none-eabi/4.9.3/../../../../arm-none-eabi/lib/armv7e-m/fpu/libg.a(lib_a-memmove.o)
 .bss           0x2000365c        0x0 /home/sbcm/Dropbox/pcb-layouts/axo-427-core/ksoloti/platform_linux/bin/../lib/gcc/arm-none-eabi/4.9.3/../../../../arm-none-eabi/lib/armv7e-m/fpu/libg.a(lib_a-memset.o)
 .bss           0x2000365c        0x0 /home/sbcm/Dropbox/pcb-layouts/axo-427-core/ksoloti/platform_linux/bin/../lib/gcc/arm-none-eabi/4.9.3/../../../../arm-none-eabi/lib/armv7e-m/fpu/libg.a(lib_a-signal.o)
 .bss           0x2000365c        0x0 /home/sbcm/Dropbox/pcb-layouts/axo-427-core/ksoloti/platform_linux/bin/../lib/gcc/arm-none-eabi/4.9.3/../../../../arm-none-eabi/lib/armv7e-m/fpu/libg.a(lib_a-signalr.o)
 .bss           0x2000365c        0x0 /home/sbcm/Dropbox/pcb-layouts/axo-427-core/ksoloti/platform_linux/bin/../lib/gcc/arm-none-eabi/4.9.3/../../../../arm-none-eabi/lib/armv7e-m/fpu/libg.a(lib_a-stpcpy.o)
 .bss           0x2000365c        0x0 /home/sbcm/Dropbox/pcb-layouts/axo-427-core/ksoloti/platform_linux/bin/../lib/gcc/arm-none-eabi/4.9.3/../../../../arm-none-eabi/lib/armv7e-m/fpu/libg.a(lib_a-strcpy.o)
 .bss           0x2000365c        0x0 /home/sbcm/Dropbox/pcb-layouts/axo-427-core/ksoloti/platform_linux/bin/../lib/gcc/arm-none-eabi/4.9.3/../../../../arm-none-eabi/lib/armv7e-m/fpu/libg.a(lib_a-strlen.o)
 .bss           0x2000365c        0x0 /home/sbcm/Dropbox/pcb-layouts/axo-427-core/ksoloti/platform_linux/bin/../lib/gcc/arm-none-eabi/4.9.3/../../../../arm-none-eabi/lib/armv7e-m/fpu/libg.a(lib_a-mallocr.o)
 .bss           0x2000365c        0x0 /home/sbcm/Dropbox/pcb-layouts/axo-427-core/ksoloti/platform_linux/bin/../lib/gcc/arm-none-eabi/4.9.3/../../../../arm-none-eabi/lib/armv7e-m/fpu/libg.a(lib_a-mlock.o)
 .bss           0x2000365c        0x0 /home/sbcm/Dropbox/pcb-layouts/axo-427-core/ksoloti/platform_linux/bin/../lib/gcc/arm-none-eabi/4.9.3/../../../../arm-none-eabi/lib/armv7e-m/fpu/libg.a(lib_a-reent.o)
 .bss           0x2000365c        0x0 /home/sbcm/Dropbox/pcb-layouts/axo-427-core/ksoloti/platform_linux/bin/../lib/gcc/arm-none-eabi/4.9.3/../../../../arm-none-eabi/lib/armv7e-m/fpu/libg.a(lib_a-sbrkr.o)
 .bss           0x2000365c        0x0 /home/sbcm/Dropbox/pcb-layouts/axo-427-core/ksoloti/platform_linux/bin/../lib/gcc/arm-none-eabi/4.9.3/../../../../arm-none-eabi/lib/armv7e-m/fpu/libg.a(lib_a-freer.o)
                0x2000365c                . = ALIGN (0x4)
 *(.bss.*)
 .bss.__malloc_max_total_mem
                0x2000365c        0x4 /home/sbcm/Dropbox/pcb-layouts/axo-427-core/ksoloti/platform_linux/bin/../lib/gcc/arm-none-eabi/4.9.3/../../../../arm-none-eabi/lib/armv7e-m/fpu/libg.a(lib_a-mallocr.o)
                0x2000365c                __malloc_max_total_mem
 .bss.__malloc_max_sbrked_mem
                0x20003660        0x4 /home/sbcm/Dropbox/pcb-layouts/axo-427-core/ksoloti/platform_linux/bin/../lib/gcc/arm-none-eabi/4.9.3/../../../../arm-none-eabi/lib/armv7e-m/fpu/libg.a(lib_a-mallocr.o)
                0x20003660                __malloc_max_sbrked_mem
 .bss.__malloc_top_pad
                0x20003664        0x4 /home/sbcm/Dropbox/pcb-layouts/axo-427-core/ksoloti/platform_linux/bin/../lib/gcc/arm-none-eabi/4.9.3/../../../../arm-none-eabi/lib/armv7e-m/fpu/libg.a(lib_a-mallocr.o)
                0x20003664                __malloc_top_pad
 .bss.__malloc_current_mallinfo
                0x20003668       0x28 /home/sbcm/Dropbox/pcb-layouts/axo-427-core/ksoloti/platform_linux/bin/../lib/gcc/arm-none-eabi/4.9.3/../../../../arm-none-eabi/lib/armv7e-m/fpu/libg.a(lib_a-mallocr.o)
                0x20003668                __malloc_current_mallinfo
                0x20003690                . = ALIGN (0x4)
 *(COMMON)
 COMMON         0x20003690      0x160 build/obj/chsys.o
                0x20003690                _idle_thread_wa
 COMMON         0x200037f0       0x10 build/obj/chvt.o
                0x200037f0                vtlist
 COMMON         0x20003800       0x1c build/obj/chschd.o
                0x20003800                rlist
 COMMON         0x2000381c       0x34 build/obj/adc_lld.o
                0x2000381c                ADCD1
 COMMON         0x20003850       0x48 build/obj/sdc_lld.o
                0x20003850                SDCD1
 COMMON         0x20003898       0x38 build/obj/i2c_lld.o
                0x20003898                I2CD1
 COMMON         0x200038d0      0x238 build/obj/usb_lld.o
                0x200038d0                USBD1
 COMMON         0x20003b08       0x60 build/obj/spi_lld.o
                0x20003b08                SPID3
                0x20003b38                SPID1
 COMMON         0x20003b68       0x78 build/obj/pwm_lld.o
                0x20003b68                PWMD5
                0x20003b7c                PWMD2
                0x20003b90                PWMD8
                0x20003ba4                PWMD4
                0x20003bb8                PWMD1
                0x20003bcc                PWMD3
 COMMON         0x20003be0      0x260 build/obj/serial_lld.o
                0x20003be0                SD2
                0x20003c78                SD3
                0x20003d10                SD6
                0x20003da8                SD1
 COMMON         0x20003e40        0xc build/obj/codec.o
                0x20003e40                sai_a_dma
                0x20003e44                codec_interrupt_timestamp
                0x20003e48                sai_b_dma
 COMMON         0x20003e4c     0x580e build/obj/axoloti_math.o
                0x20003e4c                expt
                0x2000404c                pitcht
                0x20004450                sine2t
                0x20008454                sinet
                0x20008c58                logt
                0x20008e58                windowt
 *fill*         0x2000965a        0x2 
 COMMON         0x2000965c      0x600 build/obj/ui.o
                0x2000965c                ObjectKvpRoot
                0x20009660                ADCkvps
                0x200096a8                ObjectKvps
                0x20009aa8                EncBuffer
                0x20009aac                KvpsHead
                0x20009ac4                memp
                0x20009ac8                Btn_Nav_Or
                0x20009acc                Btn_Nav_And
                0x20009ad0                TmpMenuKvps
                0x20009c38                Btn_Nav_PrevStates
                0x20009c3c                KvpsDisplay
                0x20009c40                LoadMenu
                0x20009c58                Btn_Nav_CurStates
 COMMON         0x20009c5c      0x330 build/obj/usbcfg.o
                0x20009c5c                MDU1
                0x20009d34                BDU1
 COMMON         0x20009f8c      0x238 build/obj/sdcard.o
                0x20009f8c                SDC_FS
 COMMON         0x2000a1c4      0x130 build/obj/pconnection.o
                0x2000a1c4                fwid
                0x2000a1c8                pFileSize
                0x2000a1cc                FileName
                0x2000a2cc                pFile
 COMMON         0x2000a2f4       0x44 build/obj/patch.o
                0x2000a2f4                patchStatus
                0x2000a2f8                dspLoadPct
                0x2000a2fc                patchMeta
                0x2000a334                DspTime
 COMMON         0x2000a338       0x17 build/obj/usbh_hid_keybd.o
                0x2000a338                keybd_report_data
                0x2000a340                keybd_info
 *fill*         0x2000a34f        0x1 
 COMMON         0x2000a350        0xc build/obj/usbh_hid_mouse.o
                0x2000a350                mouse_info
                0x2000a358                mouse_report_data
 COMMON         0x2000a35c        0x8 build/obj/usbh_midi_core.o
                0x2000a35c                MIDI_Setup
 COMMON         0x2000a364      0x9a1 build/obj/usbh_conf.o
                0x2000a364                hUSBHost
                0x2000a964                hid_mouse_y
                0x2000a968                hHCD
                0x2000abfc                hid_buttons
                0x2000ac04                mem
                0x2000ad04                hid_mouse_x
 COMMON         0x2000ad05        0x6 build/obj/serial_midi.o
                0x2000ad05                MidiInChannel
                0x2000ad06                MidiByte0
                0x2000ad07                MidiByte1
                0x2000ad08                MidiByte2
                0x2000ad09                MidiNumData
                0x2000ad0a                MidiCurData
 *fill*         0x2000ad0b        0x1 
 COMMON         0x2000ad0c        0xc build/obj/spilink.o
                0x2000ad0c                spilink_rx_samples
                0x2000ad10                spilink_toggle
                0x2000ad14                spilink_tx_samples
 COMMON         0x2000ad18        0x4 build/obj/spidb.o
                0x2000ad18                spidb_interrupt_timestamp
 COMMON         0x2000ad1c        0x8 build/obj/sysmon.o
                0x2000ad1c                v50_max
                0x2000ad1e                pattern_index
                0x2000ad20                voltage_50
                0x2000ad22                v50_min
 COMMON         0x2000ad24        0x4 /home/sbcm/Dropbox/pcb-layouts/axo-427-core/ksoloti/platform_linux/bin/../lib/gcc/arm-none-eabi/4.9.3/../../../../arm-none-eabi/lib/armv7e-m/fpu/libg.a(lib_a-reent.o)
                0x2000ad24                errno
                0x2000ad28                . = ALIGN (0x4)
                0x2000ad28                PROVIDE (_bss_end, .)

.sram2          0x2001e000      0xaa8
 *(.sram2)
 .sram2         0x2001e000      0x480 build/obj/axoloti_control.o
                0x2001e000                lcd_buffer
                0x2001e400                led_buffer
 .sram2         0x2001e480      0x200 build/obj/codec.o
                0x2001e480                rbuf2
                0x2001e500                buf
                0x2001e580                rbuf
                0x2001e600                buf2
 .sram2         0x2001e680       0x26 build/obj/axoloti_board.o
                0x2001e680                adcvalues
 *fill*         0x2001e6a6        0x2 
 .sram2         0x2001e6a8      0x400 build/obj/sdcard.o
                0x2001e6a8                fbuff
 *(.sram2.*)

.sram3          0x20020000      0x640
 *(.sram3)
 .sram3         0x20020000      0x640 build/obj/spilink.o
                0x20020000                spilink_rx
                0x20020320                spilink_tx
 *(.sram3.*)

.ccmramend      0x1000c800     0x1fc0
 *(.ccmramend)
 .ccmramend     0x1000c800     0x1d70 build/obj/patch.o
 .ccmramend     0x1000e570      0x250 build/obj/serial_midi.o
 *(.ccmramend.*)

.sdram
 *(.sdram)
 *(.sdram.*)
                0x1000e7c0                PROVIDE (end, .)
                0x1000e7c0                _end = .
                0x1000e7c0                __heap_base__ = _end
                0x2000b000                __heap_end__ = __ram_end__
LOAD /home/sbcm/Dropbox/pcb-layouts/axo-427-core/ksoloti/platform_linux/bin/../lib/gcc/arm-none-eabi/4.9.3/../../../../arm-none-eabi/lib/armv7e-m/fpu/libm.a
START GROUP
LOAD /home/sbcm/Dropbox/pcb-layouts/axo-427-core/ksoloti/platform_linux/bin/../lib/gcc/arm-none-eabi/4.9.3/armv7e-m/fpu/libgcc.a
LOAD /home/sbcm/Dropbox/pcb-layouts/axo-427-core/ksoloti/platform_linux/bin/../lib/gcc/arm-none-eabi/4.9.3/../../../../arm-none-eabi/lib/armv7e-m/fpu/libg.a
LOAD /home/sbcm/Dropbox/pcb-layouts/axo-427-core/ksoloti/platform_linux/bin/../lib/gcc/arm-none-eabi/4.9.3/../../../../arm-none-eabi/lib/armv7e-m/fpu/libc.a
END GROUP
OUTPUT(build/axoloti.elf elf32-littlearm)

.ARM.attributes
                0x00000000       0x35
 .ARM.attributes
                0x00000000       0x21 build/obj/arm_bitreversal2.o
 .ARM.attributes
                0x00000021       0x39 build/obj/crt0.o
 .ARM.attributes
                0x0000005a       0x39 build/obj/vectors.o
 .ARM.attributes
                0x00000093       0x39 build/obj/chcore.o
 .ARM.attributes
                0x000000cc       0x39 build/obj/chcore_v7m.o
 .ARM.attributes
                0x00000105       0x39 build/obj/nvic.o
 .ARM.attributes
                0x0000013e       0x39 build/obj/chsys.o
 .ARM.attributes
                0x00000177       0x39 build/obj/chdebug.o
 .ARM.attributes
                0x000001b0       0x39 build/obj/chlists.o
 .ARM.attributes
                0x000001e9       0x39 build/obj/chvt.o
 .ARM.attributes
                0x00000222       0x39 build/obj/chschd.o
 .ARM.attributes
                0x0000025b       0x39 build/obj/chthreads.o
 .ARM.attributes
                0x00000294       0x39 build/obj/chdynamic.o
 .ARM.attributes
                0x000002cd       0x39 build/obj/chregistry.o
 .ARM.attributes
                0x00000306       0x39 build/obj/chsem.o
 .ARM.attributes
                0x0000033f       0x39 build/obj/chmtx.o
 .ARM.attributes
                0x00000378       0x39 build/obj/chcond.o
 .ARM.attributes
                0x000003b1       0x39 build/obj/chevents.o
 .ARM.attributes
                0x000003ea       0x39 build/obj/chmsg.o
 .ARM.attributes
                0x00000423       0x39 build/obj/chmboxes.o
 .ARM.attributes
                0x0000045c       0x39 build/obj/chqueues.o
 .ARM.attributes
                0x00000495       0x39 build/obj/chmemcore.o
 .ARM.attributes
                0x000004ce       0x39 build/obj/chheap.o
 .ARM.attributes
                0x00000507       0x39 build/obj/chmempools.o
 .ARM.attributes
                0x00000540       0x39 build/obj/hal.o
 .ARM.attributes
                0x00000579       0x39 build/obj/adc.o
 .ARM.attributes
                0x000005b2       0x39 build/obj/can.o
 .ARM.attributes
                0x000005eb       0x39 build/obj/ext.o
 .ARM.attributes
                0x00000624       0x39 build/obj/gpt.o
 .ARM.attributes
                0x0000065d       0x39 build/obj/i2c.o
 .ARM.attributes
                0x00000696       0x39 build/obj/icu.o
 .ARM.attributes
                0x000006cf       0x39 build/obj/mac.o
 .ARM.attributes
                0x00000708       0x39 build/obj/mmc_spi.o
 .ARM.attributes
                0x00000741       0x39 build/obj/mmcsd.o
 .ARM.attributes
                0x0000077a       0x39 build/obj/pal.o
 .ARM.attributes
                0x000007b3       0x39 build/obj/pwm.o
 .ARM.attributes
                0x000007ec       0x39 build/obj/rtc.o
 .ARM.attributes
                0x00000825       0x39 build/obj/sdc.o
 .ARM.attributes
                0x0000085e       0x39 build/obj/serial.o
 .ARM.attributes
                0x00000897       0x39 build/obj/serial_usb.o
 .ARM.attributes
                0x000008d0       0x39 build/obj/spi.o
 .ARM.attributes
                0x00000909       0x39 build/obj/tm.o
 .ARM.attributes
                0x00000942       0x39 build/obj/uart.o
 .ARM.attributes
                0x0000097b       0x39 build/obj/usb.o
 .ARM.attributes
                0x000009b4       0x39 build/obj/stm32_dma.o
 .ARM.attributes
                0x000009ed       0x39 build/obj/hal_lld.o
 .ARM.attributes
                0x00000a26       0x39 build/obj/adc_lld.o
 .ARM.attributes
                0x00000a5f       0x39 build/obj/ext_lld_isr.o
 .ARM.attributes
                0x00000a98       0x39 build/obj/can_lld.o
 .ARM.attributes
                0x00000ad1       0x39 build/obj/ext_lld.o
 .ARM.attributes
                0x00000b0a       0x39 build/obj/mac_lld.o
 .ARM.attributes
                0x00000b43       0x39 build/obj/sdc_lld.o
 .ARM.attributes
                0x00000b7c       0x39 build/obj/pal_lld.o
 .ARM.attributes
                0x00000bb5       0x39 build/obj/i2c_lld.o
 .ARM.attributes
                0x00000bee       0x39 build/obj/usb_lld.o
 .ARM.attributes
                0x00000c27       0x39 build/obj/rtc_lld.o
 .ARM.attributes
                0x00000c60       0x39 build/obj/spi_lld.o
 .ARM.attributes
                0x00000c99       0x39 build/obj/gpt_lld.o
 .ARM.attributes
                0x00000cd2       0x39 build/obj/icu_lld.o
 .ARM.attributes
                0x00000d0b       0x39 build/obj/pwm_lld.o
 .ARM.attributes
                0x00000d44       0x39 build/obj/serial_lld.o
 .ARM.attributes
                0x00000d7d       0x39 build/obj/uart_lld.o
 .ARM.attributes
                0x00000db6       0x39 build/obj/board.o
 .ARM.attributes
                0x00000def       0x39 build/obj/fatfs_diskio.o
 .ARM.attributes
                0x00000e28       0x39 build/obj/fatfs_syscall.o
 .ARM.attributes
                0x00000e61       0x39 build/obj/ff.o
 .ARM.attributes
                0x00000e9a       0x39 build/obj/ccsbcs.o
 .ARM.attributes
                0x00000ed3       0x39 build/obj/chprintf.o
 .ARM.attributes
                0x00000f0c       0x39 build/obj/memstreams.o
 .ARM.attributes
                0x00000f45       0x39 build/obj/axoloti_control.o
 .ARM.attributes
                0x00000f7e       0x39 build/obj/codec.o
 .ARM.attributes
                0x00000fb7       0x39 build/obj/axoloti.o
 .ARM.attributes
                0x00000ff0       0x39 build/obj/axoloti_filters.o
 .ARM.attributes
                0x00001029       0x39 build/obj/axoloti_math.o
 .ARM.attributes
                0x00001062       0x39 build/obj/axoloti_oscs.o
 .ARM.attributes
                0x0000109b       0x39 build/obj/axoloti_board.o
 .ARM.attributes
                0x000010d4       0x39 build/obj/midi.o
 .ARM.attributes
                0x0000110d       0x39 build/obj/ui.o
 .ARM.attributes
                0x00001146       0x39 build/obj/glcdfont.o
 .ARM.attributes
                0x0000117f       0x39 build/obj/usbcfg.o
 .ARM.attributes
                0x000011b8       0x39 build/obj/sdcard.o
 .ARM.attributes
                0x000011f1       0x39 build/obj/pconnection.o
 .ARM.attributes
                0x0000122a       0x39 build/obj/parameters.o
 .ARM.attributes
                0x00001263       0x39 build/obj/main.o
 .ARM.attributes
                0x0000129c       0x39 build/obj/patch.o
 .ARM.attributes
                0x000012d5       0x39 build/obj/flash.o
 .ARM.attributes
                0x0000130e       0x39 build/obj/virtual_control.o
 .ARM.attributes
                0x00001347       0x39 build/obj/arm_bitreversal.o
 .ARM.attributes
                0x00001380       0x39 build/obj/arm_cfft_f32.o
 .ARM.attributes
                0x000013b9       0x39 build/obj/arm_cfft_q15.o
 .ARM.attributes
                0x000013f2       0x39 build/obj/arm_cfft_q31.o
 .ARM.attributes
                0x0000142b       0x39 build/obj/arm_cfft_radix2_f32.o
 .ARM.attributes
                0x00001464       0x39 build/obj/arm_cfft_radix2_init_f32.o
 .ARM.attributes
                0x0000149d       0x39 build/obj/arm_cfft_radix2_init_q15.o
 .ARM.attributes
                0x000014d6       0x39 build/obj/arm_cfft_radix2_init_q31.o
 .ARM.attributes
                0x0000150f       0x39 build/obj/arm_cfft_radix2_q15.o
 .ARM.attributes
                0x00001548       0x39 build/obj/arm_cfft_radix2_q31.o
 .ARM.attributes
                0x00001581       0x39 build/obj/arm_cfft_radix4_f32.o
 .ARM.attributes
                0x000015ba       0x39 build/obj/arm_cfft_radix4_init_f32.o
 .ARM.attributes
                0x000015f3       0x39 build/obj/arm_cfft_radix4_init_q15.o
 .ARM.attributes
                0x0000162c       0x39 build/obj/arm_cfft_radix4_init_q31.o
 .ARM.attributes
                0x00001665       0x39 build/obj/arm_cfft_radix4_q15.o
 .ARM.attributes
                0x0000169e       0x39 build/obj/arm_cfft_radix4_q31.o
 .ARM.attributes
                0x000016d7       0x39 build/obj/arm_cfft_radix8_f32.o
 .ARM.attributes
                0x00001710       0x39 build/obj/arm_rfft_f32.o
 .ARM.attributes
                0x00001749       0x39 build/obj/arm_rfft_fast_f32.o
 .ARM.attributes
                0x00001782       0x39 build/obj/arm_rfft_fast_init_f32.o
 .ARM.attributes
                0x000017bb       0x39 build/obj/arm_rfft_init_f32.o
 .ARM.attributes
                0x000017f4       0x39 build/obj/arm_rfft_init_q15.o
 .ARM.attributes
                0x0000182d       0x39 build/obj/arm_rfft_init_q31.o
 .ARM.attributes
                0x00001866       0x39 build/obj/arm_rfft_q15.o
 .ARM.attributes
                0x0000189f       0x39 build/obj/arm_rfft_q31.o
 .ARM.attributes
                0x000018d8       0x39 build/obj/arm_mult_q31.o
 .ARM.attributes
                0x00001911       0x39 build/obj/arm_mult_q15.o
 .ARM.attributes
                0x0000194a       0x39 build/obj/arm_mult_f32.o
 .ARM.attributes
                0x00001983       0x39 build/obj/arm_shift_q31.o
 .ARM.attributes
                0x000019bc       0x39 build/obj/arm_shift_q15.o
 .ARM.attributes
                0x000019f5       0x39 build/obj/arm_scale_f32.o
 .ARM.attributes
                0x00001a2e       0x39 build/obj/arm_cmplx_mult_cmplx_q31.o
 .ARM.attributes
                0x00001a67       0x39 build/obj/arm_cmplx_mult_cmplx_f32.o
 .ARM.attributes
                0x00001aa0       0x39 build/obj/arm_cmplx_mag_q31.o
 .ARM.attributes
                0x00001ad9       0x39 build/obj/arm_cmplx_mult_cmplx_q15.o
 .ARM.attributes
                0x00001b12       0x39 build/obj/arm_cmplx_mag_q15.o
 .ARM.attributes
                0x00001b4b       0x39 build/obj/arm_cos_q31.o
 .ARM.attributes
                0x00001b84       0x39 build/obj/arm_sin_q31.o
 .ARM.attributes
                0x00001bbd       0x39 build/obj/arm_sqrt_q31.o
 .ARM.attributes
                0x00001bf6       0x39 build/obj/arm_sqrt_q15.o
 .ARM.attributes
                0x00001c2f       0x39 build/obj/arm_fir_init_q31.o
 .ARM.attributes
                0x00001c68       0x39 build/obj/arm_fir_fast_q31.o
 .ARM.attributes
                0x00001ca1       0x39 build/obj/arm_biquad_cascade_df1_32x64_init_q31.o
 .ARM.attributes
                0x00001cda       0x39 build/obj/arm_biquad_cascade_df1_32x64_q31.o
 .ARM.attributes
                0x00001d13       0x39 build/obj/arm_biquad_cascade_df1_fast_q31.o
 .ARM.attributes
                0x00001d4c       0x39 build/obj/arm_biquad_cascade_df1_init_q31.o
 .ARM.attributes
                0x00001d85       0x39 build/obj/arm_biquad_cascade_df1_q31.o
 .ARM.attributes
                0x00001dbe       0x39 build/obj/arm_fir_interpolate_init_q31.o
 .ARM.attributes
                0x00001df7       0x39 build/obj/arm_fir_interpolate_q31.o
 .ARM.attributes
                0x00001e30       0x39 build/obj/arm_fir_decimate_init_q31.o
 .ARM.attributes
                0x00001e69       0x39 build/obj/arm_fir_decimate_q31.o
 .ARM.attributes
                0x00001ea2       0x39 build/obj/arm_fir_decimate_fast_q31.o
 .ARM.attributes
                0x00001edb       0x39 build/obj/arm_fir_lattice_init_q31.o
 .ARM.attributes
                0x00001f14       0x39 build/obj/arm_fir_lattice_q31.o
 .ARM.attributes
                0x00001f4d       0x39 build/obj/arm_iir_lattice_init_q31.o
 .ARM.attributes
                0x00001f86       0x39 build/obj/arm_iir_lattice_q31.o
 .ARM.attributes
                0x00001fbf       0x39 build/obj/arm_common_tables.o
 .ARM.attributes
                0x00001ff8       0x39 build/obj/arm_const_structs.o
 .ARM.attributes
                0x00002031       0x39 build/obj/usbh_core.o
 .ARM.attributes
                0x0000206a       0x39 build/obj/usbh_ctlreq.o
 .ARM.attributes
                0x000020a3       0x39 build/obj/usbh_ioreq.o
 .ARM.attributes
                0x000020dc       0x39 build/obj/usbh_pipes.o
 .ARM.attributes
                0x00002115       0x39 build/obj/usbh_hid.o
 .ARM.attributes
                0x0000214e       0x39 build/obj/usbh_hid_keybd.o
 .ARM.attributes
                0x00002187       0x39 build/obj/usbh_hid_mouse.o
 .ARM.attributes
                0x000021c0       0x39 build/obj/usbh_hid_parser.o
 .ARM.attributes
                0x000021f9       0x39 build/obj/stm32f4xx_ll_usb.o
 .ARM.attributes
                0x00002232       0x39 build/obj/stm32f4xx_hal_gpio.o
 .ARM.attributes
                0x0000226b       0x39 build/obj/stm32f4xx_hal_cortex.o
 .ARM.attributes
                0x000022a4       0x39 build/obj/stm32f4xx_hal_hcd.o
 .ARM.attributes
                0x000022dd       0x39 build/obj/stm32f4xx_hal_i2c.o
 .ARM.attributes
                0x00002316       0x39 build/obj/usbh_midi_core.o
 .ARM.attributes
                0x0000234f       0x39 build/obj/usbh_vendor.o
 .ARM.attributes
                0x00002388       0x39 build/obj/usbh_conf.o
 .ARM.attributes
                0x000023c1       0x39 build/obj/serial_midi.o
 .ARM.attributes
                0x000023fa       0x39 build/obj/bulk_usb.o
 .ARM.attributes
                0x00002433       0x39 build/obj/midi_usb.o
 .ARM.attributes
                0x0000246c       0x39 build/obj/spilink.o
 .ARM.attributes
                0x000024a5       0x39 build/obj/spidb.o
 .ARM.attributes
                0x000024de       0x39 build/obj/crc32.o
 .ARM.attributes
                0x00002517       0x39 build/obj/exceptions.o
 .ARM.attributes
                0x00002550       0x39 build/obj/watchdog.o
 .ARM.attributes
                0x00002589       0x39 build/obj/sysmon.o
 .ARM.attributes
                0x000025c2       0x39 build/obj/axoloti_memory.o
 .ARM.attributes
                0x000025fb       0x39 build/obj/units.o
 .ARM.attributes
                0x00002634       0x39 build/obj/atan.o
 .ARM.attributes
                0x0000266d       0x39 build/obj/random.o
 .ARM.attributes
                0x000026a6       0x39 build/obj/mutable_resources.o
 .ARM.attributes
                0x000026df       0x39 build/obj/braids_resources.o
 .ARM.attributes
                0x00002718       0x39 build/obj/analog_oscillator.o
 .ARM.attributes
                0x00002751       0x39 build/obj/digital_oscillator.o
 .ARM.attributes
                0x0000278a       0x39 build/obj/macro_oscillator.o
 .ARM.attributes
                0x000027c3       0x39 build/obj/warps_resources.o
 .ARM.attributes
                0x000027fc       0x39 build/obj/filter_bank.o
 .ARM.attributes
                0x00002835       0x39 build/obj/modulator.o
 .ARM.attributes
                0x0000286e       0x39 build/obj/oscillator.o
 .ARM.attributes
                0x000028a7       0x39 build/obj/vocoder.o
 .ARM.attributes
                0x000028e0       0x39 build/obj/axoloti_mi.o
 .ARM.attributes
                0x00002919       0x39 build/obj/multistage_envelope.o
 .ARM.attributes
                0x00002952       0x39 build/obj/ominous_voice.o
 .ARM.attributes
                0x0000298b       0x39 build/obj/resonator.o
 .ARM.attributes
                0x000029c4       0x39 build/obj/string.o
 .ARM.attributes
                0x000029fd       0x39 build/obj/tube.o
 .ARM.attributes
                0x00002a36       0x39 build/obj/exciter.o
 .ARM.attributes
                0x00002a6f       0x39 build/obj/elements_resources.o
 .ARM.attributes
                0x00002aa8       0x39 build/obj/part.o
 .ARM.attributes
                0x00002ae1       0x39 build/obj/voice.o
 .ARM.attributes
                0x00002b1a       0x39 build/obj/clouds_resources.o
 .ARM.attributes
                0x00002b53       0x39 build/obj/correlator.o
 .ARM.attributes
                0x00002b8c       0x39 build/obj/mu_law.o
 .ARM.attributes
                0x00002bc5       0x39 build/obj/granular_processor.o
 .ARM.attributes
                0x00002bfe       0x39 build/obj/frame_transformation.o
 .ARM.attributes
                0x00002c37       0x39 build/obj/phase_vocoder.o
 .ARM.attributes
                0x00002c70       0x39 build/obj/stft.o
 .ARM.attributes
                0x00002ca9       0x39 build/obj/rings_resources.o
 .ARM.attributes
                0x00002ce2       0x39 build/obj/streams_resources.o
 .ARM.attributes
                0x00002d1b       0x39 build/obj/compressor.o
 .ARM.attributes
                0x00002d54       0x39 build/obj/envelope.o
 .ARM.attributes
                0x00002d8d       0x39 build/obj/follower.o
 .ARM.attributes
                0x00002dc6       0x39 build/obj/lorenz_generator.o
 .ARM.attributes
                0x00002dff       0x39 build/obj/processor.o
 .ARM.attributes
                0x00002e38       0x39 build/obj/svf.o
 .ARM.attributes
                0x00002e71       0x39 build/obj/vactrol.o
 .ARM.attributes
                0x00002eaa       0x34 /home/sbcm/Dropbox/pcb-layouts/axo-427-core/ksoloti/platform_linux/bin/../lib/gcc/arm-none-eabi/4.9.3/../../../../arm-none-eabi/lib/armv7e-m/fpu/libm.a(lib_a-sf_cos.o)
 .ARM.attributes
                0x00002ede       0x34 /home/sbcm/Dropbox/pcb-layouts/axo-427-core/ksoloti/platform_linux/bin/../lib/gcc/arm-none-eabi/4.9.3/../../../../arm-none-eabi/lib/armv7e-m/fpu/libm.a(lib_a-sf_sin.o)
 .ARM.attributes
                0x00002f12       0x34 /home/sbcm/Dropbox/pcb-layouts/axo-427-core/ksoloti/platform_linux/bin/../lib/gcc/arm-none-eabi/4.9.3/../../../../arm-none-eabi/lib/armv7e-m/fpu/libm.a(lib_a-w_log.o)
 .ARM.attributes
                0x00002f46       0x34 /home/sbcm/Dropbox/pcb-layouts/axo-427-core/ksoloti/platform_linux/bin/../lib/gcc/arm-none-eabi/4.9.3/../../../../arm-none-eabi/lib/armv7e-m/fpu/libm.a(lib_a-w_pow.o)
 .ARM.attributes
                0x00002f7a       0x34 /home/sbcm/Dropbox/pcb-layouts/axo-427-core/ksoloti/platform_linux/bin/../lib/gcc/arm-none-eabi/4.9.3/../../../../arm-none-eabi/lib/armv7e-m/fpu/libm.a(lib_a-wf_pow.o)
 .ARM.attributes
                0x00002fae       0x34 /home/sbcm/Dropbox/pcb-layouts/axo-427-core/ksoloti/platform_linux/bin/../lib/gcc/arm-none-eabi/4.9.3/../../../../arm-none-eabi/lib/armv7e-m/fpu/libm.a(lib_a-e_log.o)
 .ARM.attributes
                0x00002fe2       0x34 /home/sbcm/Dropbox/pcb-layouts/axo-427-core/ksoloti/platform_linux/bin/../lib/gcc/arm-none-eabi/4.9.3/../../../../arm-none-eabi/lib/armv7e-m/fpu/libm.a(lib_a-e_pow.o)
 .ARM.attributes
                0x00003016       0x34 /home/sbcm/Dropbox/pcb-layouts/axo-427-core/ksoloti/platform_linux/bin/../lib/gcc/arm-none-eabi/4.9.3/../../../../arm-none-eabi/lib/armv7e-m/fpu/libm.a(lib_a-e_sqrt.o)
 .ARM.attributes
                0x0000304a       0x34 /home/sbcm/Dropbox/pcb-layouts/axo-427-core/ksoloti/platform_linux/bin/../lib/gcc/arm-none-eabi/4.9.3/../../../../arm-none-eabi/lib/armv7e-m/fpu/libm.a(lib_a-ef_pow.o)
 .ARM.attributes
                0x0000307e       0x34 /home/sbcm/Dropbox/pcb-layouts/axo-427-core/ksoloti/platform_linux/bin/../lib/gcc/arm-none-eabi/4.9.3/../../../../arm-none-eabi/lib/armv7e-m/fpu/libm.a(lib_a-ef_rem_pio2.o)
 .ARM.attributes
                0x000030b2       0x34 /home/sbcm/Dropbox/pcb-layouts/axo-427-core/ksoloti/platform_linux/bin/../lib/gcc/arm-none-eabi/4.9.3/../../../../arm-none-eabi/lib/armv7e-m/fpu/libm.a(lib_a-ef_sqrt.o)
 .ARM.attributes
                0x000030e6       0x34 /home/sbcm/Dropbox/pcb-layouts/axo-427-core/ksoloti/platform_linux/bin/../lib/gcc/arm-none-eabi/4.9.3/../../../../arm-none-eabi/lib/armv7e-m/fpu/libm.a(lib_a-kf_cos.o)
 .ARM.attributes
                0x0000311a       0x34 /home/sbcm/Dropbox/pcb-layouts/axo-427-core/ksoloti/platform_linux/bin/../lib/gcc/arm-none-eabi/4.9.3/../../../../arm-none-eabi/lib/armv7e-m/fpu/libm.a(lib_a-kf_rem_pio2.o)
 .ARM.attributes
                0x0000314e       0x34 /home/sbcm/Dropbox/pcb-layouts/axo-427-core/ksoloti/platform_linux/bin/../lib/gcc/arm-none-eabi/4.9.3/../../../../arm-none-eabi/lib/armv7e-m/fpu/libm.a(lib_a-kf_sin.o)
 .ARM.attributes
                0x00003182       0x34 /home/sbcm/Dropbox/pcb-layouts/axo-427-core/ksoloti/platform_linux/bin/../lib/gcc/arm-none-eabi/4.9.3/../../../../arm-none-eabi/lib/armv7e-m/fpu/libm.a(lib_a-s_fabs.o)
 .ARM.attributes
                0x000031b6       0x34 /home/sbcm/Dropbox/pcb-layouts/axo-427-core/ksoloti/platform_linux/bin/../lib/gcc/arm-none-eabi/4.9.3/../../../../arm-none-eabi/lib/armv7e-m/fpu/libm.a(lib_a-s_finite.o)
 .ARM.attributes
                0x000031ea       0x34 /home/sbcm/Dropbox/pcb-layouts/axo-427-core/ksoloti/platform_linux/bin/../lib/gcc/arm-none-eabi/4.9.3/../../../../arm-none-eabi/lib/armv7e-m/fpu/libm.a(lib_a-s_fpclassify.o)
 .ARM.attributes
                0x0000321e       0x34 /home/sbcm/Dropbox/pcb-layouts/axo-427-core/ksoloti/platform_linux/bin/../lib/gcc/arm-none-eabi/4.9.3/../../../../arm-none-eabi/lib/armv7e-m/fpu/libm.a(lib_a-s_lib_ver.o)
 .ARM.attributes
                0x00003252       0x34 /home/sbcm/Dropbox/pcb-layouts/axo-427-core/ksoloti/platform_linux/bin/../lib/gcc/arm-none-eabi/4.9.3/../../../../arm-none-eabi/lib/armv7e-m/fpu/libm.a(lib_a-s_matherr.o)
 .ARM.attributes
                0x00003286       0x34 /home/sbcm/Dropbox/pcb-layouts/axo-427-core/ksoloti/platform_linux/bin/../lib/gcc/arm-none-eabi/4.9.3/../../../../arm-none-eabi/lib/armv7e-m/fpu/libm.a(lib_a-s_nan.o)
 .ARM.attributes
                0x000032ba       0x34 /home/sbcm/Dropbox/pcb-layouts/axo-427-core/ksoloti/platform_linux/bin/../lib/gcc/arm-none-eabi/4.9.3/../../../../arm-none-eabi/lib/armv7e-m/fpu/libm.a(lib_a-s_rint.o)
 .ARM.attributes
                0x000032ee       0x34 /home/sbcm/Dropbox/pcb-layouts/axo-427-core/ksoloti/platform_linux/bin/../lib/gcc/arm-none-eabi/4.9.3/../../../../arm-none-eabi/lib/armv7e-m/fpu/libm.a(lib_a-s_scalbn.o)
 .ARM.attributes
                0x00003322       0x34 /home/sbcm/Dropbox/pcb-layouts/axo-427-core/ksoloti/platform_linux/bin/../lib/gcc/arm-none-eabi/4.9.3/../../../../arm-none-eabi/lib/armv7e-m/fpu/libm.a(lib_a-sf_fabs.o)
 .ARM.attributes
                0x00003356       0x34 /home/sbcm/Dropbox/pcb-layouts/axo-427-core/ksoloti/platform_linux/bin/../lib/gcc/arm-none-eabi/4.9.3/../../../../arm-none-eabi/lib/armv7e-m/fpu/libm.a(lib_a-sf_finite.o)
 .ARM.attributes
                0x0000338a       0x34 /home/sbcm/Dropbox/pcb-layouts/axo-427-core/ksoloti/platform_linux/bin/../lib/gcc/arm-none-eabi/4.9.3/../../../../arm-none-eabi/lib/armv7e-m/fpu/libm.a(lib_a-sf_floor.o)
 .ARM.attributes
                0x000033be       0x34 /home/sbcm/Dropbox/pcb-layouts/axo-427-core/ksoloti/platform_linux/bin/../lib/gcc/arm-none-eabi/4.9.3/../../../../arm-none-eabi/lib/armv7e-m/fpu/libm.a(lib_a-sf_fpclassify.o)
 .ARM.attributes
                0x000033f2       0x34 /home/sbcm/Dropbox/pcb-layouts/axo-427-core/ksoloti/platform_linux/bin/../lib/gcc/arm-none-eabi/4.9.3/../../../../arm-none-eabi/lib/armv7e-m/fpu/libm.a(lib_a-sf_nan.o)
 .ARM.attributes
                0x00003426       0x34 /home/sbcm/Dropbox/pcb-layouts/axo-427-core/ksoloti/platform_linux/bin/../lib/gcc/arm-none-eabi/4.9.3/../../../../arm-none-eabi/lib/armv7e-m/fpu/libm.a(lib_a-sf_scalbn.o)
 .ARM.attributes
                0x0000345a       0x34 /home/sbcm/Dropbox/pcb-layouts/axo-427-core/ksoloti/platform_linux/bin/../lib/gcc/arm-none-eabi/4.9.3/../../../../arm-none-eabi/lib/armv7e-m/fpu/libm.a(lib_a-s_copysign.o)
 .ARM.attributes
                0x0000348e       0x34 /home/sbcm/Dropbox/pcb-layouts/axo-427-core/ksoloti/platform_linux/bin/../lib/gcc/arm-none-eabi/4.9.3/../../../../arm-none-eabi/lib/armv7e-m/fpu/libm.a(lib_a-sf_copysign.o)
 .ARM.attributes
                0x000034c2       0x22 /home/sbcm/Dropbox/pcb-layouts/axo-427-core/ksoloti/platform_linux/bin/../lib/gcc/arm-none-eabi/4.9.3/armv7e-m/fpu/libgcc.a(_arm_addsubdf3.o)
 .ARM.attributes
                0x000034e4       0x22 /home/sbcm/Dropbox/pcb-layouts/axo-427-core/ksoloti/platform_linux/bin/../lib/gcc/arm-none-eabi/4.9.3/armv7e-m/fpu/libgcc.a(_arm_muldivdf3.o)
 .ARM.attributes
                0x00003506       0x22 /home/sbcm/Dropbox/pcb-layouts/axo-427-core/ksoloti/platform_linux/bin/../lib/gcc/arm-none-eabi/4.9.3/armv7e-m/fpu/libgcc.a(_arm_cmpdf2.o)
 .ARM.attributes
                0x00003528       0x22 /home/sbcm/Dropbox/pcb-layouts/axo-427-core/ksoloti/platform_linux/bin/../lib/gcc/arm-none-eabi/4.9.3/armv7e-m/fpu/libgcc.a(_arm_fixdfsi.o)
 .ARM.attributes
                0x0000354a       0x22 /home/sbcm/Dropbox/pcb-layouts/axo-427-core/ksoloti/platform_linux/bin/../lib/gcc/arm-none-eabi/4.9.3/armv7e-m/fpu/libgcc.a(_arm_fixunsdfsi.o)
 .ARM.attributes
                0x0000356c       0x22 /home/sbcm/Dropbox/pcb-layouts/axo-427-core/ksoloti/platform_linux/bin/../lib/gcc/arm-none-eabi/4.9.3/armv7e-m/fpu/libgcc.a(_arm_truncdfsf2.o)
 .ARM.attributes
                0x0000358e       0x34 /home/sbcm/Dropbox/pcb-layouts/axo-427-core/ksoloti/platform_linux/bin/../lib/gcc/arm-none-eabi/4.9.3/armv7e-m/fpu/libgcc.a(unwind-arm.o)
 .ARM.attributes
                0x000035c2       0x22 /home/sbcm/Dropbox/pcb-layouts/axo-427-core/ksoloti/platform_linux/bin/../lib/gcc/arm-none-eabi/4.9.3/armv7e-m/fpu/libgcc.a(libunwind.o)
 .ARM.attributes
                0x000035e4       0x34 /home/sbcm/Dropbox/pcb-layouts/axo-427-core/ksoloti/platform_linux/bin/../lib/gcc/arm-none-eabi/4.9.3/armv7e-m/fpu/libgcc.a(pr-support.o)
 .ARM.attributes
                0x00003618       0x34 /home/sbcm/Dropbox/pcb-layouts/axo-427-core/ksoloti/platform_linux/bin/../lib/gcc/arm-none-eabi/4.9.3/../../../../arm-none-eabi/lib/armv7e-m/fpu/libg.a(lib_a-abort.o)
 .ARM.attributes
                0x0000364c       0x34 /home/sbcm/Dropbox/pcb-layouts/axo-427-core/ksoloti/platform_linux/bin/../lib/gcc/arm-none-eabi/4.9.3/../../../../arm-none-eabi/lib/armv7e-m/fpu/libg.a(lib_a-errno.o)
 .ARM.attributes
                0x00003680       0x34 /home/sbcm/Dropbox/pcb-layouts/axo-427-core/ksoloti/platform_linux/bin/../lib/gcc/arm-none-eabi/4.9.3/../../../../arm-none-eabi/lib/armv7e-m/fpu/libg.a(lib_a-impure.o)
 .ARM.attributes
                0x000036b4       0x20 /home/sbcm/Dropbox/pcb-layouts/axo-427-core/ksoloti/platform_linux/bin/../lib/gcc/arm-none-eabi/4.9.3/../../../../arm-none-eabi/lib/armv7e-m/fpu/libg.a(lib_a-memcpy.o)
 .ARM.attributes
                0x000036d4       0x34 /home/sbcm/Dropbox/pcb-layouts/axo-427-core/ksoloti/platform_linux/bin/../lib/gcc/arm-none-eabi/4.9.3/../../../../arm-none-eabi/lib/armv7e-m/fpu/libg.a(lib_a-memmove.o)
 .ARM.attributes
                0x00003708       0x34 /home/sbcm/Dropbox/pcb-layouts/axo-427-core/ksoloti/platform_linux/bin/../lib/gcc/arm-none-eabi/4.9.3/../../../../arm-none-eabi/lib/armv7e-m/fpu/libg.a(lib_a-memset.o)
 .ARM.attributes
                0x0000373c       0x34 /home/sbcm/Dropbox/pcb-layouts/axo-427-core/ksoloti/platform_linux/bin/../lib/gcc/arm-none-eabi/4.9.3/../../../../arm-none-eabi/lib/armv7e-m/fpu/libg.a(lib_a-signal.o)
 .ARM.attributes
                0x00003770       0x34 /home/sbcm/Dropbox/pcb-layouts/axo-427-core/ksoloti/platform_linux/bin/../lib/gcc/arm-none-eabi/4.9.3/../../../../arm-none-eabi/lib/armv7e-m/fpu/libg.a(lib_a-signalr.o)
 .ARM.attributes
                0x000037a4       0x34 /home/sbcm/Dropbox/pcb-layouts/axo-427-core/ksoloti/platform_linux/bin/../lib/gcc/arm-none-eabi/4.9.3/../../../../arm-none-eabi/lib/armv7e-m/fpu/libg.a(lib_a-stpcpy.o)
 .ARM.attributes
                0x000037d8       0x34 /home/sbcm/Dropbox/pcb-layouts/axo-427-core/ksoloti/platform_linux/bin/../lib/gcc/arm-none-eabi/4.9.3/../../../../arm-none-eabi/lib/armv7e-m/fpu/libg.a(lib_a-strcpy.o)
 .ARM.attributes
                0x0000380c       0x34 /home/sbcm/Dropbox/pcb-layouts/axo-427-core/ksoloti/platform_linux/bin/../lib/gcc/arm-none-eabi/4.9.3/../../../../arm-none-eabi/lib/armv7e-m/fpu/libg.a(lib_a-strlen.o)
 .ARM.attributes
                0x00003840       0x34 /home/sbcm/Dropbox/pcb-layouts/axo-427-core/ksoloti/platform_linux/bin/../lib/gcc/arm-none-eabi/4.9.3/../../../../arm-none-eabi/lib/armv7e-m/fpu/libg.a(lib_a-mallocr.o)
 .ARM.attributes
                0x00003874       0x34 /home/sbcm/Dropbox/pcb-layouts/axo-427-core/ksoloti/platform_linux/bin/../lib/gcc/arm-none-eabi/4.9.3/../../../../arm-none-eabi/lib/armv7e-m/fpu/libg.a(lib_a-mlock.o)
 .ARM.attributes
                0x000038a8       0x34 /home/sbcm/Dropbox/pcb-layouts/axo-427-core/ksoloti/platform_linux/bin/../lib/gcc/arm-none-eabi/4.9.3/../../../../arm-none-eabi/lib/armv7e-m/fpu/libg.a(lib_a-reent.o)
 .ARM.attributes
                0x000038dc       0x34 /home/sbcm/Dropbox/pcb-layouts/axo-427-core/ksoloti/platform_linux/bin/../lib/gcc/arm-none-eabi/4.9.3/../../../../arm-none-eabi/lib/armv7e-m/fpu/libg.a(lib_a-sbrkr.o)
 .ARM.attributes
                0x00003910       0x34 /home/sbcm/Dropbox/pcb-layouts/axo-427-core/ksoloti/platform_linux/bin/../lib/gcc/arm-none-eabi/4.9.3/../../../../arm-none-eabi/lib/armv7e-m/fpu/libg.a(lib_a-freer.o)

.comment        0x00000000       0x70
 .comment       0x00000000       0x70 build/obj/crt0.o
                                 0x71 (size before relaxing)
 .comment       0x00000000       0x71 build/obj/vectors.o
 .comment       0x00000000       0x71 build/obj/chcore.o
 .comment       0x00000000       0x71 build/obj/chcore_v7m.o
 .comment       0x00000000       0x71 build/obj/nvic.o
 .comment       0x00000000       0x71 build/obj/chsys.o
 .comment       0x00000000       0x71 build/obj/chdebug.o
 .comment       0x00000000       0x71 build/obj/chlists.o
 .comment       0x00000000       0x71 build/obj/chvt.o
 .comment       0x00000000       0x71 build/obj/chschd.o
 .comment       0x00000000       0x71 build/obj/chthreads.o
 .comment       0x00000000       0x71 build/obj/chdynamic.o
 .comment       0x00000000       0x71 build/obj/chregistry.o
 .comment       0x00000000       0x71 build/obj/chsem.o
 .comment       0x00000000       0x71 build/obj/chmtx.o
 .comment       0x00000000       0x71 build/obj/chcond.o
 .comment       0x00000000       0x71 build/obj/chevents.o
 .comment       0x00000000       0x71 build/obj/chmsg.o
 .comment       0x00000000       0x71 build/obj/chmboxes.o
 .comment       0x00000000       0x71 build/obj/chqueues.o
 .comment       0x00000000       0x71 build/obj/chmemcore.o
 .comment       0x00000000       0x71 build/obj/chheap.o
 .comment       0x00000000       0x71 build/obj/chmempools.o
 .comment       0x00000000       0x71 build/obj/hal.o
 .comment       0x00000000       0x71 build/obj/adc.o
 .comment       0x00000000       0x71 build/obj/can.o
 .comment       0x00000000       0x71 build/obj/ext.o
 .comment       0x00000000       0x71 build/obj/gpt.o
 .comment       0x00000000       0x71 build/obj/i2c.o
 .comment       0x00000000       0x71 build/obj/icu.o
 .comment       0x00000000       0x71 build/obj/mac.o
 .comment       0x00000000       0x71 build/obj/mmc_spi.o
 .comment       0x00000000       0x71 build/obj/mmcsd.o
 .comment       0x00000000       0x71 build/obj/pal.o
 .comment       0x00000000       0x71 build/obj/pwm.o
 .comment       0x00000000       0x71 build/obj/rtc.o
 .comment       0x00000000       0x71 build/obj/sdc.o
 .comment       0x00000000       0x71 build/obj/serial.o
 .comment       0x00000000       0x71 build/obj/serial_usb.o
 .comment       0x00000000       0x71 build/obj/spi.o
 .comment       0x00000000       0x71 build/obj/tm.o
 .comment       0x00000000       0x71 build/obj/uart.o
 .comment       0x00000000       0x71 build/obj/usb.o
 .comment       0x00000000       0x71 build/obj/stm32_dma.o
 .comment       0x00000000       0x71 build/obj/hal_lld.o
 .comment       0x00000000       0x71 build/obj/adc_lld.o
 .comment       0x00000000       0x71 build/obj/ext_lld_isr.o
 .comment       0x00000000       0x71 build/obj/can_lld.o
 .comment       0x00000000       0x71 build/obj/ext_lld.o
 .comment       0x00000000       0x71 build/obj/mac_lld.o
 .comment       0x00000000       0x71 build/obj/sdc_lld.o
 .comment       0x00000000       0x71 build/obj/pal_lld.o
 .comment       0x00000000       0x71 build/obj/i2c_lld.o
 .comment       0x00000000       0x71 build/obj/usb_lld.o
 .comment       0x00000000       0x71 build/obj/rtc_lld.o
 .comment       0x00000000       0x71 build/obj/spi_lld.o
 .comment       0x00000000       0x71 build/obj/gpt_lld.o
 .comment       0x00000000       0x71 build/obj/icu_lld.o
 .comment       0x00000000       0x71 build/obj/pwm_lld.o
 .comment       0x00000000       0x71 build/obj/serial_lld.o
 .comment       0x00000000       0x71 build/obj/uart_lld.o
 .comment       0x00000000       0x71 build/obj/board.o
 .comment       0x00000000       0x71 build/obj/fatfs_diskio.o
 .comment       0x00000000       0x71 build/obj/fatfs_syscall.o
 .comment       0x00000000       0x71 build/obj/ff.o
 .comment       0x00000000       0x71 build/obj/ccsbcs.o
 .comment       0x00000000       0x71 build/obj/chprintf.o
 .comment       0x00000000       0x71 build/obj/memstreams.o
 .comment       0x00000000       0x71 build/obj/axoloti_control.o
 .comment       0x00000000       0x71 build/obj/codec.o
 .comment       0x00000000       0x71 build/obj/axoloti.o
 .comment       0x00000000       0x71 build/obj/axoloti_filters.o
 .comment       0x00000000       0x71 build/obj/axoloti_math.o
 .comment       0x00000000       0x71 build/obj/axoloti_oscs.o
 .comment       0x00000000       0x71 build/obj/axoloti_board.o
 .comment       0x00000000       0x71 build/obj/midi.o
 .comment       0x00000000       0x71 build/obj/ui.o
 .comment       0x00000000       0x71 build/obj/glcdfont.o
 .comment       0x00000000       0x71 build/obj/usbcfg.o
 .comment       0x00000000       0x71 build/obj/sdcard.o
 .comment       0x00000000       0x71 build/obj/pconnection.o
 .comment       0x00000000       0x71 build/obj/parameters.o
 .comment       0x00000000       0x71 build/obj/main.o
 .comment       0x00000000       0x71 build/obj/patch.o
 .comment       0x00000000       0x71 build/obj/flash.o
 .comment       0x00000000       0x71 build/obj/virtual_control.o
 .comment       0x00000000       0x71 build/obj/arm_bitreversal.o
 .comment       0x00000000       0x71 build/obj/arm_cfft_f32.o
 .comment       0x00000000       0x71 build/obj/arm_cfft_q15.o
 .comment       0x00000000       0x71 build/obj/arm_cfft_q31.o
 .comment       0x00000000       0x71 build/obj/arm_cfft_radix2_f32.o
 .comment       0x00000000       0x71 build/obj/arm_cfft_radix2_init_f32.o
 .comment       0x00000000       0x71 build/obj/arm_cfft_radix2_init_q15.o
 .comment       0x00000000       0x71 build/obj/arm_cfft_radix2_init_q31.o
 .comment       0x00000000       0x71 build/obj/arm_cfft_radix2_q15.o
 .comment       0x00000000       0x71 build/obj/arm_cfft_radix2_q31.o
 .comment       0x00000000       0x71 build/obj/arm_cfft_radix4_f32.o
 .comment       0x00000000       0x71 build/obj/arm_cfft_radix4_init_f32.o
 .comment       0x00000000       0x71 build/obj/arm_cfft_radix4_init_q15.o
 .comment       0x00000000       0x71 build/obj/arm_cfft_radix4_init_q31.o
 .comment       0x00000000       0x71 build/obj/arm_cfft_radix4_q15.o
 .comment       0x00000000       0x71 build/obj/arm_cfft_radix4_q31.o
 .comment       0x00000000       0x71 build/obj/arm_cfft_radix8_f32.o
 .comment       0x00000000       0x71 build/obj/arm_rfft_f32.o
 .comment       0x00000000       0x71 build/obj/arm_rfft_fast_f32.o
 .comment       0x00000000       0x71 build/obj/arm_rfft_fast_init_f32.o
 .comment       0x00000000       0x71 build/obj/arm_rfft_init_f32.o
 .comment       0x00000000       0x71 build/obj/arm_rfft_init_q15.o
 .comment       0x00000000       0x71 build/obj/arm_rfft_init_q31.o
 .comment       0x00000000       0x71 build/obj/arm_rfft_q15.o
 .comment       0x00000000       0x71 build/obj/arm_rfft_q31.o
 .comment       0x00000000       0x71 build/obj/arm_mult_q31.o
 .comment       0x00000000       0x71 build/obj/arm_mult_q15.o
 .comment       0x00000000       0x71 build/obj/arm_mult_f32.o
 .comment       0x00000000       0x71 build/obj/arm_shift_q31.o
 .comment       0x00000000       0x71 build/obj/arm_shift_q15.o
 .comment       0x00000000       0x71 build/obj/arm_scale_f32.o
 .comment       0x00000000       0x71 build/obj/arm_cmplx_mult_cmplx_q31.o
 .comment       0x00000000       0x71 build/obj/arm_cmplx_mult_cmplx_f32.o
 .comment       0x00000000       0x71 build/obj/arm_cmplx_mag_q31.o
 .comment       0x00000000       0x71 build/obj/arm_cmplx_mult_cmplx_q15.o
 .comment       0x00000000       0x71 build/obj/arm_cmplx_mag_q15.o
 .comment       0x00000000       0x71 build/obj/arm_cos_q31.o
 .comment       0x00000000       0x71 build/obj/arm_sin_q31.o
 .comment       0x00000000       0x71 build/obj/arm_sqrt_q31.o
 .comment       0x00000000       0x71 build/obj/arm_sqrt_q15.o
 .comment       0x00000000       0x71 build/obj/arm_fir_init_q31.o
 .comment       0x00000000       0x71 build/obj/arm_fir_fast_q31.o
 .comment       0x00000000       0x71 build/obj/arm_biquad_cascade_df1_32x64_init_q31.o
 .comment       0x00000000       0x71 build/obj/arm_biquad_cascade_df1_32x64_q31.o
 .comment       0x00000000       0x71 build/obj/arm_biquad_cascade_df1_fast_q31.o
 .comment       0x00000000       0x71 build/obj/arm_biquad_cascade_df1_init_q31.o
 .comment       0x00000000       0x71 build/obj/arm_biquad_cascade_df1_q31.o
 .comment       0x00000000       0x71 build/obj/arm_fir_interpolate_init_q31.o
 .comment       0x00000000       0x71 build/obj/arm_fir_interpolate_q31.o
 .comment       0x00000000       0x71 build/obj/arm_fir_decimate_init_q31.o
 .comment       0x00000000       0x71 build/obj/arm_fir_decimate_q31.o
 .comment       0x00000000       0x71 build/obj/arm_fir_decimate_fast_q31.o
 .comment       0x00000000       0x71 build/obj/arm_fir_lattice_init_q31.o
 .comment       0x00000000       0x71 build/obj/arm_fir_lattice_q31.o
 .comment       0x00000000       0x71 build/obj/arm_iir_lattice_init_q31.o
 .comment       0x00000000       0x71 build/obj/arm_iir_lattice_q31.o
 .comment       0x00000000       0x71 build/obj/arm_common_tables.o
 .comment       0x00000000       0x71 build/obj/arm_const_structs.o
 .comment       0x00000000       0x71 build/obj/usbh_core.o
 .comment       0x00000000       0x71 build/obj/usbh_ctlreq.o
 .comment       0x00000000       0x71 build/obj/usbh_ioreq.o
 .comment       0x00000000       0x71 build/obj/usbh_pipes.o
 .comment       0x00000000       0x71 build/obj/usbh_hid.o
 .comment       0x00000000       0x71 build/obj/usbh_hid_keybd.o
 .comment       0x00000000       0x71 build/obj/usbh_hid_mouse.o
 .comment       0x00000000       0x71 build/obj/usbh_hid_parser.o
 .comment       0x00000000       0x71 build/obj/stm32f4xx_ll_usb.o
 .comment       0x00000000       0x71 build/obj/stm32f4xx_hal_gpio.o
 .comment       0x00000000       0x71 build/obj/stm32f4xx_hal_cortex.o
 .comment       0x00000000       0x71 build/obj/stm32f4xx_hal_hcd.o
 .comment       0x00000000       0x71 build/obj/stm32f4xx_hal_i2c.o
 .comment       0x00000000       0x71 build/obj/usbh_midi_core.o
 .comment       0x00000000       0x71 build/obj/usbh_vendor.o
 .comment       0x00000000       0x71 build/obj/usbh_conf.o
 .comment       0x00000000       0x71 build/obj/serial_midi.o
 .comment       0x00000000       0x71 build/obj/bulk_usb.o
 .comment       0x00000000       0x71 build/obj/midi_usb.o
 .comment       0x00000000       0x71 build/obj/spilink.o
 .comment       0x00000000       0x71 build/obj/spidb.o
 .comment       0x00000000       0x71 build/obj/crc32.o
 .comment       0x00000000       0x71 build/obj/exceptions.o
 .comment       0x00000000       0x71 build/obj/watchdog.o
 .comment       0x00000000       0x71 build/obj/sysmon.o
 .comment       0x00000000       0x71 build/obj/axoloti_memory.o
 .comment       0x00000000       0x71 build/obj/units.o
 .comment       0x00000000       0x71 build/obj/atan.o
 .comment       0x00000000       0x71 build/obj/random.o
 .comment       0x00000000       0x71 build/obj/mutable_resources.o
 .comment       0x00000000       0x71 build/obj/braids_resources.o
 .comment       0x00000000       0x71 build/obj/analog_oscillator.o
 .comment       0x00000000       0x71 build/obj/digital_oscillator.o
 .comment       0x00000000       0x71 build/obj/macro_oscillator.o
 .comment       0x00000000       0x71 build/obj/warps_resources.o
 .comment       0x00000000       0x71 build/obj/filter_bank.o
 .comment       0x00000000       0x71 build/obj/modulator.o
 .comment       0x00000000       0x71 build/obj/oscillator.o
 .comment       0x00000000       0x71 build/obj/vocoder.o
 .comment       0x00000000       0x71 build/obj/axoloti_mi.o
 .comment       0x00000000       0x71 build/obj/multistage_envelope.o
 .comment       0x00000000       0x71 build/obj/ominous_voice.o
 .comment       0x00000000       0x71 build/obj/resonator.o
 .comment       0x00000000       0x71 build/obj/string.o
 .comment       0x00000000       0x71 build/obj/tube.o
 .comment       0x00000000       0x71 build/obj/exciter.o
 .comment       0x00000000       0x71 build/obj/elements_resources.o
 .comment       0x00000000       0x71 build/obj/part.o
 .comment       0x00000000       0x71 build/obj/voice.o
 .comment       0x00000000       0x71 build/obj/clouds_resources.o
 .comment       0x00000000       0x71 build/obj/correlator.o
 .comment       0x00000000       0x71 build/obj/mu_law.o
 .comment       0x00000000       0x71 build/obj/granular_processor.o
 .comment       0x00000000       0x71 build/obj/frame_transformation.o
 .comment       0x00000000       0x71 build/obj/phase_vocoder.o
 .comment       0x00000000       0x71 build/obj/stft.o
 .comment       0x00000000       0x71 build/obj/rings_resources.o
 .comment       0x00000000       0x71 build/obj/streams_resources.o
 .comment       0x00000000       0x71 build/obj/compressor.o
 .comment       0x00000000       0x71 build/obj/envelope.o
 .comment       0x00000000       0x71 build/obj/follower.o
 .comment       0x00000000       0x71 build/obj/lorenz_generator.o
 .comment       0x00000000       0x71 build/obj/processor.o
 .comment       0x00000000       0x71 build/obj/svf.o
 .comment       0x00000000       0x71 build/obj/vactrol.o

.debug_info     0x00000000   0x112ce5
 .debug_info    0x00000000      0x2b2 build/obj/crt0.o
 .debug_info    0x000002b2      0x1c9 build/obj/vectors.o
 .debug_info    0x0000047b       0x8e build/obj/chcore.o
 .debug_info    0x00000509      0x9ef build/obj/chcore_v7m.o
 .debug_info    0x00000ef8      0x402 build/obj/nvic.o
 .debug_info    0x000012fa      0x8c5 build/obj/chsys.o
 .debug_info    0x00001bbf       0x75 build/obj/chdebug.o
 .debug_info    0x00001c34       0x75 build/obj/chlists.o
 .debug_info    0x00001ca9      0x1ff build/obj/chvt.o
 .debug_info    0x00001ea8      0xa65 build/obj/chschd.o
 .debug_info    0x0000290d      0xd1b build/obj/chthreads.o
 .debug_info    0x00003628       0x75 build/obj/chdynamic.o
 .debug_info    0x0000369d      0x68a build/obj/chregistry.o
 .debug_info    0x00003d27      0xbe2 build/obj/chsem.o
 .debug_info    0x00004909      0xa2b build/obj/chmtx.o
 .debug_info    0x00005334       0x75 build/obj/chcond.o
 .debug_info    0x000053a9      0xe2d build/obj/chevents.o
 .debug_info    0x000061d6      0x6f0 build/obj/chmsg.o
 .debug_info    0x000068c6       0x75 build/obj/chmboxes.o
 .debug_info    0x0000693b      0xc4b build/obj/chqueues.o
 .debug_info    0x00007586      0x21b build/obj/chmemcore.o
 .debug_info    0x000077a1      0x787 build/obj/chheap.o
 .debug_info    0x00007f28       0x75 build/obj/chmempools.o
 .debug_info    0x00007f9d      0x406 build/obj/hal.o
 .debug_info    0x000083a3      0xe92 build/obj/adc.o
 .debug_info    0x00009235       0xa0 build/obj/can.o
 .debug_info    0x000092d5       0xa0 build/obj/ext.o
 .debug_info    0x00009375       0xa0 build/obj/gpt.o
 .debug_info    0x00009415      0xc39 build/obj/i2c.o
 .debug_info    0x0000a04e       0xa0 build/obj/icu.o
 .debug_info    0x0000a0ee       0xa0 build/obj/mac.o
 .debug_info    0x0000a18e       0xa0 build/obj/mmc_spi.o
 .debug_info    0x0000a22e      0x2ad build/obj/mmcsd.o
 .debug_info    0x0000a4db      0x2d0 build/obj/pal.o
 .debug_info    0x0000a7ab      0x685 build/obj/pwm.o
 .debug_info    0x0000ae30       0xa0 build/obj/rtc.o
 .debug_info    0x0000aed0     0x122f build/obj/sdc.o
 .debug_info    0x0000c0ff     0x105c build/obj/serial.o
 .debug_info    0x0000d15b       0xa0 build/obj/serial_usb.o
 .debug_info    0x0000d1fb     0x115c build/obj/spi.o
 .debug_info    0x0000e357      0x2d9 build/obj/tm.o
 .debug_info    0x0000e630       0xa0 build/obj/uart.o
 .debug_info    0x0000e6d0     0x1fc9 build/obj/usb.o
 .debug_info    0x00010699      0xab0 build/obj/stm32_dma.o
 .debug_info    0x00011149      0x491 build/obj/hal_lld.o
 .debug_info    0x000115da     0x1184 build/obj/adc_lld.o
 .debug_info    0x0001275e       0xa0 build/obj/ext_lld_isr.o
 .debug_info    0x000127fe       0xa0 build/obj/can_lld.o
 .debug_info    0x0001289e       0xa0 build/obj/ext_lld.o
 .debug_info    0x0001293e       0xa0 build/obj/mac_lld.o
 .debug_info    0x000129de     0x174e build/obj/sdc_lld.o
 .debug_info    0x0001412c      0x6fc build/obj/pal_lld.o
 .debug_info    0x00014828     0x1779 build/obj/i2c_lld.o
 .debug_info    0x00015fa1     0x292f build/obj/usb_lld.o
 .debug_info    0x000188d0       0xa0 build/obj/rtc_lld.o
 .debug_info    0x00018970      0xee2 build/obj/spi_lld.o
 .debug_info    0x00019852       0xa0 build/obj/gpt_lld.o
 .debug_info    0x000198f2       0xa0 build/obj/icu_lld.o
 .debug_info    0x00019992      0xb69 build/obj/pwm_lld.o
 .debug_info    0x0001a4fb     0x117f build/obj/serial_lld.o
 .debug_info    0x0001b67a       0xa0 build/obj/uart_lld.o
 .debug_info    0x0001b71a      0x9cf build/obj/board.o
 .debug_info    0x0001c0e9      0xa2f build/obj/fatfs_diskio.o
 .debug_info    0x0001cb18      0x616 build/obj/fatfs_syscall.o
 .debug_info    0x0001d12e     0x4ccf build/obj/ff.o
 .debug_info    0x00021dfd      0x174 build/obj/ccsbcs.o
 .debug_info    0x00021f71      0x6a9 build/obj/chprintf.o
 .debug_info    0x0002261a      0x3b6 build/obj/memstreams.o
 .debug_info    0x000229d0     0x11b4 build/obj/axoloti_control.o
 .debug_info    0x00023b84     0x25d4 build/obj/codec.o
 .debug_info    0x00026158      0x14e build/obj/axoloti.o
 .debug_info    0x000262a6      0x7d1 build/obj/axoloti_filters.o
 .debug_info    0x00026a77      0x682 build/obj/axoloti_math.o
 .debug_info    0x000270f9      0x157 build/obj/axoloti_oscs.o
 .debug_info    0x00027250      0xf0e build/obj/axoloti_board.o
 .debug_info    0x0002815e      0x502 build/obj/midi.o
 .debug_info    0x00028660     0x22d8 build/obj/ui.o
 .debug_info    0x0002a938       0x53 build/obj/glcdfont.o
 .debug_info    0x0002a98b     0x1b6c build/obj/usbcfg.o
 .debug_info    0x0002c4f7     0x1315 build/obj/sdcard.o
 .debug_info    0x0002d80c     0x30d8 build/obj/pconnection.o
 .debug_info    0x000308e4      0x58c build/obj/parameters.o
 .debug_info    0x00030e70     0x1c83 build/obj/main.o
 .debug_info    0x00032af3     0x16d8 build/obj/patch.o
 .debug_info    0x000341cb      0x2d3 build/obj/flash.o
 .debug_info    0x0003449e       0xb9 build/obj/virtual_control.o
 .debug_info    0x00034557      0x2e2 build/obj/arm_bitreversal.o
 .debug_info    0x00034839      0x69a build/obj/arm_cfft_f32.o
 .debug_info    0x00034ed3      0x9ee build/obj/arm_cfft_q15.o
 .debug_info    0x000358c1      0x550 build/obj/arm_cfft_q31.o
 .debug_info    0x00035e11      0x47f build/obj/arm_cfft_radix2_f32.o
 .debug_info    0x00036290      0x236 build/obj/arm_cfft_radix2_init_f32.o
 .debug_info    0x000364c6      0x23f build/obj/arm_cfft_radix2_init_q15.o
 .debug_info    0x00036705      0x23f build/obj/arm_cfft_radix2_init_q31.o
 .debug_info    0x00036944      0xe4f build/obj/arm_cfft_radix2_q15.o
 .debug_info    0x00037793      0x410 build/obj/arm_cfft_radix2_q31.o
 .debug_info    0x00037ba3      0x9aa build/obj/arm_cfft_radix4_f32.o
 .debug_info    0x0003854d      0x236 build/obj/arm_cfft_radix4_init_f32.o
 .debug_info    0x00038783      0x23f build/obj/arm_cfft_radix4_init_q15.o
 .debug_info    0x000389c2      0x23f build/obj/arm_cfft_radix4_init_q31.o
 .debug_info    0x00038c01     0x1e2f build/obj/arm_cfft_radix4_q15.o
 .debug_info    0x0003aa30      0x7fe build/obj/arm_cfft_radix4_q31.o
 .debug_info    0x0003b22e      0x40c build/obj/arm_cfft_radix8_f32.o
 .debug_info    0x0003b63a      0x55d build/obj/arm_rfft_f32.o
 .debug_info    0x0003bb97      0x4e3 build/obj/arm_rfft_fast_f32.o
 .debug_info    0x0003c07a      0x478 build/obj/arm_rfft_fast_init_f32.o
 .debug_info    0x0003c4f2      0x335 build/obj/arm_rfft_init_f32.o
 .debug_info    0x0003c827      0x321 build/obj/arm_rfft_init_q15.o
 .debug_info    0x0003cb48      0x321 build/obj/arm_rfft_init_q31.o
 .debug_info    0x0003ce69      0x834 build/obj/arm_rfft_q15.o
 .debug_info    0x0003d69d      0x4f4 build/obj/arm_rfft_q31.o
 .debug_info    0x0003db91      0x2be build/obj/arm_mult_q31.o
 .debug_info    0x0003de4f      0x2ac build/obj/arm_mult_q15.o
 .debug_info    0x0003e0fb      0x1bc build/obj/arm_mult_f32.o
 .debug_info    0x0003e2b7      0x22c build/obj/arm_shift_q31.o
 .debug_info    0x0003e4e3      0x24f build/obj/arm_shift_q15.o
 .debug_info    0x0003e732      0x14b build/obj/arm_scale_f32.o
 .debug_info    0x0003e87d      0x1c6 build/obj/arm_cmplx_mult_cmplx_q31.o
 .debug_info    0x0003ea43      0x1bc build/obj/arm_cmplx_mult_cmplx_f32.o
 .debug_info    0x0003ebff      0x2e8 build/obj/arm_cmplx_mag_q31.o
 .debug_info    0x0003eee7      0x17c build/obj/arm_cmplx_mult_cmplx_q15.o
 .debug_info    0x0003f063      0x3d7 build/obj/arm_cmplx_mag_q15.o
 .debug_info    0x0003f43a      0x168 build/obj/arm_cos_q31.o
 .debug_info    0x0003f5a2      0x16a build/obj/arm_sin_q31.o
 .debug_info    0x0003f70c      0x1e9 build/obj/arm_sqrt_q31.o
 .debug_info    0x0003f8f5      0x1dd build/obj/arm_sqrt_q15.o
 .debug_info    0x0003fad2      0x1b8 build/obj/arm_fir_init_q31.o
 .debug_info    0x0003fc8a      0x27c build/obj/arm_fir_fast_q31.o
 .debug_info    0x0003ff06      0x1e5 build/obj/arm_biquad_cascade_df1_32x64_init_q31.o
 .debug_info    0x000400eb      0x48f build/obj/arm_biquad_cascade_df1_32x64_q31.o
 .debug_info    0x0004057a      0x282 build/obj/arm_biquad_cascade_df1_fast_q31.o
 .debug_info    0x000407fc      0x1d3 build/obj/arm_biquad_cascade_df1_init_q31.o
 .debug_info    0x000409cf      0x2db build/obj/arm_biquad_cascade_df1_q31.o
 .debug_info    0x00040caa      0x246 build/obj/arm_fir_interpolate_init_q31.o
 .debug_info    0x00040ef0      0x2b2 build/obj/arm_fir_interpolate_q31.o
 .debug_info    0x000411a2      0x234 build/obj/arm_fir_decimate_init_q31.o
 .debug_info    0x000413d6      0x277 build/obj/arm_fir_decimate_q31.o
 .debug_info    0x0004164d      0x2c7 build/obj/arm_fir_decimate_fast_q31.o
 .debug_info    0x00041914      0x18c build/obj/arm_fir_lattice_init_q31.o
 .debug_info    0x00041aa0      0x276 build/obj/arm_fir_lattice_q31.o
 .debug_info    0x00041d16      0x1d3 build/obj/arm_iir_lattice_init_q31.o
 .debug_info    0x00041ee9      0x582 build/obj/arm_iir_lattice_q31.o
 .debug_info    0x0004246b      0x95e build/obj/arm_common_tables.o
 .debug_info    0x00042dc9      0xd87 build/obj/arm_const_structs.o
 .debug_info    0x00043b50     0x1ebe build/obj/usbh_core.o
 .debug_info    0x00045a0e     0x185c build/obj/usbh_ctlreq.o
 .debug_info    0x0004726a     0x147f build/obj/usbh_ioreq.o
 .debug_info    0x000486e9      0xe1f build/obj/usbh_pipes.o
 .debug_info    0x00049508     0x1bbf build/obj/usbh_hid.o
 .debug_info    0x0004b0c7     0x135a build/obj/usbh_hid_keybd.o
 .debug_info    0x0004c421     0x118d build/obj/usbh_hid_mouse.o
 .debug_info    0x0004d5ae      0x28f build/obj/usbh_hid_parser.o
 .debug_info    0x0004d83d     0x1969 build/obj/stm32f4xx_ll_usb.o
 .debug_info    0x0004f1a6      0x726 build/obj/stm32f4xx_hal_gpio.o
 .debug_info    0x0004f8cc      0xd36 build/obj/stm32f4xx_hal_cortex.o
 .debug_info    0x00050602     0x1242 build/obj/stm32f4xx_hal_hcd.o
 .debug_info    0x00051844     0x2832 build/obj/stm32f4xx_hal_i2c.o
 .debug_info    0x00054076     0x1ddd build/obj/usbh_midi_core.o
 .debug_info    0x00055e53     0x1208 build/obj/usbh_vendor.o
 .debug_info    0x0005705b     0x2495 build/obj/usbh_conf.o
 .debug_info    0x000594f0      0xf85 build/obj/serial_midi.o
 .debug_info    0x0005a475     0x1ddb build/obj/bulk_usb.o
 .debug_info    0x0005c250     0x2197 build/obj/midi_usb.o
 .debug_info    0x0005e3e7      0xf3b build/obj/spilink.o
 .debug_info    0x0005f322      0xde6 build/obj/spidb.o
 .debug_info    0x00060108      0x430 build/obj/crc32.o
 .debug_info    0x00060538      0xefe build/obj/exceptions.o
 .debug_info    0x00061436       0xca build/obj/watchdog.o
 .debug_info    0x00061500      0xa3c build/obj/sysmon.o
 .debug_info    0x00061f3c      0x209 build/obj/axoloti_memory.o
 .debug_info    0x00062145      0x973 build/obj/units.o
 .debug_info    0x00062ab8      0x54c build/obj/atan.o
 .debug_info    0x00063004      0x175 build/obj/random.o
 .debug_info    0x00063179     0x5f77 build/obj/mutable_resources.o
 .debug_info    0x000690f0     0xec92 build/obj/braids_resources.o
 .debug_info    0x00077d82     0x1313 build/obj/analog_oscillator.o
 .debug_info    0x00079095     0x183e build/obj/digital_oscillator.o
 .debug_info    0x0007a8d3     0x183e build/obj/macro_oscillator.o
 .debug_info    0x0007c111     0xd979 build/obj/warps_resources.o
 .debug_info    0x00089a8a    0x12aab build/obj/filter_bank.o
 .debug_info    0x0009c535    0x17140 build/obj/modulator.o
 .debug_info    0x000b3675     0x2be0 build/obj/oscillator.o
 .debug_info    0x000b6255     0x2b4c build/obj/vocoder.o
 .debug_info    0x000b8da1      0xcdf build/obj/axoloti_mi.o
 .debug_info    0x000b9a80      0xde9 build/obj/multistage_envelope.o
 .debug_info    0x000ba869     0x45d7 build/obj/ominous_voice.o
 .debug_info    0x000bee40     0x2e67 build/obj/resonator.o
 .debug_info    0x000c1ca7     0x4455 build/obj/string.o
 .debug_info    0x000c60fc     0x12f5 build/obj/tube.o
 .debug_info    0x000c73f1     0x2d13 build/obj/exciter.o
 .debug_info    0x000ca104     0x43aa build/obj/elements_resources.o
 .debug_info    0x000ce4ae     0x83ec build/obj/part.o
 .debug_info    0x000d689a     0x5c95 build/obj/voice.o
 .debug_info    0x000dc52f     0xb7b5 build/obj/clouds_resources.o
 .debug_info    0x000e7ce4      0x8a3 build/obj/correlator.o
 .debug_info    0x000e8587       0xab build/obj/mu_law.o
 .debug_info    0x000e8632    0x16e7a build/obj/granular_processor.o
 .debug_info    0x000ff4ac     0x2a13 build/obj/frame_transformation.o
 .debug_info    0x00101ebf     0x1a4b build/obj/phase_vocoder.o
 .debug_info    0x0010390a     0x34fe build/obj/stft.o
 .debug_info    0x00106e08      0x286 build/obj/rings_resources.o
 .debug_info    0x0010708e     0x3ce1 build/obj/streams_resources.o
 .debug_info    0x0010ad6f     0x140c build/obj/compressor.o
 .debug_info    0x0010c17b     0x106b build/obj/envelope.o
 .debug_info    0x0010d1e6      0xb66 build/obj/follower.o
 .debug_info    0x0010dd4c      0x664 build/obj/lorenz_generator.o
 .debug_info    0x0010e3b0     0x3ac1 build/obj/processor.o
 .debug_info    0x00111e71      0x6a4 build/obj/svf.o
 .debug_info    0x00112515      0x7d0 build/obj/vactrol.o

.debug_abbrev   0x00000000    0x1bae0
 .debug_abbrev  0x00000000       0xec build/obj/crt0.o
 .debug_abbrev  0x000000ec       0xad build/obj/vectors.o
 .debug_abbrev  0x00000199       0x40 build/obj/chcore.o
 .debug_abbrev  0x000001d9      0x223 build/obj/chcore_v7m.o
 .debug_abbrev  0x000003fc      0x10c build/obj/nvic.o
 .debug_abbrev  0x00000508      0x20c build/obj/chsys.o
 .debug_abbrev  0x00000714       0x24 build/obj/chdebug.o
 .debug_abbrev  0x00000738       0x24 build/obj/chlists.o
 .debug_abbrev  0x0000075c      0x115 build/obj/chvt.o
 .debug_abbrev  0x00000871      0x303 build/obj/chschd.o
 .debug_abbrev  0x00000b74      0x376 build/obj/chthreads.o
 .debug_abbrev  0x00000eea       0x24 build/obj/chdynamic.o
 .debug_abbrev  0x00000f0e      0x13e build/obj/chregistry.o
 .debug_abbrev  0x0000104c      0x342 build/obj/chsem.o
 .debug_abbrev  0x0000138e      0x2fa build/obj/chmtx.o
 .debug_abbrev  0x00001688       0x24 build/obj/chcond.o
 .debug_abbrev  0x000016ac      0x2e6 build/obj/chevents.o
 .debug_abbrev  0x00001992      0x217 build/obj/chmsg.o
 .debug_abbrev  0x00001ba9       0x24 build/obj/chmboxes.o
 .debug_abbrev  0x00001bcd      0x341 build/obj/chqueues.o
 .debug_abbrev  0x00001f0e      0x159 build/obj/chmemcore.o
 .debug_abbrev  0x00002067      0x1de build/obj/chheap.o
 .debug_abbrev  0x00002245       0x24 build/obj/chmempools.o
 .debug_abbrev  0x00002269      0x1ca build/obj/hal.o
 .debug_abbrev  0x00002433      0x304 build/obj/adc.o
 .debug_abbrev  0x00002737       0x4b build/obj/can.o
 .debug_abbrev  0x00002782       0x4b build/obj/ext.o
 .debug_abbrev  0x000027cd       0x4b build/obj/gpt.o
 .debug_abbrev  0x00002818      0x27b build/obj/i2c.o
 .debug_abbrev  0x00002a93       0x4b build/obj/icu.o
 .debug_abbrev  0x00002ade       0x4b build/obj/mac.o
 .debug_abbrev  0x00002b29       0x4b build/obj/mmc_spi.o
 .debug_abbrev  0x00002b74      0x130 build/obj/mmcsd.o
 .debug_abbrev  0x00002ca4      0x123 build/obj/pal.o
 .debug_abbrev  0x00002dc7      0x19c build/obj/pwm.o
 .debug_abbrev  0x00002f63       0x4b build/obj/rtc.o
 .debug_abbrev  0x00002fae      0x34c build/obj/sdc.o
 .debug_abbrev  0x000032fa      0x2b9 build/obj/serial.o
 .debug_abbrev  0x000035b3       0x4b build/obj/serial_usb.o
 .debug_abbrev  0x000035fe      0x276 build/obj/spi.o
 .debug_abbrev  0x00003874      0x19a build/obj/tm.o
 .debug_abbrev  0x00003a0e       0x4b build/obj/uart.o
 .debug_abbrev  0x00003a59      0x42d build/obj/usb.o
 .debug_abbrev  0x00003e86      0x21f build/obj/stm32_dma.o
 .debug_abbrev  0x000040a5      0x12b build/obj/hal_lld.o
 .debug_abbrev  0x000041d0      0x324 build/obj/adc_lld.o
 .debug_abbrev  0x000044f4       0x4b build/obj/ext_lld_isr.o
 .debug_abbrev  0x0000453f       0x4b build/obj/can_lld.o
 .debug_abbrev  0x0000458a       0x4b build/obj/ext_lld.o
 .debug_abbrev  0x000045d5       0x4b build/obj/mac_lld.o
 .debug_abbrev  0x00004620      0x3ec build/obj/sdc_lld.o
 .debug_abbrev  0x00004a0c      0x1aa build/obj/pal_lld.o
 .debug_abbrev  0x00004bb6      0x3e6 build/obj/i2c_lld.o
 .debug_abbrev  0x00004f9c      0x518 build/obj/usb_lld.o
 .debug_abbrev  0x000054b4       0x4b build/obj/rtc_lld.o
 .debug_abbrev  0x000054ff      0x304 build/obj/spi_lld.o
 .debug_abbrev  0x00005803       0x4b build/obj/gpt_lld.o
 .debug_abbrev  0x0000584e       0x4b build/obj/icu_lld.o
 .debug_abbrev  0x00005899      0x23a build/obj/pwm_lld.o
 .debug_abbrev  0x00005ad3      0x32b build/obj/serial_lld.o
 .debug_abbrev  0x00005dfe       0x4b build/obj/uart_lld.o
 .debug_abbrev  0x00005e49      0x21c build/obj/board.o
 .debug_abbrev  0x00006065      0x220 build/obj/fatfs_diskio.o
 .debug_abbrev  0x00006285      0x1a7 build/obj/fatfs_syscall.o
 .debug_abbrev  0x0000642c      0x3b4 build/obj/ff.o
 .debug_abbrev  0x000067e0       0xb5 build/obj/ccsbcs.o
 .debug_abbrev  0x00006895      0x294 build/obj/chprintf.o
 .debug_abbrev  0x00006b29      0x16f build/obj/memstreams.o
 .debug_abbrev  0x00006c98      0x216 build/obj/axoloti_control.o
 .debug_abbrev  0x00006eae      0x45a build/obj/codec.o
 .debug_abbrev  0x00007308       0x8a build/obj/axoloti.o
 .debug_abbrev  0x00007392      0x1b4 build/obj/axoloti_filters.o
 .debug_abbrev  0x00007546      0x1d5 build/obj/axoloti_math.o
 .debug_abbrev  0x0000771b       0x7f build/obj/axoloti_oscs.o
 .debug_abbrev  0x0000779a      0x24a build/obj/axoloti_board.o
 .debug_abbrev  0x000079e4      0x150 build/obj/midi.o
 .debug_abbrev  0x00007b34      0x488 build/obj/ui.o
 .debug_abbrev  0x00007fbc       0x45 build/obj/glcdfont.o
 .debug_abbrev  0x00008001      0x33e build/obj/usbcfg.o
 .debug_abbrev  0x0000833f      0x34c build/obj/sdcard.o
 .debug_abbrev  0x0000868b      0x53c build/obj/pconnection.o
 .debug_abbrev  0x00008bc7      0x1d1 build/obj/parameters.o
 .debug_abbrev  0x00008d98      0x485 build/obj/main.o
 .debug_abbrev  0x0000921d      0x472 build/obj/patch.o
 .debug_abbrev  0x0000968f      0x17f build/obj/flash.o
 .debug_abbrev  0x0000980e       0x67 build/obj/virtual_control.o
 .debug_abbrev  0x00009875       0xc8 build/obj/arm_bitreversal.o
 .debug_abbrev  0x0000993d      0x187 build/obj/arm_cfft_f32.o
 .debug_abbrev  0x00009ac4      0x1f1 build/obj/arm_cfft_q15.o
 .debug_abbrev  0x00009cb5      0x120 build/obj/arm_cfft_q31.o
 .debug_abbrev  0x00009dd5      0x18d build/obj/arm_cfft_radix2_f32.o
 .debug_abbrev  0x00009f62       0xff build/obj/arm_cfft_radix2_init_f32.o
 .debug_abbrev  0x0000a061       0xff build/obj/arm_cfft_radix2_init_q15.o
 .debug_abbrev  0x0000a160       0xff build/obj/arm_cfft_radix2_init_q31.o
 .debug_abbrev  0x0000a25f      0x1d0 build/obj/arm_cfft_radix2_q15.o
 .debug_abbrev  0x0000a42f      0x110 build/obj/arm_cfft_radix2_q31.o
 .debug_abbrev  0x0000a53f      0x19c build/obj/arm_cfft_radix4_f32.o
 .debug_abbrev  0x0000a6db       0xff build/obj/arm_cfft_radix4_init_f32.o
 .debug_abbrev  0x0000a7da       0xff build/obj/arm_cfft_radix4_init_q15.o
 .debug_abbrev  0x0000a8d9       0xff build/obj/arm_cfft_radix4_init_q31.o
 .debug_abbrev  0x0000a9d8      0x201 build/obj/arm_cfft_radix4_q15.o
 .debug_abbrev  0x0000abd9      0x153 build/obj/arm_cfft_radix4_q31.o
 .debug_abbrev  0x0000ad2c       0xa4 build/obj/arm_cfft_radix8_f32.o
 .debug_abbrev  0x0000add0      0x16a build/obj/arm_rfft_f32.o
 .debug_abbrev  0x0000af3a      0x176 build/obj/arm_rfft_fast_f32.o
 .debug_abbrev  0x0000b0b0       0xf9 build/obj/arm_rfft_fast_init_f32.o
 .debug_abbrev  0x0000b1a9      0x13b build/obj/arm_rfft_init_f32.o
 .debug_abbrev  0x0000b2e4      0x112 build/obj/arm_rfft_init_q15.o
 .debug_abbrev  0x0000b3f6      0x112 build/obj/arm_rfft_init_q31.o
 .debug_abbrev  0x0000b508      0x21a build/obj/arm_rfft_q15.o
 .debug_abbrev  0x0000b722      0x12d build/obj/arm_rfft_q31.o
 .debug_abbrev  0x0000b84f       0xb1 build/obj/arm_mult_q31.o
 .debug_abbrev  0x0000b900       0x9e build/obj/arm_mult_q15.o
 .debug_abbrev  0x0000b99e       0x8e build/obj/arm_mult_f32.o
 .debug_abbrev  0x0000ba2c       0xe6 build/obj/arm_shift_q31.o
 .debug_abbrev  0x0000bb12       0xbc build/obj/arm_shift_q15.o
 .debug_abbrev  0x0000bbce       0x9f build/obj/arm_scale_f32.o
 .debug_abbrev  0x0000bc6d       0x9d build/obj/arm_cmplx_mult_cmplx_q31.o
 .debug_abbrev  0x0000bd0a       0x90 build/obj/arm_cmplx_mult_cmplx_f32.o
 .debug_abbrev  0x0000bd9a       0xe4 build/obj/arm_cmplx_mag_q31.o
 .debug_abbrev  0x0000be7e       0x90 build/obj/arm_cmplx_mult_cmplx_q15.o
 .debug_abbrev  0x0000bf0e      0x13f build/obj/arm_cmplx_mag_q15.o
 .debug_abbrev  0x0000c04d       0xde build/obj/arm_cos_q31.o
 .debug_abbrev  0x0000c12b       0xcf build/obj/arm_sin_q31.o
 .debug_abbrev  0x0000c1fa       0xc2 build/obj/arm_sqrt_q31.o
 .debug_abbrev  0x0000c2bc       0xcf build/obj/arm_sqrt_q15.o
 .debug_abbrev  0x0000c38b       0xe4 build/obj/arm_fir_init_q31.o
 .debug_abbrev  0x0000c46f       0xc4 build/obj/arm_fir_fast_q31.o
 .debug_abbrev  0x0000c533       0xe4 build/obj/arm_biquad_cascade_df1_32x64_init_q31.o
 .debug_abbrev  0x0000c617      0x134 build/obj/arm_biquad_cascade_df1_32x64_q31.o
 .debug_abbrev  0x0000c74b       0xe2 build/obj/arm_biquad_cascade_df1_fast_q31.o
 .debug_abbrev  0x0000c82d       0xe4 build/obj/arm_biquad_cascade_df1_init_q31.o
 .debug_abbrev  0x0000c911       0xc4 build/obj/arm_biquad_cascade_df1_q31.o
 .debug_abbrev  0x0000c9d5      0x10b build/obj/arm_fir_interpolate_init_q31.o
 .debug_abbrev  0x0000cae0       0xd3 build/obj/arm_fir_interpolate_q31.o
 .debug_abbrev  0x0000cbb3      0x10b build/obj/arm_fir_decimate_init_q31.o
 .debug_abbrev  0x0000ccbe       0xd3 build/obj/arm_fir_decimate_q31.o
 .debug_abbrev  0x0000cd91       0xd9 build/obj/arm_fir_decimate_fast_q31.o
 .debug_abbrev  0x0000ce6a       0xd5 build/obj/arm_fir_lattice_init_q31.o
 .debug_abbrev  0x0000cf3f       0xc4 build/obj/arm_fir_lattice_q31.o
 .debug_abbrev  0x0000d003       0xe4 build/obj/arm_iir_lattice_init_q31.o
 .debug_abbrev  0x0000d0e7      0x151 build/obj/arm_iir_lattice_q31.o
 .debug_abbrev  0x0000d238       0x82 build/obj/arm_common_tables.o
 .debug_abbrev  0x0000d2ba       0xc9 build/obj/arm_const_structs.o
 .debug_abbrev  0x0000d383      0x4c2 build/obj/usbh_core.o
 .debug_abbrev  0x0000d845      0x416 build/obj/usbh_ctlreq.o
 .debug_abbrev  0x0000dc5b      0x2c5 build/obj/usbh_ioreq.o
 .debug_abbrev  0x0000df20      0x29e build/obj/usbh_pipes.o
 .debug_abbrev  0x0000e1be      0x494 build/obj/usbh_hid.o
 .debug_abbrev  0x0000e652      0x2fa build/obj/usbh_hid_keybd.o
 .debug_abbrev  0x0000e94c      0x2cf build/obj/usbh_hid_mouse.o
 .debug_abbrev  0x0000ec1b       0xe4 build/obj/usbh_hid_parser.o
 .debug_abbrev  0x0000ecff      0x381 build/obj/stm32f4xx_ll_usb.o
 .debug_abbrev  0x0000f080      0x1c6 build/obj/stm32f4xx_hal_gpio.o
 .debug_abbrev  0x0000f246      0x2c1 build/obj/stm32f4xx_hal_cortex.o
 .debug_abbrev  0x0000f507      0x2de build/obj/stm32f4xx_hal_hcd.o
 .debug_abbrev  0x0000f7e5      0x2a4 build/obj/stm32f4xx_hal_i2c.o
 .debug_abbrev  0x0000fa89      0x521 build/obj/usbh_midi_core.o
 .debug_abbrev  0x0000ffaa      0x2f5 build/obj/usbh_vendor.o
 .debug_abbrev  0x0001029f      0x414 build/obj/usbh_conf.o
 .debug_abbrev  0x000106b3      0x30a build/obj/serial_midi.o
 .debug_abbrev  0x000109bd      0x3d7 build/obj/bulk_usb.o
 .debug_abbrev  0x00010d94      0x4a8 build/obj/midi_usb.o
 .debug_abbrev  0x0001123c      0x2ec build/obj/spilink.o
 .debug_abbrev  0x00011528      0x2fe build/obj/spidb.o
 .debug_abbrev  0x00011826      0x17d build/obj/crc32.o
 .debug_abbrev  0x000119a3      0x350 build/obj/exceptions.o
 .debug_abbrev  0x00011cf3       0x67 build/obj/watchdog.o
 .debug_abbrev  0x00011d5a      0x2f5 build/obj/sysmon.o
 .debug_abbrev  0x0001204f      0x129 build/obj/axoloti_memory.o
 .debug_abbrev  0x00012178       0xbd build/obj/units.o
 .debug_abbrev  0x00012235       0xbd build/obj/atan.o
 .debug_abbrev  0x000122f2       0xf3 build/obj/random.o
 .debug_abbrev  0x000123e5       0x91 build/obj/mutable_resources.o
 .debug_abbrev  0x00012476      0x112 build/obj/braids_resources.o
 .debug_abbrev  0x00012588      0x1f5 build/obj/analog_oscillator.o
 .debug_abbrev  0x0001277d      0x26d build/obj/digital_oscillator.o
 .debug_abbrev  0x000129ea      0x26d build/obj/macro_oscillator.o
 .debug_abbrev  0x00012c57      0x11e build/obj/warps_resources.o
 .debug_abbrev  0x00012d75      0x6e2 build/obj/filter_bank.o
 .debug_abbrev  0x00013457      0x845 build/obj/modulator.o
 .debug_abbrev  0x00013c9c      0x6c8 build/obj/oscillator.o
 .debug_abbrev  0x00014364      0x609 build/obj/vocoder.o
 .debug_abbrev  0x0001496d      0x253 build/obj/axoloti_mi.o
 .debug_abbrev  0x00014bc0      0x31f build/obj/multistage_envelope.o
 .debug_abbrev  0x00014edf      0x851 build/obj/ominous_voice.o
 .debug_abbrev  0x00015730      0x6b8 build/obj/resonator.o
 .debug_abbrev  0x00015de8      0x721 build/obj/string.o
 .debug_abbrev  0x00016509      0x399 build/obj/tube.o
 .debug_abbrev  0x000168a2      0x7b6 build/obj/exciter.o
 .debug_abbrev  0x00017058      0x161 build/obj/elements_resources.o
 .debug_abbrev  0x000171b9      0x81f build/obj/part.o
 .debug_abbrev  0x000179d8      0x7dc build/obj/voice.o
 .debug_abbrev  0x000181b4      0x12b build/obj/clouds_resources.o
 .debug_abbrev  0x000182df      0x25c build/obj/correlator.o
 .debug_abbrev  0x0001853b       0x6a build/obj/mu_law.o
 .debug_abbrev  0x000185a5      0xa2f build/obj/granular_processor.o
 .debug_abbrev  0x00018fd4      0x63d build/obj/frame_transformation.o
 .debug_abbrev  0x00019611      0x4b2 build/obj/phase_vocoder.o
 .debug_abbrev  0x00019ac3      0x675 build/obj/stft.o
 .debug_abbrev  0x0001a138       0xdb build/obj/rings_resources.o
 .debug_abbrev  0x0001a213      0x112 build/obj/streams_resources.o
 .debug_abbrev  0x0001a325      0x3e9 build/obj/compressor.o
 .debug_abbrev  0x0001a70e      0x3e1 build/obj/envelope.o
 .debug_abbrev  0x0001aaef      0x316 build/obj/follower.o
 .debug_abbrev  0x0001ae05      0x20d build/obj/lorenz_generator.o
 .debug_abbrev  0x0001b012      0x5f8 build/obj/processor.o
 .debug_abbrev  0x0001b60a      0x264 build/obj/svf.o
 .debug_abbrev  0x0001b86e      0x272 build/obj/vactrol.o

.debug_loc      0x00000000    0x6eedc
 .debug_loc     0x00000000       0xda build/obj/crt0.o
 .debug_loc     0x000000da       0x5e build/obj/chcore_v7m.o
 .debug_loc     0x00000138      0x158 build/obj/nvic.o
 .debug_loc     0x00000290       0x31 build/obj/chsys.o
 .debug_loc     0x000002c1       0x67 build/obj/chvt.o
 .debug_loc     0x00000328      0x301 build/obj/chschd.o
 .debug_loc     0x00000629      0x4de build/obj/chthreads.o
 .debug_loc     0x00000b07       0x21 build/obj/chregistry.o
 .debug_loc     0x00000b28      0x548 build/obj/chsem.o
 .debug_loc     0x00001070      0x3ba build/obj/chmtx.o
 .debug_loc     0x0000142a      0x5cd build/obj/chevents.o
 .debug_loc     0x000019f7       0xf1 build/obj/chmsg.o
 .debug_loc     0x00001ae8      0x679 build/obj/chqueues.o
 .debug_loc     0x00002161       0xb0 build/obj/chmemcore.o
 .debug_loc     0x00002211      0x3a1 build/obj/chheap.o
 .debug_loc     0x000025b2       0x87 build/obj/hal.o
 .debug_loc     0x00002639      0x3e6 build/obj/adc.o
 .debug_loc     0x00002a1f      0x205 build/obj/i2c.o
 .debug_loc     0x00002c24      0x131 build/obj/mmcsd.o
 .debug_loc     0x00002d55       0xb0 build/obj/pal.o
 .debug_loc     0x00002e05      0x102 build/obj/pwm.o
 .debug_loc     0x00002f07      0x42d build/obj/sdc.o
 .debug_loc     0x00003334      0x4e4 build/obj/serial.o
 .debug_loc     0x00003818      0x468 build/obj/spi.o
 .debug_loc     0x00003c80       0x58 build/obj/tm.o
 .debug_loc     0x00003cd8      0xbda build/obj/usb.o
 .debug_loc     0x000048b2      0x286 build/obj/stm32_dma.o
 .debug_loc     0x00004b38      0x306 build/obj/adc_lld.o
 .debug_loc     0x00004e3e      0xb4d build/obj/sdc_lld.o
 .debug_loc     0x0000598b      0x129 build/obj/pal_lld.o
 .debug_loc     0x00005ab4      0x67e build/obj/i2c_lld.o
 .debug_loc     0x00006132      0xf68 build/obj/usb_lld.o
 .debug_loc     0x0000709a      0x278 build/obj/spi_lld.o
 .debug_loc     0x00007312      0x323 build/obj/pwm_lld.o
 .debug_loc     0x00007635      0x327 build/obj/serial_lld.o
 .debug_loc     0x0000795c       0x63 build/obj/board.o
 .debug_loc     0x000079bf      0x2e5 build/obj/fatfs_diskio.o
 .debug_loc     0x00007ca4       0xb8 build/obj/fatfs_syscall.o
 .debug_loc     0x00007d5c     0x7210 build/obj/ff.o
 .debug_loc     0x0000ef6c       0x4c build/obj/ccsbcs.o
 .debug_loc     0x0000efb8      0x898 build/obj/chprintf.o
 .debug_loc     0x0000f850      0x1d5 build/obj/memstreams.o
 .debug_loc     0x0000fa25     0x1255 build/obj/axoloti_control.o
 .debug_loc     0x00010c7a      0x408 build/obj/codec.o
 .debug_loc     0x00011082      0x760 build/obj/axoloti_filters.o
 .debug_loc     0x000117e2      0x275 build/obj/axoloti_math.o
 .debug_loc     0x00011a57      0x57e build/obj/midi.o
 .debug_loc     0x00011fd5      0xf00 build/obj/ui.o
 .debug_loc     0x00012ed5      0x51c build/obj/usbcfg.o
 .debug_loc     0x000133f1      0x12b build/obj/sdcard.o
 .debug_loc     0x0001351c      0x611 build/obj/pconnection.o
 .debug_loc     0x00013b2d      0x280 build/obj/parameters.o
 .debug_loc     0x00013dad      0xc6b build/obj/main.o
 .debug_loc     0x00014a18      0x5cb build/obj/patch.o
 .debug_loc     0x00014fe3       0x84 build/obj/flash.o
 .debug_loc     0x00015067      0x308 build/obj/arm_bitreversal.o
 .debug_loc     0x0001536f     0x102c build/obj/arm_cfft_f32.o
 .debug_loc     0x0001639b      0xb83 build/obj/arm_cfft_q15.o
 .debug_loc     0x00016f1e      0x831 build/obj/arm_cfft_q31.o
 .debug_loc     0x0001774f      0xacd build/obj/arm_cfft_radix2_f32.o
 .debug_loc     0x0001821c      0x4c2 build/obj/arm_cfft_radix2_init_f32.o
 .debug_loc     0x000186de      0x49c build/obj/arm_cfft_radix2_init_q15.o
 .debug_loc     0x00018b7a      0x49c build/obj/arm_cfft_radix2_init_q31.o
 .debug_loc     0x00019016     0x1797 build/obj/arm_cfft_radix2_q15.o
 .debug_loc     0x0001a7ad      0x9ee build/obj/arm_cfft_radix2_q31.o
 .debug_loc     0x0001b19b     0x1bee build/obj/arm_cfft_radix4_f32.o
 .debug_loc     0x0001cd89      0x2bc build/obj/arm_cfft_radix4_init_f32.o
 .debug_loc     0x0001d045      0x296 build/obj/arm_cfft_radix4_init_q15.o
 .debug_loc     0x0001d2db      0x296 build/obj/arm_cfft_radix4_init_q31.o
 .debug_loc     0x0001d571     0x21da build/obj/arm_cfft_radix4_q15.o
 .debug_loc     0x0001f74b     0x126f build/obj/arm_cfft_radix4_q31.o
 .debug_loc     0x000209ba      0x86e build/obj/arm_cfft_radix8_f32.o
 .debug_loc     0x00021228      0x616 build/obj/arm_rfft_f32.o
 .debug_loc     0x0002183e      0x833 build/obj/arm_rfft_fast_f32.o
 .debug_loc     0x00022071      0x156 build/obj/arm_rfft_fast_init_f32.o
 .debug_loc     0x000221c7      0x144 build/obj/arm_rfft_init_f32.o
 .debug_loc     0x0002230b      0x3f9 build/obj/arm_rfft_init_q15.o
 .debug_loc     0x00022704      0x3f9 build/obj/arm_rfft_init_q31.o
 .debug_loc     0x00022afd      0x78f build/obj/arm_rfft_q15.o
 .debug_loc     0x0002328c      0x65e build/obj/arm_rfft_q31.o
 .debug_loc     0x000238ea      0x2c3 build/obj/arm_mult_q31.o
 .debug_loc     0x00023bad      0x42b build/obj/arm_mult_q15.o
 .debug_loc     0x00023fd8      0x232 build/obj/arm_mult_f32.o
 .debug_loc     0x0002420a      0x3e6 build/obj/arm_shift_q31.o
 .debug_loc     0x000245f0      0x358 build/obj/arm_shift_q15.o
 .debug_loc     0x00024948      0x1aa build/obj/arm_scale_f32.o
 .debug_loc     0x00024af2      0x5b6 build/obj/arm_cmplx_mult_cmplx_q31.o
 .debug_loc     0x000250a8      0x3df build/obj/arm_cmplx_mult_cmplx_f32.o
 .debug_loc     0x00025487      0x3fc build/obj/arm_cmplx_mag_q31.o
 .debug_loc     0x00025883      0x4ce build/obj/arm_cmplx_mult_cmplx_q15.o
 .debug_loc     0x00025d51      0x279 build/obj/arm_cmplx_mag_q15.o
 .debug_loc     0x00025fca       0x4f build/obj/arm_cos_q31.o
 .debug_loc     0x00026019       0x6d build/obj/arm_sin_q31.o
 .debug_loc     0x00026086      0x19d build/obj/arm_sqrt_q31.o
 .debug_loc     0x00026223      0x11e build/obj/arm_sqrt_q15.o
 .debug_loc     0x00026341       0xa2 build/obj/arm_fir_init_q31.o
 .debug_loc     0x000263e3      0x661 build/obj/arm_fir_fast_q31.o
 .debug_loc     0x00026a44       0xae build/obj/arm_biquad_cascade_df1_32x64_init_q31.o
 .debug_loc     0x00026af2      0xa9f build/obj/arm_biquad_cascade_df1_32x64_q31.o
 .debug_loc     0x00027591      0x522 build/obj/arm_biquad_cascade_df1_fast_q31.o
 .debug_loc     0x00027ab3       0x96 build/obj/arm_biquad_cascade_df1_init_q31.o
 .debug_loc     0x00027b49      0x9d0 build/obj/arm_biquad_cascade_df1_q31.o
 .debug_loc     0x00028519      0x134 build/obj/arm_fir_interpolate_init_q31.o
 .debug_loc     0x0002864d      0x9b8 build/obj/arm_fir_interpolate_q31.o
 .debug_loc     0x00029005      0x134 build/obj/arm_fir_decimate_init_q31.o
 .debug_loc     0x00029139      0x555 build/obj/arm_fir_decimate_q31.o
 .debug_loc     0x0002968e      0x9e3 build/obj/arm_fir_decimate_fast_q31.o
 .debug_loc     0x0002a071       0xa2 build/obj/arm_fir_lattice_init_q31.o
 .debug_loc     0x0002a113      0x580 build/obj/arm_fir_lattice_q31.o
 .debug_loc     0x0002a693       0xa5 build/obj/arm_iir_lattice_init_q31.o
 .debug_loc     0x0002a738      0xd0c build/obj/arm_iir_lattice_q31.o
 .debug_loc     0x0002b444      0xa27 build/obj/usbh_core.o
 .debug_loc     0x0002be6b      0xf61 build/obj/usbh_ctlreq.o
 .debug_loc     0x0002cdcc      0x6ac build/obj/usbh_ioreq.o
 .debug_loc     0x0002d478      0x184 build/obj/usbh_pipes.o
 .debug_loc     0x0002d5fc      0x988 build/obj/usbh_hid.o
 .debug_loc     0x0002df84      0x14d build/obj/usbh_hid_keybd.o
 .debug_loc     0x0002e0d1       0xb5 build/obj/usbh_hid_mouse.o
 .debug_loc     0x0002e186      0x335 build/obj/usbh_hid_parser.o
 .debug_loc     0x0002e4bb     0x1b4d build/obj/stm32f4xx_ll_usb.o
 .debug_loc     0x00030008      0x49f build/obj/stm32f4xx_hal_gpio.o
 .debug_loc     0x000304a7      0x54a build/obj/stm32f4xx_hal_cortex.o
 .debug_loc     0x000309f1      0xb0d build/obj/stm32f4xx_hal_hcd.o
 .debug_loc     0x000314fe     0x2db1 build/obj/stm32f4xx_hal_i2c.o
 .debug_loc     0x000342af      0xbc5 build/obj/usbh_midi_core.o
 .debug_loc     0x00034e74       0x76 build/obj/usbh_vendor.o
 .debug_loc     0x00034eea      0x5be build/obj/usbh_conf.o
 .debug_loc     0x000354a8      0x20a build/obj/serial_midi.o
 .debug_loc     0x000356b2      0x694 build/obj/bulk_usb.o
 .debug_loc     0x00035d46      0xa8f build/obj/midi_usb.o
 .debug_loc     0x000367d5      0x197 build/obj/spilink.o
 .debug_loc     0x0003696c      0x2ef build/obj/spidb.o
 .debug_loc     0x00036c5b      0x1b6 build/obj/crc32.o
 .debug_loc     0x00036e11      0x444 build/obj/exceptions.o
 .debug_loc     0x00037255      0x152 build/obj/sysmon.o
 .debug_loc     0x000373a7       0xdf build/obj/axoloti_memory.o
 .debug_loc     0x00037486     0x2b23 build/obj/filter_bank.o
 .debug_loc     0x00039fa9     0x91bb build/obj/modulator.o
 .debug_loc     0x00043164     0x1185 build/obj/oscillator.o
 .debug_loc     0x000442e9      0x75f build/obj/vocoder.o
 .debug_loc     0x00044a48      0x17f build/obj/axoloti_mi.o
 .debug_loc     0x00044bc7     0x227a build/obj/ominous_voice.o
 .debug_loc     0x00046e41      0xe9a build/obj/resonator.o
 .debug_loc     0x00047cdb     0x24f5 build/obj/string.o
 .debug_loc     0x0004a1d0      0x1db build/obj/tube.o
 .debug_loc     0x0004a3ab      0xef8 build/obj/exciter.o
 .debug_loc     0x0004b2a3     0x2093 build/obj/part.o
 .debug_loc     0x0004d336     0x2387 build/obj/voice.o
 .debug_loc     0x0004f6bd      0x254 build/obj/correlator.o
 .debug_loc     0x0004f911    0x18bec build/obj/granular_processor.o
 .debug_loc     0x000684fd     0x1ebe build/obj/frame_transformation.o
 .debug_loc     0x0006a3bb      0x7b1 build/obj/phase_vocoder.o
 .debug_loc     0x0006ab6c     0x1fc5 build/obj/stft.o
 .debug_loc     0x0006cb31      0x47f build/obj/compressor.o
 .debug_loc     0x0006cfb0      0x231 build/obj/envelope.o
 .debug_loc     0x0006d1e1      0x349 build/obj/follower.o
 .debug_loc     0x0006d52a      0x177 build/obj/lorenz_generator.o
 .debug_loc     0x0006d6a1     0x112b build/obj/processor.o
 .debug_loc     0x0006e7cc      0x124 build/obj/svf.o
 .debug_loc     0x0006e8f0      0x5ec build/obj/vactrol.o

.debug_aranges  0x00000000     0x19f0
 .debug_aranges
                0x00000000       0x20 build/obj/crt0.o
 .debug_aranges
                0x00000020       0x20 build/obj/vectors.o
 .debug_aranges
                0x00000040       0x20 build/obj/chcore.o
 .debug_aranges
                0x00000060       0x20 build/obj/chcore_v7m.o
 .debug_aranges
                0x00000080       0x20 build/obj/nvic.o
 .debug_aranges
                0x000000a0       0x20 build/obj/chsys.o
 .debug_aranges
                0x000000c0       0x18 build/obj/chdebug.o
 .debug_aranges
                0x000000d8       0x18 build/obj/chlists.o
 .debug_aranges
                0x000000f0       0x20 build/obj/chvt.o
 .debug_aranges
                0x00000110       0x20 build/obj/chschd.o
 .debug_aranges
                0x00000130       0x20 build/obj/chthreads.o
 .debug_aranges
                0x00000150       0x18 build/obj/chdynamic.o
 .debug_aranges
                0x00000168       0x20 build/obj/chregistry.o
 .debug_aranges
                0x00000188       0x20 build/obj/chsem.o
 .debug_aranges
                0x000001a8       0x20 build/obj/chmtx.o
 .debug_aranges
                0x000001c8       0x18 build/obj/chcond.o
 .debug_aranges
                0x000001e0       0x20 build/obj/chevents.o
 .debug_aranges
                0x00000200       0x20 build/obj/chmsg.o
 .debug_aranges
                0x00000220       0x18 build/obj/chmboxes.o
 .debug_aranges
                0x00000238       0x20 build/obj/chqueues.o
 .debug_aranges
                0x00000258       0x20 build/obj/chmemcore.o
 .debug_aranges
                0x00000278       0x20 build/obj/chheap.o
 .debug_aranges
                0x00000298       0x18 build/obj/chmempools.o
 .debug_aranges
                0x000002b0       0x20 build/obj/hal.o
 .debug_aranges
                0x000002d0       0x20 build/obj/adc.o
 .debug_aranges
                0x000002f0       0x18 build/obj/can.o
 .debug_aranges
                0x00000308       0x18 build/obj/ext.o
 .debug_aranges
                0x00000320       0x18 build/obj/gpt.o
 .debug_aranges
                0x00000338       0x20 build/obj/i2c.o
 .debug_aranges
                0x00000358       0x18 build/obj/icu.o
 .debug_aranges
                0x00000370       0x18 build/obj/mac.o
 .debug_aranges
                0x00000388       0x18 build/obj/mmc_spi.o
 .debug_aranges
                0x000003a0       0x20 build/obj/mmcsd.o
 .debug_aranges
                0x000003c0       0x20 build/obj/pal.o
 .debug_aranges
                0x000003e0       0x20 build/obj/pwm.o
 .debug_aranges
                0x00000400       0x18 build/obj/rtc.o
 .debug_aranges
                0x00000418       0x20 build/obj/sdc.o
 .debug_aranges
                0x00000438       0x20 build/obj/serial.o
 .debug_aranges
                0x00000458       0x18 build/obj/serial_usb.o
 .debug_aranges
                0x00000470       0x20 build/obj/spi.o
 .debug_aranges
                0x00000490       0x20 build/obj/tm.o
 .debug_aranges
                0x000004b0       0x18 build/obj/uart.o
 .debug_aranges
                0x000004c8       0x20 build/obj/usb.o
 .debug_aranges
                0x000004e8       0x20 build/obj/stm32_dma.o
 .debug_aranges
                0x00000508       0x20 build/obj/hal_lld.o
 .debug_aranges
                0x00000528       0x20 build/obj/adc_lld.o
 .debug_aranges
                0x00000548       0x18 build/obj/ext_lld_isr.o
 .debug_aranges
                0x00000560       0x18 build/obj/can_lld.o
 .debug_aranges
                0x00000578       0x18 build/obj/ext_lld.o
 .debug_aranges
                0x00000590       0x18 build/obj/mac_lld.o
 .debug_aranges
                0x000005a8       0x20 build/obj/sdc_lld.o
 .debug_aranges
                0x000005c8       0x20 build/obj/pal_lld.o
 .debug_aranges
                0x000005e8       0x20 build/obj/i2c_lld.o
 .debug_aranges
                0x00000608       0x20 build/obj/usb_lld.o
 .debug_aranges
                0x00000628       0x18 build/obj/rtc_lld.o
 .debug_aranges
                0x00000640       0x20 build/obj/spi_lld.o
 .debug_aranges
                0x00000660       0x18 build/obj/gpt_lld.o
 .debug_aranges
                0x00000678       0x18 build/obj/icu_lld.o
 .debug_aranges
                0x00000690       0x20 build/obj/pwm_lld.o
 .debug_aranges
                0x000006b0       0x20 build/obj/serial_lld.o
 .debug_aranges
                0x000006d0       0x18 build/obj/uart_lld.o
 .debug_aranges
                0x000006e8       0x20 build/obj/board.o
 .debug_aranges
                0x00000708       0x20 build/obj/fatfs_diskio.o
 .debug_aranges
                0x00000728       0x20 build/obj/fatfs_syscall.o
 .debug_aranges
                0x00000748       0x20 build/obj/ff.o
 .debug_aranges
                0x00000768       0x20 build/obj/ccsbcs.o
 .debug_aranges
                0x00000788       0x20 build/obj/chprintf.o
 .debug_aranges
                0x000007a8       0x20 build/obj/memstreams.o
 .debug_aranges
                0x000007c8       0x20 build/obj/axoloti_control.o
 .debug_aranges
                0x000007e8       0x20 build/obj/codec.o
 .debug_aranges
                0x00000808       0x20 build/obj/axoloti.o
 .debug_aranges
                0x00000828       0x20 build/obj/axoloti_filters.o
 .debug_aranges
                0x00000848       0x20 build/obj/axoloti_math.o
 .debug_aranges
                0x00000868       0x18 build/obj/axoloti_oscs.o
 .debug_aranges
                0x00000880       0x20 build/obj/axoloti_board.o
 .debug_aranges
                0x000008a0       0x20 build/obj/midi.o
 .debug_aranges
                0x000008c0       0x20 build/obj/ui.o
 .debug_aranges
                0x000008e0       0x18 build/obj/glcdfont.o
 .debug_aranges
                0x000008f8       0x20 build/obj/usbcfg.o
 .debug_aranges
                0x00000918       0x20 build/obj/sdcard.o
 .debug_aranges
                0x00000938       0x20 build/obj/pconnection.o
 .debug_aranges
                0x00000958       0x20 build/obj/parameters.o
 .debug_aranges
                0x00000978       0x28 build/obj/main.o
 .debug_aranges
                0x000009a0       0x20 build/obj/patch.o
 .debug_aranges
                0x000009c0       0x30 build/obj/flash.o
 .debug_aranges
                0x000009f0       0x20 build/obj/virtual_control.o
 .debug_aranges
                0x00000a10       0x20 build/obj/arm_bitreversal.o
 .debug_aranges
                0x00000a30       0x20 build/obj/arm_cfft_f32.o
 .debug_aranges
                0x00000a50       0x20 build/obj/arm_cfft_q15.o
 .debug_aranges
                0x00000a70       0x20 build/obj/arm_cfft_q31.o
 .debug_aranges
                0x00000a90       0x20 build/obj/arm_cfft_radix2_f32.o
 .debug_aranges
                0x00000ab0       0x20 build/obj/arm_cfft_radix2_init_f32.o
 .debug_aranges
                0x00000ad0       0x20 build/obj/arm_cfft_radix2_init_q15.o
 .debug_aranges
                0x00000af0       0x20 build/obj/arm_cfft_radix2_init_q31.o
 .debug_aranges
                0x00000b10       0x20 build/obj/arm_cfft_radix2_q15.o
 .debug_aranges
                0x00000b30       0x20 build/obj/arm_cfft_radix2_q31.o
 .debug_aranges
                0x00000b50       0x20 build/obj/arm_cfft_radix4_f32.o
 .debug_aranges
                0x00000b70       0x20 build/obj/arm_cfft_radix4_init_f32.o
 .debug_aranges
                0x00000b90       0x20 build/obj/arm_cfft_radix4_init_q15.o
 .debug_aranges
                0x00000bb0       0x20 build/obj/arm_cfft_radix4_init_q31.o
 .debug_aranges
                0x00000bd0       0x20 build/obj/arm_cfft_radix4_q15.o
 .debug_aranges
                0x00000bf0       0x20 build/obj/arm_cfft_radix4_q31.o
 .debug_aranges
                0x00000c10       0x20 build/obj/arm_cfft_radix8_f32.o
 .debug_aranges
                0x00000c30       0x20 build/obj/arm_rfft_f32.o
 .debug_aranges
                0x00000c50       0x20 build/obj/arm_rfft_fast_f32.o
 .debug_aranges
                0x00000c70       0x20 build/obj/arm_rfft_fast_init_f32.o
 .debug_aranges
                0x00000c90       0x20 build/obj/arm_rfft_init_f32.o
 .debug_aranges
                0x00000cb0       0x20 build/obj/arm_rfft_init_q15.o
 .debug_aranges
                0x00000cd0       0x20 build/obj/arm_rfft_init_q31.o
 .debug_aranges
                0x00000cf0       0x20 build/obj/arm_rfft_q15.o
 .debug_aranges
                0x00000d10       0x20 build/obj/arm_rfft_q31.o
 .debug_aranges
                0x00000d30       0x20 build/obj/arm_mult_q31.o
 .debug_aranges
                0x00000d50       0x20 build/obj/arm_mult_q15.o
 .debug_aranges
                0x00000d70       0x20 build/obj/arm_mult_f32.o
 .debug_aranges
                0x00000d90       0x20 build/obj/arm_shift_q31.o
 .debug_aranges
                0x00000db0       0x20 build/obj/arm_shift_q15.o
 .debug_aranges
                0x00000dd0       0x20 build/obj/arm_scale_f32.o
 .debug_aranges
                0x00000df0       0x20 build/obj/arm_cmplx_mult_cmplx_q31.o
 .debug_aranges
                0x00000e10       0x20 build/obj/arm_cmplx_mult_cmplx_f32.o
 .debug_aranges
                0x00000e30       0x20 build/obj/arm_cmplx_mag_q31.o
 .debug_aranges
                0x00000e50       0x20 build/obj/arm_cmplx_mult_cmplx_q15.o
 .debug_aranges
                0x00000e70       0x20 build/obj/arm_cmplx_mag_q15.o
 .debug_aranges
                0x00000e90       0x20 build/obj/arm_cos_q31.o
 .debug_aranges
                0x00000eb0       0x20 build/obj/arm_sin_q31.o
 .debug_aranges
                0x00000ed0       0x20 build/obj/arm_sqrt_q31.o
 .debug_aranges
                0x00000ef0       0x20 build/obj/arm_sqrt_q15.o
 .debug_aranges
                0x00000f10       0x20 build/obj/arm_fir_init_q31.o
 .debug_aranges
                0x00000f30       0x20 build/obj/arm_fir_fast_q31.o
 .debug_aranges
                0x00000f50       0x20 build/obj/arm_biquad_cascade_df1_32x64_init_q31.o
 .debug_aranges
                0x00000f70       0x20 build/obj/arm_biquad_cascade_df1_32x64_q31.o
 .debug_aranges
                0x00000f90       0x20 build/obj/arm_biquad_cascade_df1_fast_q31.o
 .debug_aranges
                0x00000fb0       0x20 build/obj/arm_biquad_cascade_df1_init_q31.o
 .debug_aranges
                0x00000fd0       0x20 build/obj/arm_biquad_cascade_df1_q31.o
 .debug_aranges
                0x00000ff0       0x20 build/obj/arm_fir_interpolate_init_q31.o
 .debug_aranges
                0x00001010       0x20 build/obj/arm_fir_interpolate_q31.o
 .debug_aranges
                0x00001030       0x20 build/obj/arm_fir_decimate_init_q31.o
 .debug_aranges
                0x00001050       0x20 build/obj/arm_fir_decimate_q31.o
 .debug_aranges
                0x00001070       0x20 build/obj/arm_fir_decimate_fast_q31.o
 .debug_aranges
                0x00001090       0x20 build/obj/arm_fir_lattice_init_q31.o
 .debug_aranges
                0x000010b0       0x20 build/obj/arm_fir_lattice_q31.o
 .debug_aranges
                0x000010d0       0x20 build/obj/arm_iir_lattice_init_q31.o
 .debug_aranges
                0x000010f0       0x20 build/obj/arm_iir_lattice_q31.o
 .debug_aranges
                0x00001110       0x18 build/obj/arm_common_tables.o
 .debug_aranges
                0x00001128       0x18 build/obj/arm_const_structs.o
 .debug_aranges
                0x00001140       0x20 build/obj/usbh_core.o
 .debug_aranges
                0x00001160       0x20 build/obj/usbh_ctlreq.o
 .debug_aranges
                0x00001180       0x20 build/obj/usbh_ioreq.o
 .debug_aranges
                0x000011a0       0x20 build/obj/usbh_pipes.o
 .debug_aranges
                0x000011c0       0x20 build/obj/usbh_hid.o
 .debug_aranges
                0x000011e0       0x20 build/obj/usbh_hid_keybd.o
 .debug_aranges
                0x00001200       0x20 build/obj/usbh_hid_mouse.o
 .debug_aranges
                0x00001220       0x20 build/obj/usbh_hid_parser.o
 .debug_aranges
                0x00001240       0x20 build/obj/stm32f4xx_ll_usb.o
 .debug_aranges
                0x00001260       0x20 build/obj/stm32f4xx_hal_gpio.o
 .debug_aranges
                0x00001280       0x20 build/obj/stm32f4xx_hal_cortex.o
 .debug_aranges
                0x000012a0       0x20 build/obj/stm32f4xx_hal_hcd.o
 .debug_aranges
                0x000012c0       0x20 build/obj/stm32f4xx_hal_i2c.o
 .debug_aranges
                0x000012e0       0x20 build/obj/usbh_midi_core.o
 .debug_aranges
                0x00001300       0x20 build/obj/usbh_vendor.o
 .debug_aranges
                0x00001320       0x20 build/obj/usbh_conf.o
 .debug_aranges
                0x00001340       0x20 build/obj/serial_midi.o
 .debug_aranges
                0x00001360       0x20 build/obj/bulk_usb.o
 .debug_aranges
                0x00001380       0x20 build/obj/midi_usb.o
 .debug_aranges
                0x000013a0       0x20 build/obj/spilink.o
 .debug_aranges
                0x000013c0       0x20 build/obj/spidb.o
 .debug_aranges
                0x000013e0       0x20 build/obj/crc32.o
 .debug_aranges
                0x00001400       0x20 build/obj/exceptions.o
 .debug_aranges
                0x00001420       0x20 build/obj/watchdog.o
 .debug_aranges
                0x00001440       0x20 build/obj/sysmon.o
 .debug_aranges
                0x00001460       0x20 build/obj/axoloti_memory.o
 .debug_aranges
                0x00001480       0x18 build/obj/units.o
 .debug_aranges
                0x00001498       0x18 build/obj/atan.o
 .debug_aranges
                0x000014b0       0x18 build/obj/random.o
 .debug_aranges
                0x000014c8       0x18 build/obj/mutable_resources.o
 .debug_aranges
                0x000014e0       0x18 build/obj/braids_resources.o
 .debug_aranges
                0x000014f8       0x18 build/obj/analog_oscillator.o
 .debug_aranges
                0x00001510       0x18 build/obj/digital_oscillator.o
 .debug_aranges
                0x00001528       0x18 build/obj/macro_oscillator.o
 .debug_aranges
                0x00001540       0x18 build/obj/warps_resources.o
 .debug_aranges
                0x00001558       0x28 build/obj/filter_bank.o
 .debug_aranges
                0x00001580       0x50 build/obj/modulator.o
 .debug_aranges
                0x000015d0       0x38 build/obj/oscillator.o
 .debug_aranges
                0x00001608       0x20 build/obj/vocoder.o
 .debug_aranges
                0x00001628       0x20 build/obj/axoloti_mi.o
 .debug_aranges
                0x00001648       0x20 build/obj/multistage_envelope.o
 .debug_aranges
                0x00001668       0x20 build/obj/ominous_voice.o
 .debug_aranges
                0x00001688       0x20 build/obj/resonator.o
 .debug_aranges
                0x000016a8       0x30 build/obj/string.o
 .debug_aranges
                0x000016d8       0x20 build/obj/tube.o
 .debug_aranges
                0x000016f8       0x20 build/obj/exciter.o
 .debug_aranges
                0x00001718       0x18 build/obj/elements_resources.o
 .debug_aranges
                0x00001730       0x20 build/obj/part.o
 .debug_aranges
                0x00001750       0x20 build/obj/voice.o
 .debug_aranges
                0x00001770       0x18 build/obj/clouds_resources.o
 .debug_aranges
                0x00001788       0x20 build/obj/correlator.o
 .debug_aranges
                0x000017a8       0x18 build/obj/mu_law.o
 .debug_aranges
                0x000017c0       0x30 build/obj/granular_processor.o
 .debug_aranges
                0x000017f0       0x20 build/obj/frame_transformation.o
 .debug_aranges
                0x00001810       0x20 build/obj/phase_vocoder.o
 .debug_aranges
                0x00001830       0x20 build/obj/stft.o
 .debug_aranges
                0x00001850       0x18 build/obj/rings_resources.o
 .debug_aranges
                0x00001868       0x18 build/obj/streams_resources.o
 .debug_aranges
                0x00001880       0x20 build/obj/compressor.o
 .debug_aranges
                0x000018a0       0x20 build/obj/envelope.o
 .debug_aranges
                0x000018c0       0x20 build/obj/follower.o
 .debug_aranges
                0x000018e0       0x20 build/obj/lorenz_generator.o
 .debug_aranges
                0x00001900       0xb0 build/obj/processor.o
 .debug_aranges
                0x000019b0       0x20 build/obj/svf.o
 .debug_aranges
                0x000019d0       0x20 build/obj/vactrol.o

.debug_ranges   0x00000000    0x1d150
 .debug_ranges  0x00000000       0x30 build/obj/crt0.o
 .debug_ranges  0x00000030       0x18 build/obj/chcore_v7m.o
 .debug_ranges  0x00000048       0x18 build/obj/chsys.o
 .debug_ranges  0x00000060      0x150 build/obj/chschd.o
 .debug_ranges  0x000001b0       0xe0 build/obj/chthreads.o
 .debug_ranges  0x00000290       0x30 build/obj/chregistry.o
 .debug_ranges  0x000002c0      0x108 build/obj/chsem.o
 .debug_ranges  0x000003c8      0x130 build/obj/chmtx.o
 .debug_ranges  0x000004f8       0x30 build/obj/chevents.o
 .debug_ranges  0x00000528       0x48 build/obj/chmsg.o
 .debug_ranges  0x00000570       0x70 build/obj/chqueues.o
 .debug_ranges  0x000005e0       0x90 build/obj/adc.o
 .debug_ranges  0x00000670       0x30 build/obj/i2c.o
 .debug_ranges  0x000006a0       0x18 build/obj/mmcsd.o
 .debug_ranges  0x000006b8       0x30 build/obj/pwm.o
 .debug_ranges  0x000006e8       0x30 build/obj/sdc.o
 .debug_ranges  0x00000718       0x30 build/obj/serial.o
 .debug_ranges  0x00000748       0x78 build/obj/spi.o
 .debug_ranges  0x000007c0       0x58 build/obj/tm.o
 .debug_ranges  0x00000818       0xf0 build/obj/usb.o
 .debug_ranges  0x00000908       0x18 build/obj/hal_lld.o
 .debug_ranges  0x00000920       0x18 build/obj/adc_lld.o
 .debug_ranges  0x00000938       0xc0 build/obj/sdc_lld.o
 .debug_ranges  0x000009f8      0x108 build/obj/pal_lld.o
 .debug_ranges  0x00000b00       0xc8 build/obj/i2c_lld.o
 .debug_ranges  0x00000bc8      0x2a0 build/obj/usb_lld.o
 .debug_ranges  0x00000e68       0x90 build/obj/serial_lld.o
 .debug_ranges  0x00000ef8      0x6e0 build/obj/ff.o
 .debug_ranges  0x000015d8       0x30 build/obj/chprintf.o
 .debug_ranges  0x00001608       0x60 build/obj/axoloti_control.o
 .debug_ranges  0x00001668      0x1a0 build/obj/codec.o
 .debug_ranges  0x00001808       0x48 build/obj/axoloti_filters.o
 .debug_ranges  0x00001850       0xa8 build/obj/axoloti_math.o
 .debug_ranges  0x000018f8       0x20 build/obj/axoloti_board.o
 .debug_ranges  0x00001918      0x2e0 build/obj/ui.o
 .debug_ranges  0x00001bf8       0x20 build/obj/sdcard.o
 .debug_ranges  0x00001c18      0x130 build/obj/pconnection.o
 .debug_ranges  0x00001d48       0x20 build/obj/parameters.o
 .debug_ranges  0x00001d68       0x48 build/obj/main.o
 .debug_ranges  0x00001db0       0xe8 build/obj/patch.o
 .debug_ranges  0x00001e98       0x38 build/obj/flash.o
 .debug_ranges  0x00001ed0       0x30 build/obj/arm_cfft_q15.o
 .debug_ranges  0x00001f00       0x30 build/obj/arm_cfft_radix4_q15.o
 .debug_ranges  0x00001f30       0x78 build/obj/arm_mult_q15.o
 .debug_ranges  0x00001fa8       0x98 build/obj/arm_shift_q15.o
 .debug_ranges  0x00002040       0x10 build/obj/arm_cos_q31.o
 .debug_ranges  0x00002050      0x470 build/obj/arm_biquad_cascade_df1_32x64_q31.o
 .debug_ranges  0x000024c0       0x20 build/obj/arm_iir_lattice_q31.o
 .debug_ranges  0x000024e0       0x88 build/obj/usbh_core.o
 .debug_ranges  0x00002568       0xb0 build/obj/usbh_ctlreq.o
 .debug_ranges  0x00002618       0x30 build/obj/usbh_ioreq.o
 .debug_ranges  0x00002648       0x20 build/obj/usbh_hid.o
 .debug_ranges  0x00002668       0x18 build/obj/usbh_hid_keybd.o
 .debug_ranges  0x00002680       0x28 build/obj/usbh_hid_mouse.o
 .debug_ranges  0x000026a8       0x70 build/obj/stm32f4xx_ll_usb.o
 .debug_ranges  0x00002718       0x20 build/obj/stm32f4xx_hal_gpio.o
 .debug_ranges  0x00002738       0xb0 build/obj/stm32f4xx_hal_cortex.o
 .debug_ranges  0x000027e8       0xf8 build/obj/stm32f4xx_hal_hcd.o
 .debug_ranges  0x000028e0      0x2c0 build/obj/stm32f4xx_hal_i2c.o
 .debug_ranges  0x00002ba0       0x98 build/obj/usbh_midi_core.o
 .debug_ranges  0x00002c38       0x48 build/obj/usbh_vendor.o
 .debug_ranges  0x00002c80       0x90 build/obj/usbh_conf.o
 .debug_ranges  0x00002d10       0x18 build/obj/serial_midi.o
 .debug_ranges  0x00002d28       0x30 build/obj/bulk_usb.o
 .debug_ranges  0x00002d58       0x78 build/obj/midi_usb.o
 .debug_ranges  0x00002dd0       0x98 build/obj/spilink.o
 .debug_ranges  0x00002e68       0x18 build/obj/spidb.o
 .debug_ranges  0x00002e80       0x10 build/obj/crc32.o
 .debug_ranges  0x00002e90       0xf8 build/obj/exceptions.o
 .debug_ranges  0x00002f88       0x70 build/obj/sysmon.o
 .debug_ranges  0x00002ff8     0x78a0 build/obj/filter_bank.o
 .debug_ranges  0x0000a898     0x81b0 build/obj/modulator.o
 .debug_ranges  0x00012a48      0x498 build/obj/oscillator.o
 .debug_ranges  0x00012ee0      0x248 build/obj/vocoder.o
 .debug_ranges  0x00013128       0x28 build/obj/axoloti_mi.o
 .debug_ranges  0x00013150       0x20 build/obj/multistage_envelope.o
 .debug_ranges  0x00013170      0x7b0 build/obj/ominous_voice.o
 .debug_ranges  0x00013920      0x518 build/obj/resonator.o
 .debug_ranges  0x00013e38      0xb58 build/obj/string.o
 .debug_ranges  0x00014990       0x40 build/obj/tube.o
 .debug_ranges  0x000149d0      0x400 build/obj/exciter.o
 .debug_ranges  0x00014dd0      0xc50 build/obj/part.o
 .debug_ranges  0x00015a20      0x760 build/obj/voice.o
 .debug_ranges  0x00016180       0x30 build/obj/correlator.o
 .debug_ranges  0x000161b0     0x5bc8 build/obj/granular_processor.o
 .debug_ranges  0x0001bd78      0x6a0 build/obj/frame_transformation.o
 .debug_ranges  0x0001c418      0x200 build/obj/phase_vocoder.o
 .debug_ranges  0x0001c618      0x5a0 build/obj/stft.o
 .debug_ranges  0x0001cbb8       0xa8 build/obj/compressor.o
 .debug_ranges  0x0001cc60       0x68 build/obj/envelope.o
 .debug_ranges  0x0001ccc8      0x110 build/obj/follower.o
 .debug_ranges  0x0001cdd8       0x18 build/obj/lorenz_generator.o
 .debug_ranges  0x0001cdf0      0x250 build/obj/processor.o
 .debug_ranges  0x0001d040       0xb0 build/obj/svf.o
 .debug_ranges  0x0001d0f0       0x60 build/obj/vactrol.o

.debug_line     0x00000000    0x3cddb
 .debug_line    0x00000000      0x1c9 build/obj/crt0.o
 .debug_line    0x000001c9      0x18a build/obj/vectors.o
 .debug_line    0x00000353       0xa0 build/obj/chcore.o
 .debug_line    0x000003f3      0x2ef build/obj/chcore_v7m.o
 .debug_line    0x000006e2      0x1a4 build/obj/nvic.o
 .debug_line    0x00000886      0x353 build/obj/chsys.o
 .debug_line    0x00000bd9       0x1d build/obj/chdebug.o
 .debug_line    0x00000bf6       0x1d build/obj/chlists.o
 .debug_line    0x00000c13      0x270 build/obj/chvt.o
 .debug_line    0x00000e83      0x429 build/obj/chschd.o
 .debug_line    0x000012ac      0x48d build/obj/chthreads.o
 .debug_line    0x00001739       0x1d build/obj/chdynamic.o
 .debug_line    0x00001756      0x321 build/obj/chregistry.o
 .debug_line    0x00001a77      0x3e1 build/obj/chsem.o
 .debug_line    0x00001e58      0x3f1 build/obj/chmtx.o
 .debug_line    0x00002249       0x1d build/obj/chcond.o
 .debug_line    0x00002266      0x37a build/obj/chevents.o
 .debug_line    0x000025e0      0x2d8 build/obj/chmsg.o
 .debug_line    0x000028b8       0x1d build/obj/chmboxes.o
 .debug_line    0x000028d5      0x444 build/obj/chqueues.o
 .debug_line    0x00002d19      0x20d build/obj/chmemcore.o
 .debug_line    0x00002f26      0x3ab build/obj/chheap.o
 .debug_line    0x000032d1       0x1d build/obj/chmempools.o
 .debug_line    0x000032ee      0x491 build/obj/hal.o
 .debug_line    0x0000377f      0x4eb build/obj/adc.o
 .debug_line    0x00003c6a      0x15f build/obj/can.o
 .debug_line    0x00003dc9      0x15f build/obj/ext.o
 .debug_line    0x00003f28      0x15f build/obj/gpt.o
 .debug_line    0x00004087      0x500 build/obj/i2c.o
 .debug_line    0x00004587      0x15f build/obj/icu.o
 .debug_line    0x000046e6      0x15f build/obj/mac.o
 .debug_line    0x00004845      0x15f build/obj/mmc_spi.o
 .debug_line    0x000049a4      0x1f0 build/obj/mmcsd.o
 .debug_line    0x00004b94      0x321 build/obj/pal.o
 .debug_line    0x00004eb5      0x2ec build/obj/pwm.o
 .debug_line    0x000051a1      0x15f build/obj/rtc.o
 .debug_line    0x00005300      0x576 build/obj/sdc.o
 .debug_line    0x00005876      0x52b build/obj/serial.o
 .debug_line    0x00005da1      0x15f build/obj/serial_usb.o
 .debug_line    0x00005f00      0x5a1 build/obj/spi.o
 .debug_line    0x000064a1      0x369 build/obj/tm.o
 .debug_line    0x0000680a      0x15f build/obj/uart.o
 .debug_line    0x00006969      0x68d build/obj/usb.o
 .debug_line    0x00006ff6      0x418 build/obj/stm32_dma.o
 .debug_line    0x0000740e      0x2f7 build/obj/hal_lld.o
 .debug_line    0x00007705      0x5eb build/obj/adc_lld.o
 .debug_line    0x00007cf0      0x15f build/obj/ext_lld_isr.o
 .debug_line    0x00007e4f      0x15f build/obj/can_lld.o
 .debug_line    0x00007fae      0x15f build/obj/ext_lld.o
 .debug_line    0x0000810d      0x15f build/obj/mac_lld.o
 .debug_line    0x0000826c      0x615 build/obj/sdc_lld.o
 .debug_line    0x00008881      0x2fa build/obj/pal_lld.o
 .debug_line    0x00008b7b      0x75d build/obj/i2c_lld.o
 .debug_line    0x000092d8      0x905 build/obj/usb_lld.o
 .debug_line    0x00009bdd      0x15f build/obj/rtc_lld.o
 .debug_line    0x00009d3c      0x636 build/obj/spi_lld.o
 .debug_line    0x0000a372      0x15f build/obj/gpt_lld.o
 .debug_line    0x0000a4d1      0x15f build/obj/icu_lld.o
 .debug_line    0x0000a630      0x50d build/obj/pwm_lld.o
 .debug_line    0x0000ab3d      0x5e6 build/obj/serial_lld.o
 .debug_line    0x0000b123      0x15f build/obj/uart_lld.o
 .debug_line    0x0000b282      0x48f build/obj/board.o
 .debug_line    0x0000b711      0x539 build/obj/fatfs_diskio.o
 .debug_line    0x0000bc4a      0x30b build/obj/fatfs_syscall.o
 .debug_line    0x0000bf55     0x1451 build/obj/ff.o
 .debug_line    0x0000d3a6      0x13c build/obj/ccsbcs.o
 .debug_line    0x0000d4e2      0x41c build/obj/chprintf.o
 .debug_line    0x0000d8fe      0x293 build/obj/memstreams.o
 .debug_line    0x0000db91      0x339 build/obj/axoloti_control.o
 .debug_line    0x0000deca      0x8f2 build/obj/codec.o
 .debug_line    0x0000e7bc      0x18d build/obj/axoloti.o
 .debug_line    0x0000e949      0x24b build/obj/axoloti_filters.o
 .debug_line    0x0000eb94      0x48d build/obj/axoloti_math.o
 .debug_line    0x0000f021      0x183 build/obj/axoloti_oscs.o
 .debug_line    0x0000f1a4      0x4eb build/obj/axoloti_board.o
 .debug_line    0x0000f68f      0x227 build/obj/midi.o
 .debug_line    0x0000f8b6      0x776 build/obj/ui.o
 .debug_line    0x0001002c       0x2b build/obj/glcdfont.o
 .debug_line    0x00010057      0x47b build/obj/usbcfg.o
 .debug_line    0x000104d2      0x645 build/obj/sdcard.o
 .debug_line    0x00010b17      0xae1 build/obj/pconnection.o
 .debug_line    0x000115f8      0x1ff build/obj/parameters.o
 .debug_line    0x000117f7      0x98c build/obj/main.o
 .debug_line    0x00012183      0x6d7 build/obj/patch.o
 .debug_line    0x0001285a      0x250 build/obj/flash.o
 .debug_line    0x00012aaa      0x183 build/obj/virtual_control.o
 .debug_line    0x00012c2d      0x41b build/obj/arm_bitreversal.o
 .debug_line    0x00013048      0x771 build/obj/arm_cfft_f32.o
 .debug_line    0x000137b9      0x436 build/obj/arm_cfft_q15.o
 .debug_line    0x00013bef      0x3af build/obj/arm_cfft_q31.o
 .debug_line    0x00013f9e      0x4cc build/obj/arm_cfft_radix2_f32.o
 .debug_line    0x0001446a      0x2b7 build/obj/arm_cfft_radix2_init_f32.o
 .debug_line    0x00014721      0x2b7 build/obj/arm_cfft_radix2_init_q15.o
 .debug_line    0x000149d8      0x2b7 build/obj/arm_cfft_radix2_init_q31.o
 .debug_line    0x00014c8f      0x6de build/obj/arm_cfft_radix2_q15.o
 .debug_line    0x0001536d      0x4db build/obj/arm_cfft_radix2_q31.o
 .debug_line    0x00015848      0x8a2 build/obj/arm_cfft_radix4_f32.o
 .debug_line    0x000160ea      0x272 build/obj/arm_cfft_radix4_init_f32.o
 .debug_line    0x0001635c      0x26f build/obj/arm_cfft_radix4_init_q15.o
 .debug_line    0x000165cb      0x26a build/obj/arm_cfft_radix4_init_q31.o
 .debug_line    0x00016835      0x850 build/obj/arm_cfft_radix4_q15.o
 .debug_line    0x00017085      0xbf6 build/obj/arm_cfft_radix4_q31.o
 .debug_line    0x00017c7b      0x688 build/obj/arm_cfft_radix8_f32.o
 .debug_line    0x00018303      0x292 build/obj/arm_rfft_f32.o
 .debug_line    0x00018595      0x2e5 build/obj/arm_rfft_fast_f32.o
 .debug_line    0x0001887a      0x264 build/obj/arm_rfft_fast_init_f32.o
 .debug_line    0x00018ade      0x24b build/obj/arm_rfft_init_f32.o
 .debug_line    0x00018d29      0x2a7 build/obj/arm_rfft_init_q15.o
 .debug_line    0x00018fd0      0x2a7 build/obj/arm_rfft_init_q31.o
 .debug_line    0x00019277      0x34d build/obj/arm_rfft_q15.o
 .debug_line    0x000195c4      0x277 build/obj/arm_rfft_q31.o
 .debug_line    0x0001983b      0x234 build/obj/arm_mult_q31.o
 .debug_line    0x00019a6f      0x226 build/obj/arm_mult_q15.o
 .debug_line    0x00019c95      0x227 build/obj/arm_mult_f32.o
 .debug_line    0x00019ebc      0x294 build/obj/arm_shift_q31.o
 .debug_line    0x0001a150      0x27e build/obj/arm_shift_q15.o
 .debug_line    0x0001a3ce      0x21c build/obj/arm_scale_f32.o
 .debug_line    0x0001a5ea      0x28b build/obj/arm_cmplx_mult_cmplx_q31.o
 .debug_line    0x0001a875      0x25e build/obj/arm_cmplx_mult_cmplx_f32.o
 .debug_line    0x0001aad3      0x24c build/obj/arm_cmplx_mag_q31.o
 .debug_line    0x0001ad1f      0x258 build/obj/arm_cmplx_mult_cmplx_q15.o
 .debug_line    0x0001af77      0x2bf build/obj/arm_cmplx_mag_q15.o
 .debug_line    0x0001b236      0x21f build/obj/arm_cos_q31.o
 .debug_line    0x0001b455      0x218 build/obj/arm_sin_q31.o
 .debug_line    0x0001b66d      0x236 build/obj/arm_sqrt_q31.o
 .debug_line    0x0001b8a3      0x244 build/obj/arm_sqrt_q15.o
 .debug_line    0x0001bae7      0x206 build/obj/arm_fir_init_q31.o
 .debug_line    0x0001bced      0x2c4 build/obj/arm_fir_fast_q31.o
 .debug_line    0x0001bfb1      0x21e build/obj/arm_biquad_cascade_df1_32x64_init_q31.o
 .debug_line    0x0001c1cf      0x645 build/obj/arm_biquad_cascade_df1_32x64_q31.o
 .debug_line    0x0001c814      0x285 build/obj/arm_biquad_cascade_df1_fast_q31.o
 .debug_line    0x0001ca99      0x218 build/obj/arm_biquad_cascade_df1_init_q31.o
 .debug_line    0x0001ccb1      0x2a7 build/obj/arm_biquad_cascade_df1_q31.o
 .debug_line    0x0001cf58      0x21a build/obj/arm_fir_interpolate_init_q31.o
 .debug_line    0x0001d172      0x337 build/obj/arm_fir_interpolate_q31.o
 .debug_line    0x0001d4a9      0x218 build/obj/arm_fir_decimate_init_q31.o
 .debug_line    0x0001d6c1      0x280 build/obj/arm_fir_decimate_q31.o
 .debug_line    0x0001d941      0x351 build/obj/arm_fir_decimate_fast_q31.o
 .debug_line    0x0001dc92      0x20a build/obj/arm_fir_lattice_init_q31.o
 .debug_line    0x0001de9c      0x2a7 build/obj/arm_fir_lattice_q31.o
 .debug_line    0x0001e143      0x210 build/obj/arm_iir_lattice_init_q31.o
 .debug_line    0x0001e353      0x387 build/obj/arm_iir_lattice_q31.o
 .debug_line    0x0001e6da      0x1e7 build/obj/arm_common_tables.o
 .debug_line    0x0001e8c1      0x1fe build/obj/arm_const_structs.o
 .debug_line    0x0001eabf      0x6be build/obj/usbh_core.o
 .debug_line    0x0001f17d      0x5e4 build/obj/usbh_ctlreq.o
 .debug_line    0x0001f761      0x417 build/obj/usbh_ioreq.o
 .debug_line    0x0001fb78      0x39d build/obj/usbh_pipes.o
 .debug_line    0x0001ff15      0x704 build/obj/usbh_hid.o
 .debug_line    0x00020619      0x47c build/obj/usbh_hid_keybd.o
 .debug_line    0x00020a95      0x465 build/obj/usbh_hid_mouse.o
 .debug_line    0x00020efa      0x322 build/obj/usbh_hid_parser.o
 .debug_line    0x0002121c      0x770 build/obj/stm32f4xx_ll_usb.o
 .debug_line    0x0002198c      0x45b build/obj/stm32f4xx_hal_gpio.o
 .debug_line    0x00021de7      0x35c build/obj/stm32f4xx_hal_cortex.o
 .debug_line    0x00022143      0x5f3 build/obj/stm32f4xx_hal_hcd.o
 .debug_line    0x00022736     0x1462 build/obj/stm32f4xx_hal_i2c.o
 .debug_line    0x00023b98      0x74e build/obj/usbh_midi_core.o
 .debug_line    0x000242e6      0x41b build/obj/usbh_vendor.o
 .debug_line    0x00024701      0x6c1 build/obj/usbh_conf.o
 .debug_line    0x00024dc2      0x56b build/obj/serial_midi.o
 .debug_line    0x0002532d      0x4fc build/obj/bulk_usb.o
 .debug_line    0x00025829      0x553 build/obj/midi_usb.o
 .debug_line    0x00025d7c      0x5a2 build/obj/spilink.o
 .debug_line    0x0002631e      0x629 build/obj/spidb.o
 .debug_line    0x00026947      0x22e build/obj/crc32.o
 .debug_line    0x00026b75      0x635 build/obj/exceptions.o
 .debug_line    0x000271aa      0x17f build/obj/watchdog.o
 .debug_line    0x00027329      0x461 build/obj/sysmon.o
 .debug_line    0x0002778a      0x2a6 build/obj/axoloti_memory.o
 .debug_line    0x00027a30      0x199 build/obj/units.o
 .debug_line    0x00027bc9      0x198 build/obj/atan.o
 .debug_line    0x00027d61      0x1fc build/obj/random.o
 .debug_line    0x00027f5d      0x126 build/obj/mutable_resources.o
 .debug_line    0x00028083      0x203 build/obj/braids_resources.o
 .debug_line    0x00028286      0x2f3 build/obj/analog_oscillator.o
 .debug_line    0x00028579      0x55e build/obj/digital_oscillator.o
 .debug_line    0x00028ad7      0x54e build/obj/macro_oscillator.o
 .debug_line    0x00029025      0x122 build/obj/warps_resources.o
 .debug_line    0x00029147      0xb5f build/obj/filter_bank.o
 .debug_line    0x00029ca6     0x1b38 build/obj/modulator.o
 .debug_line    0x0002b7de      0x9af build/obj/oscillator.o
 .debug_line    0x0002c18d      0x964 build/obj/vocoder.o
 .debug_line    0x0002caf1      0x3c2 build/obj/axoloti_mi.o
 .debug_line    0x0002ceb3      0x6ec build/obj/multistage_envelope.o
 .debug_line    0x0002d59f      0xede build/obj/ominous_voice.o
 .debug_line    0x0002e47d      0xc61 build/obj/resonator.o
 .debug_line    0x0002f0de     0x11b8 build/obj/string.o
 .debug_line    0x00030296      0x627 build/obj/tube.o
 .debug_line    0x000308bd      0xbe9 build/obj/exciter.o
 .debug_line    0x000314a6      0x300 build/obj/elements_resources.o
 .debug_line    0x000317a6      0xf12 build/obj/part.o
 .debug_line    0x000326b8      0xfbd build/obj/voice.o
 .debug_line    0x00033675      0x203 build/obj/clouds_resources.o
 .debug_line    0x00033878      0x5f2 build/obj/correlator.o
 .debug_line    0x00033e6a      0x11b build/obj/mu_law.o
 .debug_line    0x00033f85     0x4333 build/obj/granular_processor.o
 .debug_line    0x000382b8      0xe2c build/obj/frame_transformation.o
 .debug_line    0x000390e4      0x897 build/obj/phase_vocoder.o
 .debug_line    0x0003997b      0xbbb build/obj/stft.o
 .debug_line    0x0003a536      0x284 build/obj/rings_resources.o
 .debug_line    0x0003a7ba      0x205 build/obj/streams_resources.o
 .debug_line    0x0003a9bf      0x435 build/obj/compressor.o
 .debug_line    0x0003adf4      0x827 build/obj/envelope.o
 .debug_line    0x0003b61b      0x3b9 build/obj/follower.o
 .debug_line    0x0003b9d4      0x293 build/obj/lorenz_generator.o
 .debug_line    0x0003bc67      0xa1c build/obj/processor.o
 .debug_line    0x0003c683      0x2f6 build/obj/svf.o
 .debug_line    0x0003c979      0x462 build/obj/vactrol.o

.debug_str      0x00000000    0x38899
 .debug_str     0x00000000      0x2cd build/obj/crt0.o
                                0x31d (size before relaxing)
 .debug_str     0x000002cd      0x184 build/obj/vectors.o
                                0x33e (size before relaxing)
 .debug_str     0x00000451       0x75 build/obj/chcore.o
                                0x206 (size before relaxing)
 .debug_str     0x000004c6      0x319 build/obj/chcore_v7m.o
                                0x508 (size before relaxing)
 .debug_str     0x000007df       0xde build/obj/nvic.o
                                0x310 (size before relaxing)
 .debug_str     0x000008bd      0x25b build/obj/chsys.o
                                0x5ca (size before relaxing)
 .debug_str     0x00000b18       0x66 build/obj/chdebug.o
                                0x1f7 (size before relaxing)
 .debug_str     0x00000b7e       0x66 build/obj/chlists.o
                                0x1f7 (size before relaxing)
 .debug_str     0x00000be4       0x7e build/obj/chvt.o
                                0x291 (size before relaxing)
 .debug_str     0x00000c62      0x11d build/obj/chschd.o
                                0x4e9 (size before relaxing)
 .debug_str     0x00000d7f      0x12a build/obj/chthreads.o
                                0x563 (size before relaxing)
 .debug_str     0x00000ea9       0x68 build/obj/chdynamic.o
                                0x1f9 (size before relaxing)
 .debug_str     0x00000f11       0x8a build/obj/chregistry.o
                                0x4cb (size before relaxing)
 .debug_str     0x00000f9b      0x110 build/obj/chsem.o
                                0x4cd (size before relaxing)
 .debug_str     0x000010ab       0xd9 build/obj/chmtx.o
                                0x464 (size before relaxing)
 .debug_str     0x00001184       0x65 build/obj/chcond.o
                                0x1f6 (size before relaxing)
 .debug_str     0x000011e9      0x201 build/obj/chevents.o
                                0x592 (size before relaxing)
 .debug_str     0x000013ea       0x85 build/obj/chmsg.o
                                0x3fc (size before relaxing)
 .debug_str     0x0000146f       0x67 build/obj/chmboxes.o
                                0x1f8 (size before relaxing)
 .debug_str     0x000014d6      0x161 build/obj/chqueues.o
                                0x4f9 (size before relaxing)
 .debug_str     0x00001637       0xb8 build/obj/chmemcore.o
                                0x286 (size before relaxing)
 .debug_str     0x000016ef       0xf5 build/obj/chheap.o
                                0x453 (size before relaxing)
 .debug_str     0x000017e4       0x69 build/obj/chmempools.o
                                0x1fa (size before relaxing)
 .debug_str     0x0000184d      0x215 build/obj/hal.o
                                0x3ee (size before relaxing)
 .debug_str     0x00001a62      0x326 build/obj/adc.o
                                0x756 (size before relaxing)
 .debug_str     0x00001d88       0x5f build/obj/can.o
                                0x24c (size before relaxing)
 .debug_str     0x00001de7       0x5f build/obj/ext.o
                                0x24c (size before relaxing)
 .debug_str     0x00001e46       0x5f build/obj/gpt.o
                                0x24c (size before relaxing)
 .debug_str     0x00001ea5      0x313 build/obj/i2c.o
                                0x735 (size before relaxing)
 .debug_str     0x000021b8       0x5f build/obj/icu.o
                                0x24c (size before relaxing)
 .debug_str     0x00002217       0x5f build/obj/mac.o
                                0x24c (size before relaxing)
 .debug_str     0x00002276       0x63 build/obj/mmc_spi.o
                                0x250 (size before relaxing)
 .debug_str     0x000022d9       0xa3 build/obj/mmcsd.o
                                0x2af (size before relaxing)
 .debug_str     0x0000237c      0x111 build/obj/pal.o
                                0x342 (size before relaxing)
 .debug_str     0x0000248d      0x1df build/obj/pwm.o
                                0x447 (size before relaxing)
 .debug_str     0x0000266c       0x5f build/obj/rtc.o
                                0x24c (size before relaxing)
 .debug_str     0x000026cb      0x369 build/obj/sdc.o
                                0x78e (size before relaxing)
 .debug_str     0x00002a34      0x15f build/obj/serial.o
                                0x6ae (size before relaxing)
 .debug_str     0x00002b93       0x66 build/obj/serial_usb.o
                                0x253 (size before relaxing)
 .debug_str     0x00002bf9      0x236 build/obj/spi.o
                                0x75d (size before relaxing)
 .debug_str     0x00002e2f       0xaa build/obj/tm.o
                                0x314 (size before relaxing)
 .debug_str     0x00002ed9       0x60 build/obj/uart.o
                                0x24d (size before relaxing)
 .debug_str     0x00002f39      0x954 build/obj/usb.o
                                0xdb0 (size before relaxing)
 .debug_str     0x0000388d      0x7c7 build/obj/stm32_dma.o
                                0xae1 (size before relaxing)
 .debug_str     0x00004054      0x106 build/obj/hal_lld.o
                                0x477 (size before relaxing)
 .debug_str     0x0000415a      0x116 build/obj/adc_lld.o
                                0xdd4 (size before relaxing)
 .debug_str     0x00004270       0x77 build/obj/ext_lld_isr.o
                                0x264 (size before relaxing)
 .debug_str     0x000042e7       0x6f build/obj/can_lld.o
                                0x25c (size before relaxing)
 .debug_str     0x00004356       0x6f build/obj/ext_lld.o
                                0x25c (size before relaxing)
 .debug_str     0x000043c5       0x6f build/obj/mac_lld.o
                                0x25c (size before relaxing)
 .debug_str     0x00004434      0x17e build/obj/sdc_lld.o
                                0xa00 (size before relaxing)
 .debug_str     0x000045b2       0x93 build/obj/pal_lld.o
                                0x4d5 (size before relaxing)
 .debug_str     0x00004645      0x173 build/obj/i2c_lld.o
                                0xf12 (size before relaxing)
 .debug_str     0x000047b8      0x246 build/obj/usb_lld.o
                               0x1051 (size before relaxing)
 .debug_str     0x000049fe       0x75 build/obj/rtc_lld.o
                                0x262 (size before relaxing)
 .debug_str     0x00004a73       0xdf build/obj/spi_lld.o
                                0x803 (size before relaxing)
 .debug_str     0x00004b52       0x75 build/obj/gpt_lld.o
                                0x262 (size before relaxing)
 .debug_str     0x00004bc7       0x75 build/obj/icu_lld.o
                                0x262 (size before relaxing)
 .debug_str     0x00004c3c       0xff build/obj/pwm_lld.o
                                0x5e0 (size before relaxing)
 .debug_str     0x00004d3b       0xe1 build/obj/serial_lld.o
                                0x788 (size before relaxing)
 .debug_str     0x00004e1c       0x78 build/obj/uart_lld.o
                                0x265 (size before relaxing)
 .debug_str     0x00004e94       0x56 build/obj/board.o
                                0x62a (size before relaxing)
 .debug_str     0x00004eea      0x10b build/obj/fatfs_diskio.o
                                0x650 (size before relaxing)
 .debug_str     0x00004ff5       0xbc build/obj/fatfs_syscall.o
                                0x413 (size before relaxing)
 .debug_str     0x000050b1      0x554 build/obj/ff.o
                                0x9b8 (size before relaxing)
 .debug_str     0x00005605       0x80 build/obj/ccsbcs.o
                                0x233 (size before relaxing)
 .debug_str     0x00005685      0x152 build/obj/chprintf.o
                                0x399 (size before relaxing)
 .debug_str     0x000057d7       0x74 build/obj/memstreams.o
                                0x281 (size before relaxing)
 .debug_str     0x0000584b      0x159 build/obj/axoloti_control.o
                                0x379 (size before relaxing)
 .debug_str     0x000059a4      0x752 build/obj/codec.o
                                0xec4 (size before relaxing)
 .debug_str     0x000060f6       0x43 build/obj/axoloti.o
                                0x259 (size before relaxing)
 .debug_str     0x00006139      0x13a build/obj/axoloti_filters.o
                                0x391 (size before relaxing)
 .debug_str     0x00006273       0x86 build/obj/axoloti_math.o
                                0x405 (size before relaxing)
 .debug_str     0x000062f9       0x15 build/obj/axoloti_oscs.o
                                0x257 (size before relaxing)
 .debug_str     0x0000630e       0x7a build/obj/axoloti_board.o
                                0x7c5 (size before relaxing)
 .debug_str     0x00006388      0x1df build/obj/midi.o
                                0x464 (size before relaxing)
 .debug_str     0x00006567      0x61b build/obj/ui.o
                                0xd9c (size before relaxing)
 .debug_str     0x00006b82        0xb build/obj/glcdfont.o
                                0x15d (size before relaxing)
 .debug_str     0x00006b8d      0x2e5 build/obj/usbcfg.o
                                0xde6 (size before relaxing)
 .debug_str     0x00006e72       0xd9 build/obj/sdcard.o
                                0x9ae (size before relaxing)
 .debug_str     0x00006f4b      0x401 build/obj/pconnection.o
                               0x16a4 (size before relaxing)
 .debug_str     0x0000734c       0x65 build/obj/parameters.o
                                0x566 (size before relaxing)
 .debug_str     0x000073b1      0xa35 build/obj/main.o
                               0x10d6 (size before relaxing)
 .debug_str     0x00007de6      0x182 build/obj/patch.o
                                0xc5c (size before relaxing)
 .debug_str     0x00007f68       0x44 build/obj/flash.o
                                0x2da (size before relaxing)
 .debug_str     0x00007fac       0x25 build/obj/virtual_control.o
                                0x212 (size before relaxing)
 .debug_str     0x00007fd1      0x11c build/obj/arm_bitreversal.o
                                0x319 (size before relaxing)
 .debug_str     0x000080ed      0x19f build/obj/arm_cfft_f32.o
                                0x3a0 (size before relaxing)
 .debug_str     0x0000828c      0x16f build/obj/arm_cfft_q15.o
                                0x3cb (size before relaxing)
 .debug_str     0x000083fb      0x11f build/obj/arm_cfft_q31.o
                                0x375 (size before relaxing)
 .debug_str     0x0000851a      0x10d build/obj/arm_cfft_radix2_f32.o
                                0x364 (size before relaxing)
 .debug_str     0x00008627      0x15c build/obj/arm_cfft_radix2_init_f32.o
                                0x3b3 (size before relaxing)
 .debug_str     0x00008783       0xd5 build/obj/arm_cfft_radix2_init_q15.o
                                0x3b9 (size before relaxing)
 .debug_str     0x00008858       0xd5 build/obj/arm_cfft_radix2_init_q31.o
                                0x3b9 (size before relaxing)
 .debug_str     0x0000892d       0xdc build/obj/arm_cfft_radix2_q15.o
                                0x3c5 (size before relaxing)
 .debug_str     0x00008a09       0xd3 build/obj/arm_cfft_radix2_q31.o
                                0x366 (size before relaxing)
 .debug_str     0x00008adc      0x1d3 build/obj/arm_cfft_radix4_f32.o
                                0x439 (size before relaxing)
 .debug_str     0x00008caf       0xa3 build/obj/arm_cfft_radix4_init_f32.o
                                0x3b3 (size before relaxing)
 .debug_str     0x00008d52       0xc0 build/obj/arm_cfft_radix4_init_q15.o
                                0x3b9 (size before relaxing)
 .debug_str     0x00008e12       0xc0 build/obj/arm_cfft_radix4_init_q31.o
                                0x3b9 (size before relaxing)
 .debug_str     0x00008ed2       0xf1 build/obj/arm_cfft_radix4_q15.o
                                0x41d (size before relaxing)
 .debug_str     0x00008fc3       0xe1 build/obj/arm_cfft_radix4_q31.o
                                0x3d5 (size before relaxing)
 .debug_str     0x000090a4       0x85 build/obj/arm_cfft_radix8_f32.o
                                0x297 (size before relaxing)
 .debug_str     0x00009129      0x18b build/obj/arm_rfft_f32.o
                                0x44c (size before relaxing)
 .debug_str     0x000092b4       0xf7 build/obj/arm_rfft_fast_f32.o
                                0x335 (size before relaxing)
 .debug_str     0x000093ab      0x27e build/obj/arm_rfft_fast_init_f32.o
                                0x558 (size before relaxing)
 .debug_str     0x00009629       0xa9 build/obj/arm_rfft_init_f32.o
                                0x446 (size before relaxing)
 .debug_str     0x000096d2      0x194 build/obj/arm_rfft_init_q15.o
                                0x4d2 (size before relaxing)
 .debug_str     0x00009866      0x194 build/obj/arm_rfft_init_q31.o
                                0x4d2 (size before relaxing)
 .debug_str     0x000099fa       0xcc build/obj/arm_rfft_q15.o
                                0x40b (size before relaxing)
 .debug_str     0x00009ac6       0xc8 build/obj/arm_rfft_q31.o
                                0x3d1 (size before relaxing)
 .debug_str     0x00009b8e       0xda build/obj/arm_mult_q31.o
                                0x2de (size before relaxing)
 .debug_str     0x00009c68       0x9f build/obj/arm_mult_q15.o
                                0x2de (size before relaxing)
 .debug_str     0x00009d07       0x8b build/obj/arm_mult_f32.o
                                0x2ab (size before relaxing)
 .debug_str     0x00009d92       0xa7 build/obj/arm_shift_q31.o
                                0x2e5 (size before relaxing)
 .debug_str     0x00009e39       0x8d build/obj/arm_shift_q15.o
                                0x2c8 (size before relaxing)
 .debug_str     0x00009ec6       0x8d build/obj/arm_scale_f32.o
                                0x270 (size before relaxing)
 .debug_str     0x00009f53       0xb0 build/obj/arm_cmplx_mult_cmplx_q31.o
                                0x2ce (size before relaxing)
 .debug_str     0x0000a003       0xb9 build/obj/arm_cmplx_mult_cmplx_f32.o
                                0x29e (size before relaxing)
 .debug_str     0x0000a0bc       0xcb build/obj/arm_cmplx_mag_q31.o
                                0x395 (size before relaxing)
 .debug_str     0x0000a187       0xa5 build/obj/arm_cmplx_mult_cmplx_q15.o
                                0x2b0 (size before relaxing)
 .debug_str     0x0000a22c       0xa4 build/obj/arm_cmplx_mag_q15.o
                                0x364 (size before relaxing)
 .debug_str     0x0000a2d0       0x9b build/obj/arm_cos_q31.o
                                0x290 (size before relaxing)
 .debug_str     0x0000a36b       0x7c build/obj/arm_sin_q31.o
                                0x290 (size before relaxing)
 .debug_str     0x0000a3e7       0xc2 build/obj/arm_sqrt_q31.o
                                0x357 (size before relaxing)
 .debug_str     0x0000a4a9       0x7d build/obj/arm_sqrt_q15.o
                                0x357 (size before relaxing)
 .debug_str     0x0000a526       0xbf build/obj/arm_fir_init_q31.o
                                0x2b4 (size before relaxing)
 .debug_str     0x0000a5e5       0xa6 build/obj/arm_fir_fast_q31.o
                                0x2e5 (size before relaxing)
 .debug_str     0x0000a68b       0xee build/obj/arm_biquad_cascade_df1_32x64_init_q31.o
                                0x2fe (size before relaxing)
 .debug_str     0x0000a779       0xd3 build/obj/arm_biquad_cascade_df1_32x64_q31.o
                                0x33d (size before relaxing)
 .debug_str     0x0000a84c       0xce build/obj/arm_biquad_cascade_df1_fast_q31.o
                                0x2ff (size before relaxing)
 .debug_str     0x0000a91a       0xb1 build/obj/arm_biquad_cascade_df1_init_q31.o
                                0x2ea (size before relaxing)
 .debug_str     0x0000a9cb       0xa7 build/obj/arm_biquad_cascade_df1_q31.o
                                0x321 (size before relaxing)
 .debug_str     0x0000aa72       0xd8 build/obj/arm_fir_interpolate_init_q31.o
                                0x396 (size before relaxing)
 .debug_str     0x0000ab4a       0xbd build/obj/arm_fir_interpolate_q31.o
                                0x344 (size before relaxing)
 .debug_str     0x0000ac07       0xc3 build/obj/arm_fir_decimate_init_q31.o
                                0x381 (size before relaxing)
 .debug_str     0x0000acca       0xa8 build/obj/arm_fir_decimate_q31.o
                                0x31e (size before relaxing)
 .debug_str     0x0000ad72       0xa5 build/obj/arm_fir_decimate_fast_q31.o
                                0x33b (size before relaxing)
 .debug_str     0x0000ae17       0xc0 build/obj/arm_fir_lattice_init_q31.o
                                0x2b0 (size before relaxing)
 .debug_str     0x0000aed7       0xd3 build/obj/arm_fir_lattice_q31.o
                                0x320 (size before relaxing)
 .debug_str     0x0000afaa       0xd2 build/obj/arm_iir_lattice_init_q31.o
                                0x2d8 (size before relaxing)
 .debug_str     0x0000b07c       0xbf build/obj/arm_iir_lattice_q31.o
                                0x330 (size before relaxing)
 .debug_str     0x0000b13b      0x31d build/obj/arm_common_tables.o
                                0x745 (size before relaxing)
 .debug_str     0x0000b458      0x3cf build/obj/arm_const_structs.o
                                0xd60 (size before relaxing)
 .debug_str     0x0000b827      0xb0b build/obj/usbh_core.o
                               0x107b (size before relaxing)
 .debug_str     0x0000c332      0x2ea build/obj/usbh_ctlreq.o
                                0xee9 (size before relaxing)
 .debug_str     0x0000c61c      0x14b build/obj/usbh_ioreq.o
                                0xcc0 (size before relaxing)
 .debug_str     0x0000c767       0xd9 build/obj/usbh_pipes.o
                                0xc1a (size before relaxing)
 .debug_str     0x0000c840      0x460 build/obj/usbh_hid.o
                               0x1187 (size before relaxing)
 .debug_str     0x0000cca0      0x20a build/obj/usbh_hid_keybd.o
                                0xf79 (size before relaxing)
 .debug_str     0x0000ceaa      0x12d build/obj/usbh_hid_mouse.o
                                0xec2 (size before relaxing)
 .debug_str     0x0000cfd7       0x99 build/obj/usbh_hid_parser.o
                                0x333 (size before relaxing)
 .debug_str     0x0000d070      0x7cd build/obj/stm32f4xx_ll_usb.o
                                0xc24 (size before relaxing)
 .debug_str     0x0000d83d      0x1a2 build/obj/stm32f4xx_hal_gpio.o
                                0x5a6 (size before relaxing)
 .debug_str     0x0000d9df      0x3a0 build/obj/stm32f4xx_hal_cortex.o
                                0xbe5 (size before relaxing)
 .debug_str     0x0000dd7f      0x322 build/obj/stm32f4xx_hal_hcd.o
                                0xb4c (size before relaxing)
 .debug_str     0x0000e0a1      0x6f3 build/obj/stm32f4xx_hal_i2c.o
                                0xcdb (size before relaxing)
 .debug_str     0x0000e794      0x2a4 build/obj/usbh_midi_core.o
                               0x1076 (size before relaxing)
 .debug_str     0x0000ea38       0x4e build/obj/usbh_vendor.o
                                0xd3c (size before relaxing)
 .debug_str     0x0000ea86       0xce build/obj/usbh_conf.o
                               0x1c56 (size before relaxing)
 .debug_str     0x0000eb54       0xa8 build/obj/serial_midi.o
                                0x826 (size before relaxing)
 .debug_str     0x0000ebfc       0x53 build/obj/bulk_usb.o
                                0xccc (size before relaxing)
 .debug_str     0x0000ec4f       0x64 build/obj/midi_usb.o
                                0xd25 (size before relaxing)
 .debug_str     0x0000ecb3       0xd8 build/obj/spilink.o
                                0x85b (size before relaxing)
 .debug_str     0x0000ed8b       0x7a build/obj/spidb.o
                                0x713 (size before relaxing)
 .debug_str     0x0000ee05       0x21 build/obj/crc32.o
                                0x387 (size before relaxing)
 .debug_str     0x0000ee26      0x163 build/obj/exceptions.o
                                0x84b (size before relaxing)
 .debug_str     0x0000ef89       0x19 build/obj/watchdog.o
                                0x214 (size before relaxing)
 .debug_str     0x0000efa2       0xa4 build/obj/sysmon.o
                                0x68e (size before relaxing)
 .debug_str     0x0000f046       0x8c build/obj/axoloti_memory.o
                                0x2e1 (size before relaxing)
 .debug_str     0x0000f0d2      0x24a build/obj/units.o
                                0x332 (size before relaxing)
 .debug_str     0x0000f31c       0x95 build/obj/atan.o
                                0x2e3 (size before relaxing)
 .debug_str     0x0000f3b1      0x17a build/obj/random.o
                                0x34a (size before relaxing)
 .debug_str     0x0000f52b      0x1a3 build/obj/mutable_resources.o
                                0x347 (size before relaxing)
 .debug_str     0x0000f6ce     0x12d3 build/obj/braids_resources.o
                               0x14e3 (size before relaxing)
 .debug_str     0x000109a1      0x48f build/obj/analog_oscillator.o
                                0xeda (size before relaxing)
 .debug_str     0x00010e30      0x296 build/obj/digital_oscillator.o
                               0x1186 (size before relaxing)
 .debug_str     0x000110c6       0x7f build/obj/macro_oscillator.o
                               0x1184 (size before relaxing)
 .debug_str     0x00011145      0xa4a build/obj/warps_resources.o
                                0xc01 (size before relaxing)
 .debug_str     0x00011b8f     0x2abf build/obj/filter_bank.o
                               0x383a (size before relaxing)
 .debug_str     0x0001464e     0x272a build/obj/modulator.o
                               0x55d3 (size before relaxing)
 .debug_str     0x00016d78      0x42a build/obj/oscillator.o
                               0x1701 (size before relaxing)
 .debug_str     0x000171a2      0x1fc build/obj/vocoder.o
                               0x1a5d (size before relaxing)
 .debug_str     0x0001739e      0x38c build/obj/axoloti_mi.o
                                0xa10 (size before relaxing)
 .debug_str     0x0001772a      0x5e0 build/obj/multistage_envelope.o
                                0xdcc (size before relaxing)
 .debug_str     0x00017d0a      0xba0 build/obj/ominous_voice.o
                               0x2440 (size before relaxing)
 .debug_str     0x000188aa      0x87d build/obj/resonator.o
                               0x1a80 (size before relaxing)
 .debug_str     0x00019127      0x84f build/obj/string.o
                               0x1f1f (size before relaxing)
 .debug_str     0x00019976      0x13f build/obj/tube.o
                                0x9f3 (size before relaxing)
 .debug_str     0x00019ab5      0x7b5 build/obj/exciter.o
                               0x1a94 (size before relaxing)
 .debug_str     0x0001a26a      0x275 build/obj/elements_resources.o
                                0xb6b (size before relaxing)
 .debug_str     0x0001a4df     0x8ffb build/obj/part.o
                               0xc3b4 (size before relaxing)
 .debug_str     0x000234da     0x18e0 build/obj/voice.o
                               0x4c80 (size before relaxing)
 .debug_str     0x00024dba      0x47b build/obj/clouds_resources.o
                                0x6d5 (size before relaxing)
 .debug_str     0x00025235      0x2d1 build/obj/correlator.o
                                0x6f1 (size before relaxing)
 .debug_str     0x00025506       0x97 build/obj/mu_law.o
                                0x23c (size before relaxing)
 .debug_str     0x0002559d    0x10c1b build/obj/granular_processor.o
                              0x12c76 (size before relaxing)
 .debug_str     0x000361b8      0x301 build/obj/frame_transformation.o
                               0x1305 (size before relaxing)
 .debug_str     0x000364b9      0x114 build/obj/phase_vocoder.o
                               0x135b (size before relaxing)
 .debug_str     0x000365cd      0x526 build/obj/stft.o
                               0x176e (size before relaxing)
 .debug_str     0x00036af3       0xe7 build/obj/rings_resources.o
                                0x4e6 (size before relaxing)
 .debug_str     0x00036bda      0x4bb build/obj/streams_resources.o
                                0x809 (size before relaxing)
 .debug_str     0x00037095      0x2b7 build/obj/compressor.o
                                0xd3d (size before relaxing)
 .debug_str     0x0003734c      0x3dd build/obj/envelope.o
                                0xd09 (size before relaxing)
 .debug_str     0x00037729      0x289 build/obj/follower.o
                                0x8d7 (size before relaxing)
 .debug_str     0x000379b2      0x1b1 build/obj/lorenz_generator.o
                                0x682 (size before relaxing)
 .debug_str     0x00037b63      0xc26 build/obj/processor.o
                               0x21fc (size before relaxing)
 .debug_str     0x00038789       0x73 build/obj/svf.o
                                0x637 (size before relaxing)
 .debug_str     0x000387fc       0x9d build/obj/vactrol.o
                                0x77e (size before relaxing)

.debug_frame    0x00000000     0xb558
 .debug_frame   0x00000000       0x50 build/obj/crt0.o
 .debug_frame   0x00000050       0x20 build/obj/vectors.o
 .debug_frame   0x00000070       0x20 build/obj/chcore.o
 .debug_frame   0x00000090       0xa0 build/obj/chcore_v7m.o
 .debug_frame   0x00000130       0x74 build/obj/nvic.o
 .debug_frame   0x000001a4       0x5c build/obj/chsys.o
 .debug_frame   0x00000200       0x58 build/obj/chvt.o
 .debug_frame   0x00000258      0x158 build/obj/chschd.o
 .debug_frame   0x000003b0      0x190 build/obj/chthreads.o
 .debug_frame   0x00000540       0x30 build/obj/chregistry.o
 .debug_frame   0x00000570      0x14c build/obj/chsem.o
 .debug_frame   0x000006bc       0xec build/obj/chmtx.o
 .debug_frame   0x000007a8      0x1dc build/obj/chevents.o
 .debug_frame   0x00000984       0x68 build/obj/chmsg.o
 .debug_frame   0x000009ec      0x190 build/obj/chqueues.o
 .debug_frame   0x00000b7c       0x68 build/obj/chmemcore.o
 .debug_frame   0x00000be4       0xb4 build/obj/chheap.o
 .debug_frame   0x00000c98       0x50 build/obj/hal.o
 .debug_frame   0x00000ce8      0x128 build/obj/adc.o
 .debug_frame   0x00000e10       0xec build/obj/i2c.o
 .debug_frame   0x00000efc       0x20 build/obj/mmcsd.o
 .debug_frame   0x00000f1c       0x50 build/obj/pal.o
 .debug_frame   0x00000f6c       0xb0 build/obj/pwm.o
 .debug_frame   0x0000101c      0x184 build/obj/sdc.o
 .debug_frame   0x000011a0      0x14c build/obj/serial.o
 .debug_frame   0x000012ec      0x1a8 build/obj/spi.o
 .debug_frame   0x00001494       0x74 build/obj/tm.o
 .debug_frame   0x00001508      0x234 build/obj/usb.o
 .debug_frame   0x0000173c      0x274 build/obj/stm32_dma.o
 .debug_frame   0x000019b0       0x50 build/obj/hal_lld.o
 .debug_frame   0x00001a00      0x15c build/obj/adc_lld.o
 .debug_frame   0x00001b5c      0x264 build/obj/sdc_lld.o
 .debug_frame   0x00001dc0       0x70 build/obj/pal_lld.o
 .debug_frame   0x00001e30      0x1f8 build/obj/i2c_lld.o
 .debug_frame   0x00002028      0x2d4 build/obj/usb_lld.o
 .debug_frame   0x000022fc      0x16c build/obj/spi_lld.o
 .debug_frame   0x00002468      0x1dc build/obj/pwm_lld.o
 .debug_frame   0x00002644      0x150 build/obj/serial_lld.o
 .debug_frame   0x00002794       0xb0 build/obj/board.o
 .debug_frame   0x00002844       0xb0 build/obj/fatfs_diskio.o
 .debug_frame   0x000028f4       0x74 build/obj/fatfs_syscall.o
 .debug_frame   0x00002968      0x724 build/obj/ff.o
 .debug_frame   0x0000308c       0x44 build/obj/ccsbcs.o
 .debug_frame   0x000030d0       0xc8 build/obj/chprintf.o
 .debug_frame   0x00003198       0x8c build/obj/memstreams.o
 .debug_frame   0x00003224      0x36c build/obj/axoloti_control.o
 .debug_frame   0x00003590      0x23c build/obj/codec.o
 .debug_frame   0x000037cc       0x20 build/obj/axoloti.o
 .debug_frame   0x000037ec       0x50 build/obj/axoloti_filters.o
 .debug_frame   0x0000383c       0x6c build/obj/axoloti_math.o
 .debug_frame   0x000038a8       0xf4 build/obj/axoloti_board.o
 .debug_frame   0x0000399c      0x10c build/obj/midi.o
 .debug_frame   0x00003aa8      0x3a0 build/obj/ui.o
 .debug_frame   0x00003e48       0x6c build/obj/usbcfg.o
 .debug_frame   0x00003eb4       0xac build/obj/sdcard.o
 .debug_frame   0x00003f60      0x288 build/obj/pconnection.o
 .debug_frame   0x000041e8       0x90 build/obj/parameters.o
 .debug_frame   0x00004278      0x3d4 build/obj/main.o
 .debug_frame   0x0000464c      0x234 build/obj/patch.o
 .debug_frame   0x00004880       0x7c build/obj/flash.o
 .debug_frame   0x000048fc       0x20 build/obj/virtual_control.o
 .debug_frame   0x0000491c       0xb0 build/obj/arm_bitreversal.o
 .debug_frame   0x000049cc      0x150 build/obj/arm_cfft_f32.o
 .debug_frame   0x00004b1c       0xe8 build/obj/arm_cfft_q15.o
 .debug_frame   0x00004c04       0xe8 build/obj/arm_cfft_q31.o
 .debug_frame   0x00004cec       0xac build/obj/arm_cfft_radix2_f32.o
 .debug_frame   0x00004d98       0x7c build/obj/arm_cfft_radix2_init_f32.o
 .debug_frame   0x00004e14       0x7c build/obj/arm_cfft_radix2_init_q15.o
 .debug_frame   0x00004e90       0x7c build/obj/arm_cfft_radix2_init_q31.o
 .debug_frame   0x00004f0c       0xbc build/obj/arm_cfft_radix2_q15.o
 .debug_frame   0x00004fc8       0xb8 build/obj/arm_cfft_radix2_q31.o
 .debug_frame   0x00005080      0x118 build/obj/arm_cfft_radix4_f32.o
 .debug_frame   0x00005198       0x58 build/obj/arm_cfft_radix4_init_f32.o
 .debug_frame   0x000051f0       0x58 build/obj/arm_cfft_radix4_init_q15.o
 .debug_frame   0x00005248       0x58 build/obj/arm_cfft_radix4_init_q31.o
 .debug_frame   0x000052a0       0xac build/obj/arm_cfft_radix4_q15.o
 .debug_frame   0x0000534c       0xac build/obj/arm_cfft_radix4_q31.o
 .debug_frame   0x000053f8       0xc0 build/obj/arm_cfft_radix8_f32.o
 .debug_frame   0x000054b8       0xa0 build/obj/arm_rfft_f32.o
 .debug_frame   0x00005558       0x90 build/obj/arm_rfft_fast_f32.o
 .debug_frame   0x000055e8       0x38 build/obj/arm_rfft_fast_init_f32.o
 .debug_frame   0x00005620       0x38 build/obj/arm_rfft_init_f32.o
 .debug_frame   0x00005658       0x94 build/obj/arm_rfft_init_q15.o
 .debug_frame   0x000056ec       0x94 build/obj/arm_rfft_init_q31.o
 .debug_frame   0x00005780       0xa8 build/obj/arm_rfft_q15.o
 .debug_frame   0x00005828       0xa8 build/obj/arm_rfft_q31.o
 .debug_frame   0x000058d0       0x48 build/obj/arm_mult_q31.o
 .debug_frame   0x00005918       0x40 build/obj/arm_mult_q15.o
 .debug_frame   0x00005958       0x34 build/obj/arm_mult_f32.o
 .debug_frame   0x0000598c       0x4c build/obj/arm_shift_q31.o
 .debug_frame   0x000059d8       0x3c build/obj/arm_shift_q15.o
 .debug_frame   0x00005a14       0x38 build/obj/arm_scale_f32.o
 .debug_frame   0x00005a4c       0x48 build/obj/arm_cmplx_mult_cmplx_q31.o
 .debug_frame   0x00005a94       0x34 build/obj/arm_cmplx_mult_cmplx_f32.o
 .debug_frame   0x00005ac8       0x48 build/obj/arm_cmplx_mag_q31.o
 .debug_frame   0x00005b10       0x40 build/obj/arm_cmplx_mult_cmplx_q15.o
 .debug_frame   0x00005b50       0x48 build/obj/arm_cmplx_mag_q15.o
 .debug_frame   0x00005b98       0x44 build/obj/arm_cos_q31.o
 .debug_frame   0x00005bdc       0x44 build/obj/arm_sin_q31.o
 .debug_frame   0x00005c20       0x4c build/obj/arm_sqrt_q31.o
 .debug_frame   0x00005c6c       0x4c build/obj/arm_sqrt_q15.o
 .debug_frame   0x00005cb8       0x30 build/obj/arm_fir_init_q31.o
 .debug_frame   0x00005ce8       0x4c build/obj/arm_fir_fast_q31.o
 .debug_frame   0x00005d34       0x30 build/obj/arm_biquad_cascade_df1_32x64_init_q31.o
 .debug_frame   0x00005d64       0x4c build/obj/arm_biquad_cascade_df1_32x64_q31.o
 .debug_frame   0x00005db0       0x4c build/obj/arm_biquad_cascade_df1_fast_q31.o
 .debug_frame   0x00005dfc       0x30 build/obj/arm_biquad_cascade_df1_init_q31.o
 .debug_frame   0x00005e2c       0x4c build/obj/arm_biquad_cascade_df1_q31.o
 .debug_frame   0x00005e78       0x30 build/obj/arm_fir_interpolate_init_q31.o
 .debug_frame   0x00005ea8       0x4c build/obj/arm_fir_interpolate_q31.o
 .debug_frame   0x00005ef4       0x38 build/obj/arm_fir_decimate_init_q31.o
 .debug_frame   0x00005f2c       0x4c build/obj/arm_fir_decimate_q31.o
 .debug_frame   0x00005f78       0x4c build/obj/arm_fir_decimate_fast_q31.o
 .debug_frame   0x00005fc4       0x30 build/obj/arm_fir_lattice_init_q31.o
 .debug_frame   0x00005ff4       0x4c build/obj/arm_fir_lattice_q31.o
 .debug_frame   0x00006040       0x30 build/obj/arm_iir_lattice_init_q31.o
 .debug_frame   0x00006070       0x4c build/obj/arm_iir_lattice_q31.o
 .debug_frame   0x000060bc      0x21c build/obj/usbh_core.o
 .debug_frame   0x000062d8      0x174 build/obj/usbh_ctlreq.o
 .debug_frame   0x0000644c      0x150 build/obj/usbh_ioreq.o
 .debug_frame   0x0000659c       0x90 build/obj/usbh_pipes.o
 .debug_frame   0x0000662c      0x26c build/obj/usbh_hid.o
 .debug_frame   0x00006898       0x60 build/obj/usbh_hid_keybd.o
 .debug_frame   0x000068f8       0x4c build/obj/usbh_hid_mouse.o
 .debug_frame   0x00006944       0x74 build/obj/usbh_hid_parser.o
 .debug_frame   0x000069b8      0x514 build/obj/stm32f4xx_ll_usb.o
 .debug_frame   0x00006ecc       0xf0 build/obj/stm32f4xx_hal_gpio.o
 .debug_frame   0x00006fbc      0x150 build/obj/stm32f4xx_hal_cortex.o
 .debug_frame   0x0000710c      0x240 build/obj/stm32f4xx_hal_hcd.o
 .debug_frame   0x0000734c      0x60c build/obj/stm32f4xx_hal_i2c.o
 .debug_frame   0x00007958      0x2c4 build/obj/usbh_midi_core.o
 .debug_frame   0x00007c1c       0x48 build/obj/usbh_vendor.o
 .debug_frame   0x00007c64      0x2e0 build/obj/usbh_conf.o
 .debug_frame   0x00007f44       0xd8 build/obj/serial_midi.o
 .debug_frame   0x0000801c      0x1d8 build/obj/bulk_usb.o
 .debug_frame   0x000081f4      0x260 build/obj/midi_usb.o
 .debug_frame   0x00008454       0x7c build/obj/spilink.o
 .debug_frame   0x000084d0       0xe4 build/obj/spidb.o
 .debug_frame   0x000085b4       0x4c build/obj/crc32.o
 .debug_frame   0x00008600      0x1ac build/obj/exceptions.o
 .debug_frame   0x000087ac       0x30 build/obj/watchdog.o
 .debug_frame   0x000087dc       0xf0 build/obj/sysmon.o
 .debug_frame   0x000088cc       0x6c build/obj/axoloti_memory.o
 .debug_frame   0x00008938      0x298 build/obj/filter_bank.o
 .debug_frame   0x00008bd0      0x3ec build/obj/modulator.o
 .debug_frame   0x00008fbc      0x1ac build/obj/oscillator.o
 .debug_frame   0x00009168       0x74 build/obj/vocoder.o
 .debug_frame   0x000091dc       0x4c build/obj/axoloti_mi.o
 .debug_frame   0x00009228       0x34 build/obj/multistage_envelope.o
 .debug_frame   0x0000925c      0x148 build/obj/ominous_voice.o
 .debug_frame   0x000093a4      0x124 build/obj/resonator.o
 .debug_frame   0x000094c8      0x1b8 build/obj/string.o
 .debug_frame   0x00009680       0x4c build/obj/tube.o
 .debug_frame   0x000096cc      0x17c build/obj/exciter.o
 .debug_frame   0x00009848      0x158 build/obj/part.o
 .debug_frame   0x000099a0       0xdc build/obj/voice.o
 .debug_frame   0x00009a7c       0x78 build/obj/correlator.o
 .debug_frame   0x00009af4      0x398 build/obj/granular_processor.o
 .debug_frame   0x00009e8c      0x228 build/obj/frame_transformation.o
 .debug_frame   0x0000a0b4       0xac build/obj/phase_vocoder.o
 .debug_frame   0x0000a160      0x138 build/obj/stft.o
 .debug_frame   0x0000a298       0xc0 build/obj/compressor.o
 .debug_frame   0x0000a358       0x6c build/obj/envelope.o
 .debug_frame   0x0000a3c4       0x74 build/obj/follower.o
 .debug_frame   0x0000a438       0x58 build/obj/lorenz_generator.o
 .debug_frame   0x0000a490      0x208 build/obj/processor.o
 .debug_frame   0x0000a698       0x50 build/obj/svf.o
 .debug_frame   0x0000a6e8       0x64 build/obj/vactrol.o
 .debug_frame   0x0000a74c       0x34 /home/sbcm/Dropbox/pcb-layouts/axo-427-core/ksoloti/platform_linux/bin/../lib/gcc/arm-none-eabi/4.9.3/../../../../arm-none-eabi/lib/armv7e-m/fpu/libm.a(lib_a-sf_cos.o)
 .debug_frame   0x0000a780       0x34 /home/sbcm/Dropbox/pcb-layouts/axo-427-core/ksoloti/platform_linux/bin/../lib/gcc/arm-none-eabi/4.9.3/../../../../arm-none-eabi/lib/armv7e-m/fpu/libm.a(lib_a-sf_sin.o)
 .debug_frame   0x0000a7b4       0x64 /home/sbcm/Dropbox/pcb-layouts/axo-427-core/ksoloti/platform_linux/bin/../lib/gcc/arm-none-eabi/4.9.3/../../../../arm-none-eabi/lib/armv7e-m/fpu/libm.a(lib_a-w_log.o)
 .debug_frame   0x0000a818       0x74 /home/sbcm/Dropbox/pcb-layouts/axo-427-core/ksoloti/platform_linux/bin/../lib/gcc/arm-none-eabi/4.9.3/../../../../arm-none-eabi/lib/armv7e-m/fpu/libm.a(lib_a-w_pow.o)
 .debug_frame   0x0000a88c       0x64 /home/sbcm/Dropbox/pcb-layouts/axo-427-core/ksoloti/platform_linux/bin/../lib/gcc/arm-none-eabi/4.9.3/../../../../arm-none-eabi/lib/armv7e-m/fpu/libm.a(lib_a-wf_pow.o)
 .debug_frame   0x0000a8f0       0x54 /home/sbcm/Dropbox/pcb-layouts/axo-427-core/ksoloti/platform_linux/bin/../lib/gcc/arm-none-eabi/4.9.3/../../../../arm-none-eabi/lib/armv7e-m/fpu/libm.a(lib_a-e_log.o)
 .debug_frame   0x0000a944       0x64 /home/sbcm/Dropbox/pcb-layouts/axo-427-core/ksoloti/platform_linux/bin/../lib/gcc/arm-none-eabi/4.9.3/../../../../arm-none-eabi/lib/armv7e-m/fpu/libm.a(lib_a-e_pow.o)
 .debug_frame   0x0000a9a8       0x30 /home/sbcm/Dropbox/pcb-layouts/axo-427-core/ksoloti/platform_linux/bin/../lib/gcc/arm-none-eabi/4.9.3/../../../../arm-none-eabi/lib/armv7e-m/fpu/libm.a(lib_a-e_sqrt.o)
 .debug_frame   0x0000a9d8       0x7c /home/sbcm/Dropbox/pcb-layouts/axo-427-core/ksoloti/platform_linux/bin/../lib/gcc/arm-none-eabi/4.9.3/../../../../arm-none-eabi/lib/armv7e-m/fpu/libm.a(lib_a-ef_pow.o)
 .debug_frame   0x0000aa54       0x3c /home/sbcm/Dropbox/pcb-layouts/axo-427-core/ksoloti/platform_linux/bin/../lib/gcc/arm-none-eabi/4.9.3/../../../../arm-none-eabi/lib/armv7e-m/fpu/libm.a(lib_a-ef_rem_pio2.o)
 .debug_frame   0x0000aa90       0x3c /home/sbcm/Dropbox/pcb-layouts/axo-427-core/ksoloti/platform_linux/bin/../lib/gcc/arm-none-eabi/4.9.3/../../../../arm-none-eabi/lib/armv7e-m/fpu/libm.a(lib_a-ef_sqrt.o)
 .debug_frame   0x0000aacc       0x20 /home/sbcm/Dropbox/pcb-layouts/axo-427-core/ksoloti/platform_linux/bin/../lib/gcc/arm-none-eabi/4.9.3/../../../../arm-none-eabi/lib/armv7e-m/fpu/libm.a(lib_a-kf_cos.o)
 .debug_frame   0x0000aaec       0x5c /home/sbcm/Dropbox/pcb-layouts/axo-427-core/ksoloti/platform_linux/bin/../lib/gcc/arm-none-eabi/4.9.3/../../../../arm-none-eabi/lib/armv7e-m/fpu/libm.a(lib_a-kf_rem_pio2.o)
 .debug_frame   0x0000ab48       0x20 /home/sbcm/Dropbox/pcb-layouts/axo-427-core/ksoloti/platform_linux/bin/../lib/gcc/arm-none-eabi/4.9.3/../../../../arm-none-eabi/lib/armv7e-m/fpu/libm.a(lib_a-kf_sin.o)
 .debug_frame   0x0000ab68       0x20 /home/sbcm/Dropbox/pcb-layouts/axo-427-core/ksoloti/platform_linux/bin/../lib/gcc/arm-none-eabi/4.9.3/../../../../arm-none-eabi/lib/armv7e-m/fpu/libm.a(lib_a-s_fabs.o)
 .debug_frame   0x0000ab88       0x20 /home/sbcm/Dropbox/pcb-layouts/axo-427-core/ksoloti/platform_linux/bin/../lib/gcc/arm-none-eabi/4.9.3/../../../../arm-none-eabi/lib/armv7e-m/fpu/libm.a(lib_a-s_finite.o)
 .debug_frame   0x0000aba8       0x34 /home/sbcm/Dropbox/pcb-layouts/axo-427-core/ksoloti/platform_linux/bin/../lib/gcc/arm-none-eabi/4.9.3/../../../../arm-none-eabi/lib/armv7e-m/fpu/libm.a(lib_a-s_fpclassify.o)
 .debug_frame   0x0000abdc       0x20 /home/sbcm/Dropbox/pcb-layouts/axo-427-core/ksoloti/platform_linux/bin/../lib/gcc/arm-none-eabi/4.9.3/../../../../arm-none-eabi/lib/armv7e-m/fpu/libm.a(lib_a-s_matherr.o)
 .debug_frame   0x0000abfc       0x20 /home/sbcm/Dropbox/pcb-layouts/axo-427-core/ksoloti/platform_linux/bin/../lib/gcc/arm-none-eabi/4.9.3/../../../../arm-none-eabi/lib/armv7e-m/fpu/libm.a(lib_a-s_nan.o)
 .debug_frame   0x0000ac1c       0x3c /home/sbcm/Dropbox/pcb-layouts/axo-427-core/ksoloti/platform_linux/bin/../lib/gcc/arm-none-eabi/4.9.3/../../../../arm-none-eabi/lib/armv7e-m/fpu/libm.a(lib_a-s_rint.o)
 .debug_frame   0x0000ac58       0x2c /home/sbcm/Dropbox/pcb-layouts/axo-427-core/ksoloti/platform_linux/bin/../lib/gcc/arm-none-eabi/4.9.3/../../../../arm-none-eabi/lib/armv7e-m/fpu/libm.a(lib_a-s_scalbn.o)
 .debug_frame   0x0000ac84       0x20 /home/sbcm/Dropbox/pcb-layouts/axo-427-core/ksoloti/platform_linux/bin/../lib/gcc/arm-none-eabi/4.9.3/../../../../arm-none-eabi/lib/armv7e-m/fpu/libm.a(lib_a-sf_fabs.o)
 .debug_frame   0x0000aca4       0x20 /home/sbcm/Dropbox/pcb-layouts/axo-427-core/ksoloti/platform_linux/bin/../lib/gcc/arm-none-eabi/4.9.3/../../../../arm-none-eabi/lib/armv7e-m/fpu/libm.a(lib_a-sf_finite.o)
 .debug_frame   0x0000acc4       0x20 /home/sbcm/Dropbox/pcb-layouts/axo-427-core/ksoloti/platform_linux/bin/../lib/gcc/arm-none-eabi/4.9.3/../../../../arm-none-eabi/lib/armv7e-m/fpu/libm.a(lib_a-sf_floor.o)
 .debug_frame   0x0000ace4       0x20 /home/sbcm/Dropbox/pcb-layouts/axo-427-core/ksoloti/platform_linux/bin/../lib/gcc/arm-none-eabi/4.9.3/../../../../arm-none-eabi/lib/armv7e-m/fpu/libm.a(lib_a-sf_fpclassify.o)
 .debug_frame   0x0000ad04       0x20 /home/sbcm/Dropbox/pcb-layouts/axo-427-core/ksoloti/platform_linux/bin/../lib/gcc/arm-none-eabi/4.9.3/../../../../arm-none-eabi/lib/armv7e-m/fpu/libm.a(lib_a-sf_nan.o)
 .debug_frame   0x0000ad24       0x44 /home/sbcm/Dropbox/pcb-layouts/axo-427-core/ksoloti/platform_linux/bin/../lib/gcc/arm-none-eabi/4.9.3/../../../../arm-none-eabi/lib/armv7e-m/fpu/libm.a(lib_a-sf_scalbn.o)
 .debug_frame   0x0000ad68       0x20 /home/sbcm/Dropbox/pcb-layouts/axo-427-core/ksoloti/platform_linux/bin/../lib/gcc/arm-none-eabi/4.9.3/../../../../arm-none-eabi/lib/armv7e-m/fpu/libm.a(lib_a-s_copysign.o)
 .debug_frame   0x0000ad88       0x20 /home/sbcm/Dropbox/pcb-layouts/axo-427-core/ksoloti/platform_linux/bin/../lib/gcc/arm-none-eabi/4.9.3/../../../../arm-none-eabi/lib/armv7e-m/fpu/libm.a(lib_a-sf_copysign.o)
 .debug_frame   0x0000ada8      0x2f4 /home/sbcm/Dropbox/pcb-layouts/axo-427-core/ksoloti/platform_linux/bin/../lib/gcc/arm-none-eabi/4.9.3/armv7e-m/fpu/libgcc.a(unwind-arm.o)
 .debug_frame   0x0000b09c      0x104 /home/sbcm/Dropbox/pcb-layouts/axo-427-core/ksoloti/platform_linux/bin/../lib/gcc/arm-none-eabi/4.9.3/armv7e-m/fpu/libgcc.a(pr-support.o)
 .debug_frame   0x0000b1a0       0x28 /home/sbcm/Dropbox/pcb-layouts/axo-427-core/ksoloti/platform_linux/bin/../lib/gcc/arm-none-eabi/4.9.3/../../../../arm-none-eabi/lib/armv7e-m/fpu/libg.a(lib_a-abort.o)
 .debug_frame   0x0000b1c8       0x20 /home/sbcm/Dropbox/pcb-layouts/axo-427-core/ksoloti/platform_linux/bin/../lib/gcc/arm-none-eabi/4.9.3/../../../../arm-none-eabi/lib/armv7e-m/fpu/libg.a(lib_a-errno.o)
 .debug_frame   0x0000b1e8       0x30 /home/sbcm/Dropbox/pcb-layouts/axo-427-core/ksoloti/platform_linux/bin/../lib/gcc/arm-none-eabi/4.9.3/../../../../arm-none-eabi/lib/armv7e-m/fpu/libg.a(lib_a-memmove.o)
 .debug_frame   0x0000b218       0x34 /home/sbcm/Dropbox/pcb-layouts/axo-427-core/ksoloti/platform_linux/bin/../lib/gcc/arm-none-eabi/4.9.3/../../../../arm-none-eabi/lib/armv7e-m/fpu/libg.a(lib_a-memset.o)
 .debug_frame   0x0000b24c       0xe4 /home/sbcm/Dropbox/pcb-layouts/axo-427-core/ksoloti/platform_linux/bin/../lib/gcc/arm-none-eabi/4.9.3/../../../../arm-none-eabi/lib/armv7e-m/fpu/libg.a(lib_a-signal.o)
 .debug_frame   0x0000b330       0x3c /home/sbcm/Dropbox/pcb-layouts/axo-427-core/ksoloti/platform_linux/bin/../lib/gcc/arm-none-eabi/4.9.3/../../../../arm-none-eabi/lib/armv7e-m/fpu/libg.a(lib_a-signalr.o)
 .debug_frame   0x0000b36c       0x2c /home/sbcm/Dropbox/pcb-layouts/axo-427-core/ksoloti/platform_linux/bin/../lib/gcc/arm-none-eabi/4.9.3/../../../../arm-none-eabi/lib/armv7e-m/fpu/libg.a(lib_a-stpcpy.o)
 .debug_frame   0x0000b398       0x20 /home/sbcm/Dropbox/pcb-layouts/axo-427-core/ksoloti/platform_linux/bin/../lib/gcc/arm-none-eabi/4.9.3/../../../../arm-none-eabi/lib/armv7e-m/fpu/libg.a(lib_a-strcpy.o)
 .debug_frame   0x0000b3b8       0x20 /home/sbcm/Dropbox/pcb-layouts/axo-427-core/ksoloti/platform_linux/bin/../lib/gcc/arm-none-eabi/4.9.3/../../../../arm-none-eabi/lib/armv7e-m/fpu/libg.a(lib_a-strlen.o)
 .debug_frame   0x0000b3d8       0x58 /home/sbcm/Dropbox/pcb-layouts/axo-427-core/ksoloti/platform_linux/bin/../lib/gcc/arm-none-eabi/4.9.3/../../../../arm-none-eabi/lib/armv7e-m/fpu/libg.a(lib_a-mallocr.o)
 .debug_frame   0x0000b430       0x30 /home/sbcm/Dropbox/pcb-layouts/axo-427-core/ksoloti/platform_linux/bin/../lib/gcc/arm-none-eabi/4.9.3/../../../../arm-none-eabi/lib/armv7e-m/fpu/libg.a(lib_a-mlock.o)
 .debug_frame   0x0000b460       0x58 /home/sbcm/Dropbox/pcb-layouts/axo-427-core/ksoloti/platform_linux/bin/../lib/gcc/arm-none-eabi/4.9.3/../../../../arm-none-eabi/lib/armv7e-m/fpu/libg.a(lib_a-reent.o)
 .debug_frame   0x0000b4b8       0x2c /home/sbcm/Dropbox/pcb-layouts/axo-427-core/ksoloti/platform_linux/bin/../lib/gcc/arm-none-eabi/4.9.3/../../../../arm-none-eabi/lib/armv7e-m/fpu/libg.a(lib_a-sbrkr.o)
 .debug_frame   0x0000b4e4       0x74 /home/sbcm/Dropbox/pcb-layouts/axo-427-core/ksoloti/platform_linux/bin/../lib/gcc/arm-none-eabi/4.9.3/../../../../arm-none-eabi/lib/armv7e-m/fpu/libg.a(lib_a-freer.o)

Cross Reference Table

Symbol                                            File
ADAU1961_ReadRegister6                            build/obj/codec.o
ADAU1961_WriteRegister                            build/obj/codec.o
ADAU1961_WriteRegister6                           build/obj/codec.o
ADCD1                                             build/obj/adc_lld.o
                                                  build/obj/axoloti_board.o
ADCkvps                                           build/obj/ui.o
AckPending                                        build/obj/pconnection.o
ApplyPreset                                       build/obj/parameters.o
                                                  build/obj/pconnection.o
AxolotiControlUpdate                              build/obj/ui.o
BDU1                                              build/obj/usbcfg.o
                                                  build/obj/pconnection.o
BootLoaderInit                                    build/obj/exceptions.o
Btn_Nav_And                                       build/obj/ui.o
                                                  build/obj/pconnection.o
Btn_Nav_CurStates                                 build/obj/ui.o
Btn_Nav_Or                                        build/obj/ui.o
                                                  build/obj/pconnection.o
Btn_Nav_PrevStates                                build/obj/ui.o
BusFaultVector                                    build/obj/exceptions.o
                                                  build/obj/vectors.o
CalcCRC32                                         build/obj/crc32.o
                                                  build/obj/pconnection.o
CheckStackOverflow                                build/obj/patch.o
CloseFile                                         build/obj/pconnection.o
CopyPatchToFlash                                  build/obj/pconnection.o
DebugMonitorVector                                build/obj/vectors.o
DspTime                                           build/obj/patch.o
EncBuffer                                         build/obj/ui.o
                                                  build/obj/pconnection.o
EnterMenuFormat                                   build/obj/ui.o
EnterMenuLoad                                     build/obj/ui.o
EnterMenuLoadFile                                 build/obj/ui.o
FMC_ClearFlag                                     build/obj/main.o
FMC_ClearITPendingBit                             build/obj/main.o
FMC_GetECC                                        build/obj/main.o
FMC_GetFlagStatus                                 build/obj/main.o
FMC_GetITStatus                                   build/obj/main.o
FMC_GetModeStatus                                 build/obj/main.o
FMC_ITConfig                                      build/obj/main.o
FMC_NANDCmd                                       build/obj/main.o
FMC_NANDDeInit                                    build/obj/main.o
FMC_NANDECCCmd                                    build/obj/main.o
FMC_NANDInit                                      build/obj/main.o
FMC_NANDStructInit                                build/obj/main.o
FMC_NORSRAMCmd                                    build/obj/main.o
FMC_NORSRAMDeInit                                 build/obj/main.o
FMC_NORSRAMInit                                   build/obj/main.o
FMC_NORSRAMStructInit                             build/obj/main.o
FMC_PCCARDCmd                                     build/obj/main.o
FMC_PCCARDDeInit                                  build/obj/main.o
FMC_PCCARDInit                                    build/obj/main.o
FMC_PCCARDStructInit                              build/obj/main.o
FMC_SDRAMCmdConfig                                build/obj/main.o
FMC_SDRAMDeInit                                   build/obj/main.o
FMC_SDRAMInit                                     build/obj/main.o
FMC_SDRAMStructInit                               build/obj/main.o
FMC_SDRAMWriteProtectionConfig                    build/obj/main.o
FMC_SetAutoRefresh_Number                         build/obj/main.o
FMC_SetRefreshCount                               build/obj/main.o
FastLog                                           build/obj/axoloti_math.o
FileName                                          build/obj/pconnection.o
GetFirmwareID                                     build/obj/pconnection.o
                                                  build/obj/patch.o
GetIndexOfCurrentPatch                            build/obj/patch.o
HAL_Delay                                         build/obj/main.o
                                                  build/obj/usbh_conf.o
                                                  build/obj/stm32f4xx_ll_usb.o
HAL_GPIO_DeInit                                   build/obj/stm32f4xx_hal_gpio.o
HAL_GPIO_EXTI_Callback                            build/obj/stm32f4xx_hal_gpio.o
HAL_GPIO_EXTI_IRQHandler                          build/obj/stm32f4xx_hal_gpio.o
HAL_GPIO_Init                                     build/obj/stm32f4xx_hal_gpio.o
                                                  build/obj/usbh_conf.o
HAL_GPIO_LockPin                                  build/obj/stm32f4xx_hal_gpio.o
HAL_GPIO_ReadPin                                  build/obj/stm32f4xx_hal_gpio.o
HAL_GPIO_TogglePin                                build/obj/stm32f4xx_hal_gpio.o
HAL_GPIO_WritePin                                 build/obj/stm32f4xx_hal_gpio.o
                                                  build/obj/usbh_conf.o
HAL_GetTick                                       build/obj/codec.o
                                                  build/obj/stm32f4xx_hal_i2c.o
HAL_HCD_Connect_Callback                          build/obj/usbh_conf.o
                                                  build/obj/stm32f4xx_hal_hcd.o
HAL_HCD_DeInit                                    build/obj/stm32f4xx_hal_hcd.o
                                                  build/obj/usbh_conf.o
HAL_HCD_Disconnect_Callback                       build/obj/usbh_conf.o
                                                  build/obj/stm32f4xx_hal_hcd.o
HAL_HCD_GetCurrentFrame                           build/obj/stm32f4xx_hal_hcd.o
                                                  build/obj/usbh_conf.o
HAL_HCD_GetCurrentSpeed                           build/obj/stm32f4xx_hal_hcd.o
                                                  build/obj/usbh_conf.o
HAL_HCD_GetState                                  build/obj/stm32f4xx_hal_hcd.o
HAL_HCD_HC_GetState                               build/obj/stm32f4xx_hal_hcd.o
HAL_HCD_HC_GetURBState                            build/obj/stm32f4xx_hal_hcd.o
                                                  build/obj/usbh_midi_core.o
                                                  build/obj/usbh_hid.o
                                                  build/obj/usbh_ctlreq.o
HAL_HCD_HC_GetXferCount                           build/obj/stm32f4xx_hal_hcd.o
                                                  build/obj/usbh_conf.o
HAL_HCD_HC_Halt                                   build/obj/stm32f4xx_hal_hcd.o
                                                  build/obj/usbh_conf.o
HAL_HCD_HC_Init                                   build/obj/stm32f4xx_hal_hcd.o
                                                  build/obj/usbh_conf.o
HAL_HCD_HC_NotifyURBChange_Callback               build/obj/usbh_conf.o
                                                  build/obj/stm32f4xx_hal_hcd.o
HAL_HCD_HC_SubmitRequest                          build/obj/stm32f4xx_hal_hcd.o
                                                  build/obj/usbh_ioreq.o
HAL_HCD_IRQHandler                                build/obj/stm32f4xx_hal_hcd.o
                                                  build/obj/usbh_conf.o
HAL_HCD_Init                                      build/obj/stm32f4xx_hal_hcd.o
                                                  build/obj/usbh_conf.o
                                                  build/obj/usbh_core.o
HAL_HCD_MspDeInit                                 build/obj/usbh_conf.o
                                                  build/obj/stm32f4xx_hal_hcd.o
HAL_HCD_MspInit                                   build/obj/usbh_conf.o
                                                  build/obj/stm32f4xx_hal_hcd.o
HAL_HCD_ResetPort                                 build/obj/stm32f4xx_hal_hcd.o
                                                  build/obj/usbh_conf.o
HAL_HCD_SOF_Callback                              build/obj/usbh_conf.o
                                                  build/obj/stm32f4xx_hal_hcd.o
HAL_HCD_Start                                     build/obj/stm32f4xx_hal_hcd.o
                                                  build/obj/usbh_conf.o
                                                  build/obj/usbh_core.o
HAL_HCD_Stop                                      build/obj/stm32f4xx_hal_hcd.o
                                                  build/obj/usbh_conf.o
                                                  build/obj/usbh_core.o
HAL_I2C_AbortCpltCallback                         build/obj/stm32f4xx_hal_i2c.o
HAL_I2C_AddrCallback                              build/obj/stm32f4xx_hal_i2c.o
HAL_I2C_DeInit                                    build/obj/stm32f4xx_hal_i2c.o
HAL_I2C_DisableListen_IT                          build/obj/stm32f4xx_hal_i2c.o
HAL_I2C_ER_IRQHandler                             build/obj/stm32f4xx_hal_i2c.o
HAL_I2C_EV_IRQHandler                             build/obj/stm32f4xx_hal_i2c.o
HAL_I2C_EnableListen_IT                           build/obj/stm32f4xx_hal_i2c.o
HAL_I2C_ErrorCallback                             build/obj/stm32f4xx_hal_i2c.o
HAL_I2C_GetError                                  build/obj/stm32f4xx_hal_i2c.o
HAL_I2C_GetMode                                   build/obj/stm32f4xx_hal_i2c.o
HAL_I2C_GetState                                  build/obj/stm32f4xx_hal_i2c.o
                                                  build/obj/codec.o
HAL_I2C_Init                                      build/obj/stm32f4xx_hal_i2c.o
                                                  build/obj/codec.o
HAL_I2C_IsDeviceReady                             build/obj/stm32f4xx_hal_i2c.o
HAL_I2C_ListenCpltCallback                        build/obj/stm32f4xx_hal_i2c.o
HAL_I2C_MasterRxCpltCallback                      build/obj/stm32f4xx_hal_i2c.o
HAL_I2C_MasterTxCpltCallback                      build/obj/stm32f4xx_hal_i2c.o
HAL_I2C_Master_Abort_IT                           build/obj/stm32f4xx_hal_i2c.o
HAL_I2C_Master_Receive                            build/obj/stm32f4xx_hal_i2c.o
                                                  build/obj/codec.o
HAL_I2C_Master_Receive_IT                         build/obj/stm32f4xx_hal_i2c.o
HAL_I2C_Master_Sequential_Receive_IT              build/obj/stm32f4xx_hal_i2c.o
HAL_I2C_Master_Sequential_Transmit_IT             build/obj/stm32f4xx_hal_i2c.o
HAL_I2C_Master_Transmit                           build/obj/stm32f4xx_hal_i2c.o
                                                  build/obj/codec.o
HAL_I2C_Master_Transmit_IT                        build/obj/stm32f4xx_hal_i2c.o
HAL_I2C_MemRxCpltCallback                         build/obj/stm32f4xx_hal_i2c.o
HAL_I2C_MemTxCpltCallback                         build/obj/stm32f4xx_hal_i2c.o
HAL_I2C_Mem_Read                                  build/obj/stm32f4xx_hal_i2c.o
HAL_I2C_Mem_Read_IT                               build/obj/stm32f4xx_hal_i2c.o
HAL_I2C_Mem_Write                                 build/obj/stm32f4xx_hal_i2c.o
HAL_I2C_Mem_Write_IT                              build/obj/stm32f4xx_hal_i2c.o
HAL_I2C_MspDeInit                                 build/obj/stm32f4xx_hal_i2c.o
HAL_I2C_MspInit                                   build/obj/stm32f4xx_hal_i2c.o
HAL_I2C_SlaveRxCpltCallback                       build/obj/stm32f4xx_hal_i2c.o
HAL_I2C_SlaveTxCpltCallback                       build/obj/stm32f4xx_hal_i2c.o
HAL_I2C_Slave_Receive                             build/obj/stm32f4xx_hal_i2c.o
HAL_I2C_Slave_Receive_IT                          build/obj/stm32f4xx_hal_i2c.o
HAL_I2C_Slave_Sequential_Receive_IT               build/obj/stm32f4xx_hal_i2c.o
HAL_I2C_Slave_Sequential_Transmit_IT              build/obj/stm32f4xx_hal_i2c.o
HAL_I2C_Slave_Transmit                            build/obj/stm32f4xx_hal_i2c.o
HAL_I2C_Slave_Transmit_IT                         build/obj/stm32f4xx_hal_i2c.o
HAL_NVIC_ClearPendingIRQ                          build/obj/stm32f4xx_hal_cortex.o
HAL_NVIC_DisableIRQ                               build/obj/stm32f4xx_hal_cortex.o
HAL_NVIC_EnableIRQ                                build/obj/stm32f4xx_hal_cortex.o
                                                  build/obj/usbh_conf.o
HAL_NVIC_GetActive                                build/obj/stm32f4xx_hal_cortex.o
HAL_NVIC_GetPendingIRQ                            build/obj/stm32f4xx_hal_cortex.o
HAL_NVIC_GetPriority                              build/obj/stm32f4xx_hal_cortex.o
HAL_NVIC_GetPriorityGrouping                      build/obj/stm32f4xx_hal_cortex.o
HAL_NVIC_SetPendingIRQ                            build/obj/stm32f4xx_hal_cortex.o
HAL_NVIC_SetPriority                              build/obj/stm32f4xx_hal_cortex.o
                                                  build/obj/usbh_conf.o
HAL_NVIC_SetPriorityGrouping                      build/obj/stm32f4xx_hal_cortex.o
HAL_NVIC_SystemReset                              build/obj/stm32f4xx_hal_cortex.o
HAL_RCC_GetPCLK1Freq                              build/obj/codec.o
                                                  build/obj/stm32f4xx_hal_i2c.o
HAL_SYSTICK_CLKSourceConfig                       build/obj/stm32f4xx_hal_cortex.o
HAL_SYSTICK_Callback                              build/obj/stm32f4xx_hal_cortex.o
HAL_SYSTICK_Config                                build/obj/stm32f4xx_hal_cortex.o
HAL_SYSTICK_IRQHandler                            build/obj/stm32f4xx_hal_cortex.o
HID_Class                                         build/obj/usbh_hid.o
                                                  build/obj/usbh_conf.o
HID_ReadItem                                      build/obj/usbh_hid_parser.o
                                                  build/obj/usbh_hid_mouse.o
                                                  build/obj/usbh_hid_keybd.o
HID_WriteItem                                     build/obj/usbh_hid_parser.o
HardFaultVector                                   build/obj/exceptions.o
                                                  build/obj/vectors.o
I2CD1                                             build/obj/i2c_lld.o
InitPConnection                                   build/obj/pconnection.o
                                                  build/obj/main.o
InitPatch0                                        build/obj/patch.o
                                                  build/obj/main.o
KVP_ClearObjects                                  build/obj/ui.o
                                                  build/obj/patch.o
KVP_Decrement                                     build/obj/ui.o
KVP_Display                                       build/obj/ui.o
KVP_DisplayInv                                    build/obj/ui.o
KVP_Increment                                     build/obj/ui.o
KVP_RegisterObject                                build/obj/ui.o
KvpsDisplay                                       build/obj/ui.o
KvpsHead                                          build/obj/ui.o
LCD_clearDisplay                                  build/obj/axoloti_control.o
LCD_clearPixel                                    build/obj/axoloti_control.o
LCD_drawChar                                      build/obj/axoloti_control.o
                                                  build/obj/ui.o
LCD_drawCharInv                                   build/obj/axoloti_control.o
                                                  build/obj/ui.o
LCD_drawIBAR                                      build/obj/axoloti_control.o
                                                  build/obj/ui.o
LCD_drawIBARadd                                   build/obj/axoloti_control.o
LCD_drawNumber3D                                  build/obj/axoloti_control.o
                                                  build/obj/ui.o
LCD_drawNumber3DInv                               build/obj/axoloti_control.o
                                                  build/obj/ui.o
LCD_drawNumber5D                                  build/obj/axoloti_control.o
                                                  build/obj/ui.o
LCD_drawNumber5DInv                               build/obj/axoloti_control.o
                                                  build/obj/ui.o
LCD_drawPixel                                     build/obj/axoloti_control.o
LCD_drawString                                    build/obj/axoloti_control.o
LCD_drawStringInv                                 build/obj/axoloti_control.o
LCD_drawStringInvN                                build/obj/axoloti_control.o
                                                  build/obj/ui.o
LCD_drawStringN                                   build/obj/axoloti_control.o
                                                  build/obj/ui.o
LCD_getPixel                                      build/obj/axoloti_control.o
LCD_setPixel                                      build/obj/axoloti_control.o
LCD_updateBoundingBox                             build/obj/axoloti_control.o
LoadMenu                                          build/obj/ui.o
LoadPatch                                         build/obj/patch.o
                                                  build/obj/ui.o
LoadPatchIndexed                                  build/obj/patch.o
LoadPatchStartFlash                               build/obj/patch.o
LoadPatchStartSD                                  build/obj/patch.o
                                                  build/obj/sysmon.o
LogTextMessage                                    build/obj/pconnection.o
                                                  build/obj/axoloti_mi.o
                                                  build/obj/exceptions.o
                                                  build/obj/spilink.o
                                                  build/obj/usbh_conf.o
                                                  build/obj/usbh_vendor.o
                                                  build/obj/usbh_midi_core.o
                                                  build/obj/usbh_hid.o
                                                  build/obj/usbh_ctlreq.o
                                                  build/obj/usbh_core.o
                                                  build/obj/patch.o
MDU1                                              build/obj/usbcfg.o
                                                  build/obj/midi_usb.o
                                                  build/obj/pconnection.o
MIDI_CB                                           build/obj/usbh_conf.o
                                                  build/obj/usbh_midi_core.o
MIDI_Class                                        build/obj/usbh_midi_core.o
                                                  build/obj/usbh_conf.o
MIDI_Setup                                        build/obj/usbh_vendor.o
                                                  build/obj/usbh_midi_core.o
MY_USBH_Init                                      build/obj/usbh_conf.o
ManipulateFile                                    build/obj/pconnection.o
MemManageVector                                   build/obj/exceptions.o
                                                  build/obj/vectors.o
MidiByte0                                         build/obj/serial_midi.o
MidiByte1                                         build/obj/serial_midi.o
MidiByte2                                         build/obj/serial_midi.o
MidiCurData                                       build/obj/serial_midi.o
MidiGetOutputBufferAvailable                      build/obj/midi.o
MidiGetOutputBufferPending                        build/obj/midi.o
MidiInChannel                                     build/obj/serial_midi.o
MidiInMsgHandler                                  build/obj/patch.o
                                                  build/obj/serial_midi.o
                                                  build/obj/usbh_conf.o
                                                  build/obj/pconnection.o
                                                  build/obj/midi.o
MidiNumData                                       build/obj/serial_midi.o
MidiSend1                                         build/obj/midi.o
MidiSend2                                         build/obj/midi.o
MidiSend3                                         build/obj/midi.o
MidiSendSysEx                                     build/obj/midi.o
NMIVector                                         build/obj/vectors.o
ObjectKvpRoot                                     build/obj/ui.o
ObjectKvps                                        build/obj/ui.o
PExModulationSourceChange                         build/obj/parameters.o
PExParameterChange                                build/obj/parameters.o
                                                  build/obj/pconnection.o
                                                  build/obj/ui.o
PExReceive                                        build/obj/pconnection.o
                                                  build/obj/ui.o
PExReceiveByte                                    build/obj/pconnection.o
PExTransmit                                       build/obj/pconnection.o
                                                  build/obj/ui.o
PWMD1                                             build/obj/pwm_lld.o
PWMD2                                             build/obj/pwm_lld.o
PWMD3                                             build/obj/pwm_lld.o
PWMD4                                             build/obj/pwm_lld.o
PWMD5                                             build/obj/pwm_lld.o
PWMD8                                             build/obj/pwm_lld.o
PendSVVector                                      build/obj/vectors.o
ReadDirectoryListing                              build/obj/pconnection.o
ReplyFWVersion                                    build/obj/pconnection.o
ResetHandler                                      build/obj/crt0.o
                                                  build/obj/vectors.o
SD1                                               build/obj/serial_lld.o
SD2                                               build/obj/serial_lld.o
SD3                                               build/obj/serial_lld.o
SD6                                               build/obj/serial_lld.o
                                                  build/obj/serial_midi.o
SDCD1                                             build/obj/sdc_lld.o
                                                  build/obj/sdcard.o
                                                  build/obj/fatfs_diskio.o
SDC_FS                                            build/obj/sdcard.o
SDRAM_Init                                        build/obj/main.o
SDRAM_InitSequence                                build/obj/main.o
SDRAM_ReadBuffer                                  build/obj/main.o
SDRAM_WriteBuffer                                 build/obj/main.o
SPID1                                             build/obj/spi_lld.o
                                                  build/obj/spidb.o
SPID3                                             build/obj/spi_lld.o
                                                  build/obj/spidb.o
                                                  build/obj/spilink.o
                                                  build/obj/codec.o
SVCallVector                                      build/obj/chcore_v7m.o
                                                  build/obj/vectors.o
SetKVP_APVP                                       build/obj/ui.o
SetKVP_AVP                                        build/obj/ui.o
SetKVP_FNCTN                                      build/obj/ui.o
SetKVP_IPVP                                       build/obj/ui.o
SetKVP_IVP                                        build/obj/ui.o
StartPatch                                        build/obj/patch.o
                                                  build/obj/pconnection.o
StopPatch                                         build/obj/patch.o
                                                  build/obj/sysmon.o
                                                  build/obj/pconnection.o
                                                  build/obj/sdcard.o
SysMsgLengthLookup                                build/obj/serial_midi.o
SysTickVector                                     build/obj/chcore_v7m.o
                                                  build/obj/vectors.o
TmpMenuKvps                                       build/obj/ui.o
TransmitDisplayPckt                               build/obj/pconnection.o
TransmitLCDoverUSB                                build/obj/virtual_control.o
UIGoSafe                                          build/obj/ui.o
                                                  build/obj/patch.o
USBD1                                             build/obj/usb_lld.o
                                                  build/obj/usbcfg.o
USBH_AllocPipe                                    build/obj/usbh_pipes.o
                                                  build/obj/usbh_vendor.o
                                                  build/obj/usbh_midi_core.o
                                                  build/obj/usbh_hid.o
                                                  build/obj/usbh_core.o
USBH_BulkReceiveData                              build/obj/usbh_ioreq.o
                                                  build/obj/usbh_midi_core.o
USBH_BulkSendData                                 build/obj/usbh_ioreq.o
                                                  build/obj/usbh_vendor.o
                                                  build/obj/usbh_midi_core.o
USBH_ClosePipe                                    build/obj/usbh_pipes.o
                                                  build/obj/usbh_midi_core.o
                                                  build/obj/usbh_hid.o
USBH_ClrFeature                                   build/obj/usbh_ctlreq.o
                                                  build/obj/usbh_midi_core.o
                                                  build/obj/usbh_hid.o
USBH_CtlReceiveData                               build/obj/usbh_ioreq.o
                                                  build/obj/usbh_ctlreq.o
USBH_CtlReq                                       build/obj/usbh_ctlreq.o
                                                  build/obj/usbh_hid.o
USBH_CtlSendData                                  build/obj/usbh_ioreq.o
                                                  build/obj/usbh_ctlreq.o
USBH_CtlSendSetup                                 build/obj/usbh_ioreq.o
                                                  build/obj/usbh_ctlreq.o
USBH_DeInit                                       build/obj/usbh_core.o
USBH_Delay                                        build/obj/usbh_conf.o
                                                  build/obj/usbh_core.o
USBH_FindInterface                                build/obj/usbh_core.o
                                                  build/obj/usbh_hid.o
USBH_FindInterfaceIndex                           build/obj/usbh_core.o
USBH_FreePipe                                     build/obj/usbh_pipes.o
                                                  build/obj/usbh_midi_core.o
                                                  build/obj/usbh_hid.o
                                                  build/obj/usbh_core.o
USBH_GetActiveClass                               build/obj/usbh_core.o
USBH_GetDescriptor                                build/obj/usbh_ctlreq.o
                                                  build/obj/usbh_hid.o
USBH_GetNextDesc                                  build/obj/usbh_ctlreq.o
USBH_Get_CfgDesc                                  build/obj/usbh_ctlreq.o
                                                  build/obj/usbh_core.o
USBH_Get_DevDesc                                  build/obj/usbh_ctlreq.o
                                                  build/obj/usbh_core.o
USBH_Get_StringDesc                               build/obj/usbh_ctlreq.o
                                                  build/obj/usbh_core.o
USBH_HID_EventCallback                            build/obj/usbh_conf.o
                                                  build/obj/usbh_hid.o
USBH_HID_GetASCIICode                             build/obj/usbh_hid_keybd.o
USBH_HID_GetDeviceType                            build/obj/usbh_hid.o
                                                  build/obj/usbh_conf.o
USBH_HID_GetHIDDescriptor                         build/obj/usbh_hid.o
USBH_HID_GetHIDReportDescriptor                   build/obj/usbh_hid.o
USBH_HID_GetKeybdInfo                             build/obj/usbh_hid_keybd.o
                                                  build/obj/usbh_conf.o
USBH_HID_GetMouseInfo                             build/obj/usbh_hid_mouse.o
                                                  build/obj/usbh_conf.o
USBH_HID_GetPollInterval                          build/obj/usbh_hid.o
USBH_HID_GetReport                                build/obj/usbh_hid.o
USBH_HID_KeybdInit                                build/obj/usbh_hid_keybd.o
                                                  build/obj/usbh_hid.o
USBH_HID_MouseInit                                build/obj/usbh_hid_mouse.o
                                                  build/obj/usbh_hid.o
USBH_HID_SetIdle                                  build/obj/usbh_hid.o
USBH_HID_SetProtocol                              build/obj/usbh_hid.o
USBH_HID_SetReport                                build/obj/usbh_hid.o
USBH_Init                                         build/obj/usbh_core.o
                                                  build/obj/usbh_conf.o
USBH_InterruptReceiveData                         build/obj/usbh_ioreq.o
                                                  build/obj/usbh_hid.o
USBH_InterruptSendData                            build/obj/usbh_ioreq.o
USBH_IsocReceiveData                              build/obj/usbh_ioreq.o
USBH_IsocSendData                                 build/obj/usbh_ioreq.o
USBH_LL_ClosePipe                                 build/obj/usbh_conf.o
                                                  build/obj/usbh_pipes.o
USBH_LL_Connect                                   build/obj/usbh_core.o
                                                  build/obj/usbh_conf.o
USBH_LL_DeInit                                    build/obj/usbh_conf.o
USBH_LL_Disconnect                                build/obj/usbh_core.o
                                                  build/obj/usbh_conf.o
USBH_LL_DriverVBUS                                build/obj/usbh_conf.o
                                                  build/obj/usbh_core.o
USBH_LL_GetLastXferSize                           build/obj/usbh_conf.o
                                                  build/obj/usbh_midi_core.o
USBH_LL_GetSpeed                                  build/obj/usbh_conf.o
                                                  build/obj/usbh_core.o
USBH_LL_GetToggle                                 build/obj/usbh_conf.o
USBH_LL_IncTimer                                  build/obj/usbh_core.o
                                                  build/obj/usbh_conf.o
USBH_LL_Init                                      build/obj/usbh_conf.o
                                                  build/obj/usbh_core.o
USBH_LL_NotifyURBChange                           build/obj/usbh_core.o
                                                  build/obj/usbh_conf.o
USBH_LL_OpenPipe                                  build/obj/usbh_conf.o
                                                  build/obj/usbh_pipes.o
USBH_LL_ResetPort                                 build/obj/usbh_conf.o
                                                  build/obj/usbh_core.o
USBH_LL_SetTimer                                  build/obj/usbh_core.o
                                                  build/obj/usbh_conf.o
USBH_LL_SetToggle                                 build/obj/usbh_conf.o
                                                  build/obj/usbh_vendor.o
                                                  build/obj/usbh_midi_core.o
                                                  build/obj/usbh_hid.o
USBH_LL_Start                                     build/obj/usbh_conf.o
                                                  build/obj/usbh_core.o
USBH_LL_Stop                                      build/obj/usbh_conf.o
                                                  build/obj/usbh_ctlreq.o
                                                  build/obj/usbh_core.o
USBH_MIDI_ClassRequest                            build/obj/usbh_midi_core.o
                                                  build/obj/usbh_vendor.o
USBH_MIDI_InterfaceDeInit                         build/obj/usbh_midi_core.o
                                                  build/obj/usbh_vendor.o
USBH_MIDI_InterfaceInit                           build/obj/usbh_midi_core.o
USBH_MIDI_Process                                 build/obj/usbh_midi_core.o
                                                  build/obj/usbh_vendor.o
USBH_MIDI_ProcessInput                            build/obj/usbh_midi_core.o
USBH_MIDI_ProcessOutput                           build/obj/usbh_midi_core.o
USBH_MIDI_SOFProcess                              build/obj/usbh_midi_core.o
                                                  build/obj/usbh_vendor.o
USBH_OpenPipe                                     build/obj/usbh_pipes.o
                                                  build/obj/usbh_vendor.o
                                                  build/obj/usbh_midi_core.o
                                                  build/obj/usbh_hid.o
                                                  build/obj/usbh_core.o
USBH_Process                                      build/obj/usbh_core.o
USBH_ReEnumerate                                  build/obj/usbh_core.o
USBH_RegisterClass                                build/obj/usbh_core.o
                                                  build/obj/usbh_conf.o
USBH_SelectInterface                              build/obj/usbh_core.o
                                                  build/obj/usbh_vendor.o
                                                  build/obj/usbh_midi_core.o
                                                  build/obj/usbh_hid.o
USBH_SetAddress                                   build/obj/usbh_ctlreq.o
                                                  build/obj/usbh_core.o
USBH_SetCfg                                       build/obj/usbh_ctlreq.o
                                                  build/obj/usbh_core.o
USBH_SetInterface                                 build/obj/usbh_ctlreq.o
USBH_Start                                        build/obj/usbh_core.o
                                                  build/obj/usbh_conf.o
USBH_Stop                                         build/obj/usbh_core.o
USB_ActivateDedicatedEndpoint                     build/obj/stm32f4xx_ll_usb.o
USB_ActivateEndpoint                              build/obj/stm32f4xx_ll_usb.o
USB_ActivateSetup                                 build/obj/stm32f4xx_ll_usb.o
USB_ClearInterrupts                               build/obj/stm32f4xx_ll_usb.o
USB_CoreInit                                      build/obj/stm32f4xx_ll_usb.o
                                                  build/obj/stm32f4xx_hal_hcd.o
USB_DeactivateDedicatedEndpoint                   build/obj/stm32f4xx_ll_usb.o
USB_DeactivateEndpoint                            build/obj/stm32f4xx_ll_usb.o
USB_DevConnect                                    build/obj/stm32f4xx_ll_usb.o
USB_DevDisconnect                                 build/obj/stm32f4xx_ll_usb.o
USB_DevInit                                       build/obj/stm32f4xx_ll_usb.o
USB_DisableGlobalInt                              build/obj/stm32f4xx_ll_usb.o
                                                  build/obj/stm32f4xx_hal_hcd.o
USB_DoPing                                        build/obj/stm32f4xx_ll_usb.o
USB_DriveVbus                                     build/obj/stm32f4xx_ll_usb.o
                                                  build/obj/stm32f4xx_hal_hcd.o
USB_EP0StartXfer                                  build/obj/stm32f4xx_ll_usb.o
USB_EP0_OutStart                                  build/obj/stm32f4xx_ll_usb.o
USB_EPClearStall                                  build/obj/stm32f4xx_ll_usb.o
USB_EPSetStall                                    build/obj/stm32f4xx_ll_usb.o
USB_EPStartXfer                                   build/obj/stm32f4xx_ll_usb.o
USB_EnableGlobalInt                               build/obj/stm32f4xx_ll_usb.o
                                                  build/obj/stm32f4xx_hal_hcd.o
USB_FlushRxFifo                                   build/obj/stm32f4xx_ll_usb.o
USB_FlushTxFifo                                   build/obj/stm32f4xx_ll_usb.o
USB_GetCurrentFrame                               build/obj/stm32f4xx_ll_usb.o
                                                  build/obj/stm32f4xx_hal_hcd.o
USB_GetDevSpeed                                   build/obj/stm32f4xx_ll_usb.o
USB_GetHostSpeed                                  build/obj/stm32f4xx_ll_usb.o
                                                  build/obj/stm32f4xx_hal_hcd.o
USB_GetMode                                       build/obj/stm32f4xx_ll_usb.o
                                                  build/obj/stm32f4xx_hal_hcd.o
USB_HC_Halt                                       build/obj/stm32f4xx_ll_usb.o
                                                  build/obj/stm32f4xx_hal_hcd.o
USB_HC_Init                                       build/obj/stm32f4xx_ll_usb.o
                                                  build/obj/stm32f4xx_hal_hcd.o
USB_HC_ReadInterrupt                              build/obj/stm32f4xx_ll_usb.o
                                                  build/obj/stm32f4xx_hal_hcd.o
USB_HC_StartXfer                                  build/obj/stm32f4xx_ll_usb.o
                                                  build/obj/stm32f4xx_hal_hcd.o
USB_HostInit                                      build/obj/stm32f4xx_ll_usb.o
                                                  build/obj/stm32f4xx_hal_hcd.o
USB_InitFSLSPClkSel                               build/obj/stm32f4xx_ll_usb.o
                                                  build/obj/stm32f4xx_hal_hcd.o
USB_ReadDevAllInEpInterrupt                       build/obj/stm32f4xx_ll_usb.o
USB_ReadDevAllOutEpInterrupt                      build/obj/stm32f4xx_ll_usb.o
USB_ReadDevInEPInterrupt                          build/obj/stm32f4xx_ll_usb.o
USB_ReadDevOutEPInterrupt                         build/obj/stm32f4xx_ll_usb.o
USB_ReadInterrupts                                build/obj/stm32f4xx_ll_usb.o
                                                  build/obj/stm32f4xx_hal_hcd.o
USB_ReadPacket                                    build/obj/stm32f4xx_ll_usb.o
                                                  build/obj/stm32f4xx_hal_hcd.o
USB_ResetPort                                     build/obj/stm32f4xx_ll_usb.o
                                                  build/obj/stm32f4xx_hal_hcd.o
USB_SetCurrentMode                                build/obj/stm32f4xx_ll_usb.o
                                                  build/obj/stm32f4xx_hal_hcd.o
USB_SetDevAddress                                 build/obj/stm32f4xx_ll_usb.o
USB_SetDevSpeed                                   build/obj/stm32f4xx_ll_usb.o
USB_StopDevice                                    build/obj/stm32f4xx_ll_usb.o
USB_StopHost                                      build/obj/stm32f4xx_ll_usb.o
                                                  build/obj/stm32f4xx_hal_hcd.o
USB_WritePacket                                   build/obj/stm32f4xx_ll_usb.o
UsageFaultVector                                  build/obj/exceptions.o
                                                  build/obj/vectors.o
Vector100                                         build/obj/vectors.o
Vector104                                         build/obj/sdc_lld.o
                                                  build/obj/vectors.o
Vector108                                         build/obj/pwm_lld.o
                                                  build/obj/vectors.o
Vector10C                                         build/obj/vectors.o
Vector110                                         build/obj/vectors.o
Vector114                                         build/obj/vectors.o
Vector118                                         build/obj/vectors.o
Vector11C                                         build/obj/vectors.o
Vector120                                         build/obj/stm32_dma.o
                                                  build/obj/vectors.o
Vector124                                         build/obj/stm32_dma.o
                                                  build/obj/vectors.o
Vector128                                         build/obj/stm32_dma.o
                                                  build/obj/vectors.o
Vector12C                                         build/obj/stm32_dma.o
                                                  build/obj/vectors.o
Vector130                                         build/obj/stm32_dma.o
                                                  build/obj/vectors.o
Vector134                                         build/obj/vectors.o
Vector138                                         build/obj/vectors.o
Vector13C                                         build/obj/vectors.o
Vector140                                         build/obj/vectors.o
Vector144                                         build/obj/vectors.o
Vector148                                         build/obj/vectors.o
Vector14C                                         build/obj/usb_lld.o
                                                  build/obj/vectors.o
Vector150                                         build/obj/stm32_dma.o
                                                  build/obj/vectors.o
Vector154                                         build/obj/stm32_dma.o
                                                  build/obj/vectors.o
Vector158                                         build/obj/stm32_dma.o
                                                  build/obj/vectors.o
Vector15C                                         build/obj/serial_lld.o
                                                  build/obj/vectors.o
Vector160                                         build/obj/vectors.o
Vector164                                         build/obj/vectors.o
Vector168                                         build/obj/usbh_conf.o
                                                  build/obj/vectors.o
Vector16C                                         build/obj/usbh_conf.o
                                                  build/obj/vectors.o
Vector170                                         build/obj/vectors.o
Vector174                                         build/obj/usbh_conf.o
                                                  build/obj/vectors.o
Vector178                                         build/obj/vectors.o
Vector17C                                         build/obj/vectors.o
Vector180                                         build/obj/vectors.o
Vector184                                         build/obj/vectors.o
Vector188                                         build/obj/vectors.o
Vector18C                                         build/obj/vectors.o
Vector190                                         build/obj/vectors.o
Vector194                                         build/obj/vectors.o
Vector198                                         build/obj/vectors.o
Vector19C                                         build/obj/vectors.o
Vector1A0                                         build/obj/vectors.o
Vector1A4                                         build/obj/vectors.o
Vector1A8                                         build/obj/vectors.o
Vector1C                                          build/obj/vectors.o
Vector20                                          build/obj/vectors.o
Vector24                                          build/obj/vectors.o
Vector28                                          build/obj/vectors.o
Vector34                                          build/obj/vectors.o
Vector40                                          build/obj/exceptions.o
                                                  build/obj/vectors.o
Vector44                                          build/obj/vectors.o
Vector48                                          build/obj/vectors.o
Vector4C                                          build/obj/vectors.o
Vector50                                          build/obj/vectors.o
Vector54                                          build/obj/vectors.o
Vector58                                          build/obj/vectors.o
Vector5C                                          build/obj/vectors.o
Vector60                                          build/obj/vectors.o
Vector64                                          build/obj/vectors.o
Vector68                                          build/obj/vectors.o
Vector6C                                          build/obj/stm32_dma.o
                                                  build/obj/vectors.o
Vector70                                          build/obj/stm32_dma.o
                                                  build/obj/vectors.o
Vector74                                          build/obj/stm32_dma.o
                                                  build/obj/vectors.o
Vector78                                          build/obj/stm32_dma.o
                                                  build/obj/vectors.o
Vector7C                                          build/obj/stm32_dma.o
                                                  build/obj/vectors.o
Vector80                                          build/obj/stm32_dma.o
                                                  build/obj/vectors.o
Vector84                                          build/obj/stm32_dma.o
                                                  build/obj/vectors.o
Vector88                                          build/obj/adc_lld.o
                                                  build/obj/vectors.o
Vector8C                                          build/obj/vectors.o
Vector90                                          build/obj/vectors.o
Vector94                                          build/obj/vectors.o
Vector98                                          build/obj/vectors.o
Vector9C                                          build/obj/vectors.o
VectorA0                                          build/obj/vectors.o
VectorA4                                          build/obj/pwm_lld.o
                                                  build/obj/vectors.o
VectorA8                                          build/obj/vectors.o
VectorAC                                          build/obj/pwm_lld.o
                                                  build/obj/vectors.o
VectorB0                                          build/obj/pwm_lld.o
                                                  build/obj/vectors.o
VectorB4                                          build/obj/pwm_lld.o
                                                  build/obj/vectors.o
VectorB8                                          build/obj/pwm_lld.o
                                                  build/obj/vectors.o
VectorBC                                          build/obj/i2c_lld.o
                                                  build/obj/vectors.o
VectorC0                                          build/obj/i2c_lld.o
                                                  build/obj/vectors.o
VectorC4                                          build/obj/vectors.o
VectorC8                                          build/obj/vectors.o
VectorCC                                          build/obj/vectors.o
VectorD0                                          build/obj/vectors.o
VectorD4                                          build/obj/serial_lld.o
                                                  build/obj/vectors.o
VectorD8                                          build/obj/serial_lld.o
                                                  build/obj/vectors.o
VectorDC                                          build/obj/serial_lld.o
                                                  build/obj/vectors.o
VectorE0                                          build/obj/vectors.o
VectorE4                                          build/obj/vectors.o
VectorE8                                          build/obj/vectors.o
VectorEC                                          build/obj/vectors.o
VectorF0                                          build/obj/pwm_lld.o
                                                  build/obj/vectors.o
VectorF4                                          build/obj/vectors.o
VectorF8                                          build/obj/pwm_lld.o
                                                  build/obj/vectors.o
VectorFC                                          build/obj/stm32_dma.o
                                                  build/obj/vectors.o
Vendor_Class                                      build/obj/usbh_vendor.o
                                                  build/obj/usbh_conf.o
_Unwind_Backtrace                                 /home/sbcm/Dropbox/pcb-layouts/axo-427-core/ksoloti/platform_linux/bin/../lib/gcc/arm-none-eabi/4.9.3/armv7e-m/fpu/libgcc.a(libunwind.o)
_Unwind_Complete                                  /home/sbcm/Dropbox/pcb-layouts/axo-427-core/ksoloti/platform_linux/bin/../lib/gcc/arm-none-eabi/4.9.3/armv7e-m/fpu/libgcc.a(unwind-arm.o)
_Unwind_DeleteException                           /home/sbcm/Dropbox/pcb-layouts/axo-427-core/ksoloti/platform_linux/bin/../lib/gcc/arm-none-eabi/4.9.3/armv7e-m/fpu/libgcc.a(unwind-arm.o)
_Unwind_ForcedUnwind                              /home/sbcm/Dropbox/pcb-layouts/axo-427-core/ksoloti/platform_linux/bin/../lib/gcc/arm-none-eabi/4.9.3/armv7e-m/fpu/libgcc.a(libunwind.o)
_Unwind_GetCFA                                    /home/sbcm/Dropbox/pcb-layouts/axo-427-core/ksoloti/platform_linux/bin/../lib/gcc/arm-none-eabi/4.9.3/armv7e-m/fpu/libgcc.a(unwind-arm.o)
_Unwind_GetDataRelBase                            /home/sbcm/Dropbox/pcb-layouts/axo-427-core/ksoloti/platform_linux/bin/../lib/gcc/arm-none-eabi/4.9.3/armv7e-m/fpu/libgcc.a(pr-support.o)
_Unwind_GetLanguageSpecificData                   /home/sbcm/Dropbox/pcb-layouts/axo-427-core/ksoloti/platform_linux/bin/../lib/gcc/arm-none-eabi/4.9.3/armv7e-m/fpu/libgcc.a(pr-support.o)
_Unwind_GetRegionStart                            /home/sbcm/Dropbox/pcb-layouts/axo-427-core/ksoloti/platform_linux/bin/../lib/gcc/arm-none-eabi/4.9.3/armv7e-m/fpu/libgcc.a(pr-support.o)
_Unwind_GetTextRelBase                            /home/sbcm/Dropbox/pcb-layouts/axo-427-core/ksoloti/platform_linux/bin/../lib/gcc/arm-none-eabi/4.9.3/armv7e-m/fpu/libgcc.a(pr-support.o)
_Unwind_RaiseException                            /home/sbcm/Dropbox/pcb-layouts/axo-427-core/ksoloti/platform_linux/bin/../lib/gcc/arm-none-eabi/4.9.3/armv7e-m/fpu/libgcc.a(libunwind.o)
_Unwind_Resume                                    /home/sbcm/Dropbox/pcb-layouts/axo-427-core/ksoloti/platform_linux/bin/../lib/gcc/arm-none-eabi/4.9.3/armv7e-m/fpu/libgcc.a(libunwind.o)
_Unwind_Resume_or_Rethrow                         /home/sbcm/Dropbox/pcb-layouts/axo-427-core/ksoloti/platform_linux/bin/../lib/gcc/arm-none-eabi/4.9.3/armv7e-m/fpu/libgcc.a(libunwind.o)
_Unwind_VRS_Get                                   /home/sbcm/Dropbox/pcb-layouts/axo-427-core/ksoloti/platform_linux/bin/../lib/gcc/arm-none-eabi/4.9.3/armv7e-m/fpu/libgcc.a(unwind-arm.o)
                                                  /home/sbcm/Dropbox/pcb-layouts/axo-427-core/ksoloti/platform_linux/bin/../lib/gcc/arm-none-eabi/4.9.3/armv7e-m/fpu/libgcc.a(pr-support.o)
_Unwind_VRS_Pop                                   /home/sbcm/Dropbox/pcb-layouts/axo-427-core/ksoloti/platform_linux/bin/../lib/gcc/arm-none-eabi/4.9.3/armv7e-m/fpu/libgcc.a(unwind-arm.o)
                                                  /home/sbcm/Dropbox/pcb-layouts/axo-427-core/ksoloti/platform_linux/bin/../lib/gcc/arm-none-eabi/4.9.3/armv7e-m/fpu/libgcc.a(pr-support.o)
_Unwind_VRS_Set                                   /home/sbcm/Dropbox/pcb-layouts/axo-427-core/ksoloti/platform_linux/bin/../lib/gcc/arm-none-eabi/4.9.3/armv7e-m/fpu/libgcc.a(unwind-arm.o)
                                                  /home/sbcm/Dropbox/pcb-layouts/axo-427-core/ksoloti/platform_linux/bin/../lib/gcc/arm-none-eabi/4.9.3/armv7e-m/fpu/libgcc.a(pr-support.o)
___Unwind_Backtrace                               /home/sbcm/Dropbox/pcb-layouts/axo-427-core/ksoloti/platform_linux/bin/../lib/gcc/arm-none-eabi/4.9.3/armv7e-m/fpu/libgcc.a(libunwind.o)
___Unwind_ForcedUnwind                            /home/sbcm/Dropbox/pcb-layouts/axo-427-core/ksoloti/platform_linux/bin/../lib/gcc/arm-none-eabi/4.9.3/armv7e-m/fpu/libgcc.a(libunwind.o)
___Unwind_RaiseException                          /home/sbcm/Dropbox/pcb-layouts/axo-427-core/ksoloti/platform_linux/bin/../lib/gcc/arm-none-eabi/4.9.3/armv7e-m/fpu/libgcc.a(libunwind.o)
___Unwind_Resume                                  /home/sbcm/Dropbox/pcb-layouts/axo-427-core/ksoloti/platform_linux/bin/../lib/gcc/arm-none-eabi/4.9.3/armv7e-m/fpu/libgcc.a(libunwind.o)
___Unwind_Resume_or_Rethrow                       /home/sbcm/Dropbox/pcb-layouts/axo-427-core/ksoloti/platform_linux/bin/../lib/gcc/arm-none-eabi/4.9.3/armv7e-m/fpu/libgcc.a(libunwind.o)
__adddf3                                          /home/sbcm/Dropbox/pcb-layouts/axo-427-core/ksoloti/platform_linux/bin/../lib/gcc/arm-none-eabi/4.9.3/armv7e-m/fpu/libgcc.a(_arm_addsubdf3.o)
__aeabi_cdcmpeq                                   /home/sbcm/Dropbox/pcb-layouts/axo-427-core/ksoloti/platform_linux/bin/../lib/gcc/arm-none-eabi/4.9.3/armv7e-m/fpu/libgcc.a(_arm_cmpdf2.o)
__aeabi_cdcmple                                   /home/sbcm/Dropbox/pcb-layouts/axo-427-core/ksoloti/platform_linux/bin/../lib/gcc/arm-none-eabi/4.9.3/armv7e-m/fpu/libgcc.a(_arm_cmpdf2.o)
__aeabi_cdrcmple                                  /home/sbcm/Dropbox/pcb-layouts/axo-427-core/ksoloti/platform_linux/bin/../lib/gcc/arm-none-eabi/4.9.3/armv7e-m/fpu/libgcc.a(_arm_cmpdf2.o)
__aeabi_d2f                                       /home/sbcm/Dropbox/pcb-layouts/axo-427-core/ksoloti/platform_linux/bin/../lib/gcc/arm-none-eabi/4.9.3/armv7e-m/fpu/libgcc.a(_arm_truncdfsf2.o)
                                                  /home/sbcm/Dropbox/pcb-layouts/axo-427-core/ksoloti/platform_linux/bin/../lib/gcc/arm-none-eabi/4.9.3/../../../../arm-none-eabi/lib/armv7e-m/fpu/libm.a(lib_a-wf_pow.o)
                                                  build/obj/chprintf.o
__aeabi_d2iz                                      /home/sbcm/Dropbox/pcb-layouts/axo-427-core/ksoloti/platform_linux/bin/../lib/gcc/arm-none-eabi/4.9.3/armv7e-m/fpu/libgcc.a(_arm_fixdfsi.o)
                                                  build/obj/chprintf.o
__aeabi_d2uiz                                     /home/sbcm/Dropbox/pcb-layouts/axo-427-core/ksoloti/platform_linux/bin/../lib/gcc/arm-none-eabi/4.9.3/armv7e-m/fpu/libgcc.a(_arm_fixunsdfsi.o)
                                                  build/obj/axoloti_math.o
__aeabi_dadd                                      /home/sbcm/Dropbox/pcb-layouts/axo-427-core/ksoloti/platform_linux/bin/../lib/gcc/arm-none-eabi/4.9.3/armv7e-m/fpu/libgcc.a(_arm_addsubdf3.o)
                                                  /home/sbcm/Dropbox/pcb-layouts/axo-427-core/ksoloti/platform_linux/bin/../lib/gcc/arm-none-eabi/4.9.3/../../../../arm-none-eabi/lib/armv7e-m/fpu/libm.a(lib_a-s_scalbn.o)
                                                  /home/sbcm/Dropbox/pcb-layouts/axo-427-core/ksoloti/platform_linux/bin/../lib/gcc/arm-none-eabi/4.9.3/../../../../arm-none-eabi/lib/armv7e-m/fpu/libm.a(lib_a-s_rint.o)
                                                  /home/sbcm/Dropbox/pcb-layouts/axo-427-core/ksoloti/platform_linux/bin/../lib/gcc/arm-none-eabi/4.9.3/../../../../arm-none-eabi/lib/armv7e-m/fpu/libm.a(lib_a-e_sqrt.o)
                                                  /home/sbcm/Dropbox/pcb-layouts/axo-427-core/ksoloti/platform_linux/bin/../lib/gcc/arm-none-eabi/4.9.3/../../../../arm-none-eabi/lib/armv7e-m/fpu/libm.a(lib_a-e_pow.o)
                                                  /home/sbcm/Dropbox/pcb-layouts/axo-427-core/ksoloti/platform_linux/bin/../lib/gcc/arm-none-eabi/4.9.3/../../../../arm-none-eabi/lib/armv7e-m/fpu/libm.a(lib_a-e_log.o)
                                                  build/obj/axoloti_math.o
__aeabi_dcmpeq                                    /home/sbcm/Dropbox/pcb-layouts/axo-427-core/ksoloti/platform_linux/bin/../lib/gcc/arm-none-eabi/4.9.3/armv7e-m/fpu/libgcc.a(_arm_cmpdf2.o)
                                                  /home/sbcm/Dropbox/pcb-layouts/axo-427-core/ksoloti/platform_linux/bin/../lib/gcc/arm-none-eabi/4.9.3/../../../../arm-none-eabi/lib/armv7e-m/fpu/libm.a(lib_a-e_log.o)
                                                  /home/sbcm/Dropbox/pcb-layouts/axo-427-core/ksoloti/platform_linux/bin/../lib/gcc/arm-none-eabi/4.9.3/../../../../arm-none-eabi/lib/armv7e-m/fpu/libm.a(lib_a-wf_pow.o)
                                                  /home/sbcm/Dropbox/pcb-layouts/axo-427-core/ksoloti/platform_linux/bin/../lib/gcc/arm-none-eabi/4.9.3/../../../../arm-none-eabi/lib/armv7e-m/fpu/libm.a(lib_a-w_pow.o)
                                                  /home/sbcm/Dropbox/pcb-layouts/axo-427-core/ksoloti/platform_linux/bin/../lib/gcc/arm-none-eabi/4.9.3/../../../../arm-none-eabi/lib/armv7e-m/fpu/libm.a(lib_a-w_log.o)
__aeabi_dcmpge                                    /home/sbcm/Dropbox/pcb-layouts/axo-427-core/ksoloti/platform_linux/bin/../lib/gcc/arm-none-eabi/4.9.3/armv7e-m/fpu/libgcc.a(_arm_cmpdf2.o)
__aeabi_dcmpgt                                    /home/sbcm/Dropbox/pcb-layouts/axo-427-core/ksoloti/platform_linux/bin/../lib/gcc/arm-none-eabi/4.9.3/armv7e-m/fpu/libgcc.a(_arm_cmpdf2.o)
                                                  /home/sbcm/Dropbox/pcb-layouts/axo-427-core/ksoloti/platform_linux/bin/../lib/gcc/arm-none-eabi/4.9.3/../../../../arm-none-eabi/lib/armv7e-m/fpu/libm.a(lib_a-e_pow.o)
                                                  /home/sbcm/Dropbox/pcb-layouts/axo-427-core/ksoloti/platform_linux/bin/../lib/gcc/arm-none-eabi/4.9.3/../../../../arm-none-eabi/lib/armv7e-m/fpu/libm.a(lib_a-w_log.o)
                                                  build/obj/axoloti_math.o
__aeabi_dcmple                                    /home/sbcm/Dropbox/pcb-layouts/axo-427-core/ksoloti/platform_linux/bin/../lib/gcc/arm-none-eabi/4.9.3/armv7e-m/fpu/libgcc.a(_arm_cmpdf2.o)
                                                  /home/sbcm/Dropbox/pcb-layouts/axo-427-core/ksoloti/platform_linux/bin/../lib/gcc/arm-none-eabi/4.9.3/../../../../arm-none-eabi/lib/armv7e-m/fpu/libm.a(lib_a-e_pow.o)
__aeabi_dcmplt                                    /home/sbcm/Dropbox/pcb-layouts/axo-427-core/ksoloti/platform_linux/bin/../lib/gcc/arm-none-eabi/4.9.3/armv7e-m/fpu/libgcc.a(_arm_cmpdf2.o)
                                                  /home/sbcm/Dropbox/pcb-layouts/axo-427-core/ksoloti/platform_linux/bin/../lib/gcc/arm-none-eabi/4.9.3/../../../../arm-none-eabi/lib/armv7e-m/fpu/libm.a(lib_a-w_pow.o)
__aeabi_ddiv                                      /home/sbcm/Dropbox/pcb-layouts/axo-427-core/ksoloti/platform_linux/bin/../lib/gcc/arm-none-eabi/4.9.3/armv7e-m/fpu/libgcc.a(_arm_muldivdf3.o)
                                                  /home/sbcm/Dropbox/pcb-layouts/axo-427-core/ksoloti/platform_linux/bin/../lib/gcc/arm-none-eabi/4.9.3/../../../../arm-none-eabi/lib/armv7e-m/fpu/libm.a(lib_a-e_sqrt.o)
                                                  /home/sbcm/Dropbox/pcb-layouts/axo-427-core/ksoloti/platform_linux/bin/../lib/gcc/arm-none-eabi/4.9.3/../../../../arm-none-eabi/lib/armv7e-m/fpu/libm.a(lib_a-e_pow.o)
                                                  /home/sbcm/Dropbox/pcb-layouts/axo-427-core/ksoloti/platform_linux/bin/../lib/gcc/arm-none-eabi/4.9.3/../../../../arm-none-eabi/lib/armv7e-m/fpu/libm.a(lib_a-e_log.o)
                                                  /home/sbcm/Dropbox/pcb-layouts/axo-427-core/ksoloti/platform_linux/bin/../lib/gcc/arm-none-eabi/4.9.3/../../../../arm-none-eabi/lib/armv7e-m/fpu/libm.a(lib_a-wf_pow.o)
                                                  /home/sbcm/Dropbox/pcb-layouts/axo-427-core/ksoloti/platform_linux/bin/../lib/gcc/arm-none-eabi/4.9.3/../../../../arm-none-eabi/lib/armv7e-m/fpu/libm.a(lib_a-w_pow.o)
                                                  build/obj/axoloti_math.o
__aeabi_dmul                                      /home/sbcm/Dropbox/pcb-layouts/axo-427-core/ksoloti/platform_linux/bin/../lib/gcc/arm-none-eabi/4.9.3/armv7e-m/fpu/libgcc.a(_arm_muldivdf3.o)
                                                  /home/sbcm/Dropbox/pcb-layouts/axo-427-core/ksoloti/platform_linux/bin/../lib/gcc/arm-none-eabi/4.9.3/../../../../arm-none-eabi/lib/armv7e-m/fpu/libm.a(lib_a-s_scalbn.o)
                                                  /home/sbcm/Dropbox/pcb-layouts/axo-427-core/ksoloti/platform_linux/bin/../lib/gcc/arm-none-eabi/4.9.3/../../../../arm-none-eabi/lib/armv7e-m/fpu/libm.a(lib_a-e_sqrt.o)
                                                  /home/sbcm/Dropbox/pcb-layouts/axo-427-core/ksoloti/platform_linux/bin/../lib/gcc/arm-none-eabi/4.9.3/../../../../arm-none-eabi/lib/armv7e-m/fpu/libm.a(lib_a-e_pow.o)
                                                  /home/sbcm/Dropbox/pcb-layouts/axo-427-core/ksoloti/platform_linux/bin/../lib/gcc/arm-none-eabi/4.9.3/../../../../arm-none-eabi/lib/armv7e-m/fpu/libm.a(lib_a-e_log.o)
                                                  /home/sbcm/Dropbox/pcb-layouts/axo-427-core/ksoloti/platform_linux/bin/../lib/gcc/arm-none-eabi/4.9.3/../../../../arm-none-eabi/lib/armv7e-m/fpu/libm.a(lib_a-w_pow.o)
                                                  build/obj/axoloti_math.o
                                                  build/obj/chprintf.o
__aeabi_drsub                                     /home/sbcm/Dropbox/pcb-layouts/axo-427-core/ksoloti/platform_linux/bin/../lib/gcc/arm-none-eabi/4.9.3/armv7e-m/fpu/libgcc.a(_arm_addsubdf3.o)
__aeabi_dsub                                      /home/sbcm/Dropbox/pcb-layouts/axo-427-core/ksoloti/platform_linux/bin/../lib/gcc/arm-none-eabi/4.9.3/armv7e-m/fpu/libgcc.a(_arm_addsubdf3.o)
                                                  /home/sbcm/Dropbox/pcb-layouts/axo-427-core/ksoloti/platform_linux/bin/../lib/gcc/arm-none-eabi/4.9.3/../../../../arm-none-eabi/lib/armv7e-m/fpu/libm.a(lib_a-s_rint.o)
                                                  /home/sbcm/Dropbox/pcb-layouts/axo-427-core/ksoloti/platform_linux/bin/../lib/gcc/arm-none-eabi/4.9.3/../../../../arm-none-eabi/lib/armv7e-m/fpu/libm.a(lib_a-e_sqrt.o)
                                                  /home/sbcm/Dropbox/pcb-layouts/axo-427-core/ksoloti/platform_linux/bin/../lib/gcc/arm-none-eabi/4.9.3/../../../../arm-none-eabi/lib/armv7e-m/fpu/libm.a(lib_a-e_pow.o)
                                                  /home/sbcm/Dropbox/pcb-layouts/axo-427-core/ksoloti/platform_linux/bin/../lib/gcc/arm-none-eabi/4.9.3/../../../../arm-none-eabi/lib/armv7e-m/fpu/libm.a(lib_a-e_log.o)
                                                  build/obj/chprintf.o
__aeabi_f2d                                       /home/sbcm/Dropbox/pcb-layouts/axo-427-core/ksoloti/platform_linux/bin/../lib/gcc/arm-none-eabi/4.9.3/armv7e-m/fpu/libgcc.a(_arm_addsubdf3.o)
                                                  /home/sbcm/Dropbox/pcb-layouts/axo-427-core/ksoloti/platform_linux/bin/../lib/gcc/arm-none-eabi/4.9.3/../../../../arm-none-eabi/lib/armv7e-m/fpu/libm.a(lib_a-wf_pow.o)
                                                  build/obj/axoloti_math.o
                                                  build/obj/chprintf.o
__aeabi_i2d                                       /home/sbcm/Dropbox/pcb-layouts/axo-427-core/ksoloti/platform_linux/bin/../lib/gcc/arm-none-eabi/4.9.3/armv7e-m/fpu/libgcc.a(_arm_addsubdf3.o)
                                                  /home/sbcm/Dropbox/pcb-layouts/axo-427-core/ksoloti/platform_linux/bin/../lib/gcc/arm-none-eabi/4.9.3/../../../../arm-none-eabi/lib/armv7e-m/fpu/libm.a(lib_a-e_pow.o)
                                                  /home/sbcm/Dropbox/pcb-layouts/axo-427-core/ksoloti/platform_linux/bin/../lib/gcc/arm-none-eabi/4.9.3/../../../../arm-none-eabi/lib/armv7e-m/fpu/libm.a(lib_a-e_log.o)
                                                  build/obj/chprintf.o
__aeabi_l2d                                       /home/sbcm/Dropbox/pcb-layouts/axo-427-core/ksoloti/platform_linux/bin/../lib/gcc/arm-none-eabi/4.9.3/armv7e-m/fpu/libgcc.a(_arm_addsubdf3.o)
__aeabi_ui2d                                      /home/sbcm/Dropbox/pcb-layouts/axo-427-core/ksoloti/platform_linux/bin/../lib/gcc/arm-none-eabi/4.9.3/armv7e-m/fpu/libgcc.a(_arm_addsubdf3.o)
                                                  build/obj/axoloti_math.o
__aeabi_ul2d                                      /home/sbcm/Dropbox/pcb-layouts/axo-427-core/ksoloti/platform_linux/bin/../lib/gcc/arm-none-eabi/4.9.3/armv7e-m/fpu/libgcc.a(_arm_addsubdf3.o)
__aeabi_unwind_cpp_pr0                            /home/sbcm/Dropbox/pcb-layouts/axo-427-core/ksoloti/platform_linux/bin/../lib/gcc/arm-none-eabi/4.9.3/armv7e-m/fpu/libgcc.a(unwind-arm.o)
                                                  /home/sbcm/Dropbox/pcb-layouts/axo-427-core/ksoloti/platform_linux/bin/../lib/gcc/arm-none-eabi/4.9.3/armv7e-m/fpu/libgcc.a(pr-support.o)
                                                  build/obj/processor.o
                                                  build/obj/follower.o
                                                  build/obj/stft.o
                                                  build/obj/phase_vocoder.o
                                                  build/obj/granular_processor.o
                                                  build/obj/voice.o
                                                  build/obj/part.o
                                                  build/obj/exciter.o
                                                  build/obj/string.o
                                                  build/obj/resonator.o
                                                  build/obj/ominous_voice.o
                                                  build/obj/axoloti_mi.o
                                                  build/obj/vocoder.o
__aeabi_unwind_cpp_pr1                            /home/sbcm/Dropbox/pcb-layouts/axo-427-core/ksoloti/platform_linux/bin/../lib/gcc/arm-none-eabi/4.9.3/armv7e-m/fpu/libgcc.a(unwind-arm.o)
                                                  /home/sbcm/Dropbox/pcb-layouts/axo-427-core/ksoloti/platform_linux/bin/../lib/gcc/arm-none-eabi/4.9.3/armv7e-m/fpu/libgcc.a(pr-support.o)
                                                  build/obj/stft.o
                                                  build/obj/granular_processor.o
                                                  build/obj/voice.o
                                                  build/obj/part.o
                                                  build/obj/modulator.o
                                                  build/obj/filter_bank.o
__aeabi_unwind_cpp_pr2                            /home/sbcm/Dropbox/pcb-layouts/axo-427-core/ksoloti/platform_linux/bin/../lib/gcc/arm-none-eabi/4.9.3/armv7e-m/fpu/libgcc.a(unwind-arm.o)
__cmpdf2                                          /home/sbcm/Dropbox/pcb-layouts/axo-427-core/ksoloti/platform_linux/bin/../lib/gcc/arm-none-eabi/4.9.3/armv7e-m/fpu/libgcc.a(_arm_cmpdf2.o)
__cxa_begin_cleanup                               /home/sbcm/Dropbox/pcb-layouts/axo-427-core/ksoloti/platform_linux/bin/../lib/gcc/arm-none-eabi/4.9.3/armv7e-m/fpu/libgcc.a(unwind-arm.o)
__cxa_call_unexpected                             /home/sbcm/Dropbox/pcb-layouts/axo-427-core/ksoloti/platform_linux/bin/../lib/gcc/arm-none-eabi/4.9.3/armv7e-m/fpu/libgcc.a(unwind-arm.o)
__cxa_type_match                                  /home/sbcm/Dropbox/pcb-layouts/axo-427-core/ksoloti/platform_linux/bin/../lib/gcc/arm-none-eabi/4.9.3/armv7e-m/fpu/libgcc.a(unwind-arm.o)
__divdf3                                          /home/sbcm/Dropbox/pcb-layouts/axo-427-core/ksoloti/platform_linux/bin/../lib/gcc/arm-none-eabi/4.9.3/armv7e-m/fpu/libgcc.a(_arm_muldivdf3.o)
__early_init                                      build/obj/board.o
                                                  build/obj/crt0.o
__eqdf2                                           /home/sbcm/Dropbox/pcb-layouts/axo-427-core/ksoloti/platform_linux/bin/../lib/gcc/arm-none-eabi/4.9.3/armv7e-m/fpu/libgcc.a(_arm_cmpdf2.o)
__errno                                           /home/sbcm/Dropbox/pcb-layouts/axo-427-core/ksoloti/platform_linux/bin/../lib/gcc/arm-none-eabi/4.9.3/../../../../arm-none-eabi/lib/armv7e-m/fpu/libg.a(lib_a-errno.o)
                                                  /home/sbcm/Dropbox/pcb-layouts/axo-427-core/ksoloti/platform_linux/bin/../lib/gcc/arm-none-eabi/4.9.3/../../../../arm-none-eabi/lib/armv7e-m/fpu/libm.a(lib_a-wf_pow.o)
                                                  /home/sbcm/Dropbox/pcb-layouts/axo-427-core/ksoloti/platform_linux/bin/../lib/gcc/arm-none-eabi/4.9.3/../../../../arm-none-eabi/lib/armv7e-m/fpu/libm.a(lib_a-w_pow.o)
                                                  /home/sbcm/Dropbox/pcb-layouts/axo-427-core/ksoloti/platform_linux/bin/../lib/gcc/arm-none-eabi/4.9.3/../../../../arm-none-eabi/lib/armv7e-m/fpu/libm.a(lib_a-w_log.o)
__exidx_end                                       /home/sbcm/Dropbox/pcb-layouts/axo-427-core/ksoloti/platform_linux/bin/../lib/gcc/arm-none-eabi/4.9.3/armv7e-m/fpu/libgcc.a(unwind-arm.o)
__exidx_start                                     /home/sbcm/Dropbox/pcb-layouts/axo-427-core/ksoloti/platform_linux/bin/../lib/gcc/arm-none-eabi/4.9.3/armv7e-m/fpu/libgcc.a(unwind-arm.o)
__extendsfdf2                                     /home/sbcm/Dropbox/pcb-layouts/axo-427-core/ksoloti/platform_linux/bin/../lib/gcc/arm-none-eabi/4.9.3/armv7e-m/fpu/libgcc.a(_arm_addsubdf3.o)
__fdlib_version                                   /home/sbcm/Dropbox/pcb-layouts/axo-427-core/ksoloti/platform_linux/bin/../lib/gcc/arm-none-eabi/4.9.3/../../../../arm-none-eabi/lib/armv7e-m/fpu/libm.a(lib_a-s_lib_ver.o)
                                                  /home/sbcm/Dropbox/pcb-layouts/axo-427-core/ksoloti/platform_linux/bin/../lib/gcc/arm-none-eabi/4.9.3/../../../../arm-none-eabi/lib/armv7e-m/fpu/libm.a(lib_a-wf_pow.o)
                                                  /home/sbcm/Dropbox/pcb-layouts/axo-427-core/ksoloti/platform_linux/bin/../lib/gcc/arm-none-eabi/4.9.3/../../../../arm-none-eabi/lib/armv7e-m/fpu/libm.a(lib_a-w_pow.o)
                                                  /home/sbcm/Dropbox/pcb-layouts/axo-427-core/ksoloti/platform_linux/bin/../lib/gcc/arm-none-eabi/4.9.3/../../../../arm-none-eabi/lib/armv7e-m/fpu/libm.a(lib_a-w_log.o)
__fini_array_end                                  build/obj/crt0.o
__fini_array_start                                build/obj/crt0.o
__fixdfsi                                         /home/sbcm/Dropbox/pcb-layouts/axo-427-core/ksoloti/platform_linux/bin/../lib/gcc/arm-none-eabi/4.9.3/armv7e-m/fpu/libgcc.a(_arm_fixdfsi.o)
__fixunsdfsi                                      /home/sbcm/Dropbox/pcb-layouts/axo-427-core/ksoloti/platform_linux/bin/../lib/gcc/arm-none-eabi/4.9.3/armv7e-m/fpu/libgcc.a(_arm_fixunsdfsi.o)
__floatdidf                                       /home/sbcm/Dropbox/pcb-layouts/axo-427-core/ksoloti/platform_linux/bin/../lib/gcc/arm-none-eabi/4.9.3/armv7e-m/fpu/libgcc.a(_arm_addsubdf3.o)
__floatsidf                                       /home/sbcm/Dropbox/pcb-layouts/axo-427-core/ksoloti/platform_linux/bin/../lib/gcc/arm-none-eabi/4.9.3/armv7e-m/fpu/libgcc.a(_arm_addsubdf3.o)
__floatundidf                                     /home/sbcm/Dropbox/pcb-layouts/axo-427-core/ksoloti/platform_linux/bin/../lib/gcc/arm-none-eabi/4.9.3/armv7e-m/fpu/libgcc.a(_arm_addsubdf3.o)
__floatunsidf                                     /home/sbcm/Dropbox/pcb-layouts/axo-427-core/ksoloti/platform_linux/bin/../lib/gcc/arm-none-eabi/4.9.3/armv7e-m/fpu/libgcc.a(_arm_addsubdf3.o)
__fpclassifyd                                     /home/sbcm/Dropbox/pcb-layouts/axo-427-core/ksoloti/platform_linux/bin/../lib/gcc/arm-none-eabi/4.9.3/../../../../arm-none-eabi/lib/armv7e-m/fpu/libm.a(lib_a-s_fpclassify.o)
                                                  /home/sbcm/Dropbox/pcb-layouts/axo-427-core/ksoloti/platform_linux/bin/../lib/gcc/arm-none-eabi/4.9.3/../../../../arm-none-eabi/lib/armv7e-m/fpu/libm.a(lib_a-w_pow.o)
                                                  /home/sbcm/Dropbox/pcb-layouts/axo-427-core/ksoloti/platform_linux/bin/../lib/gcc/arm-none-eabi/4.9.3/../../../../arm-none-eabi/lib/armv7e-m/fpu/libm.a(lib_a-w_log.o)
__fpclassifyf                                     /home/sbcm/Dropbox/pcb-layouts/axo-427-core/ksoloti/platform_linux/bin/../lib/gcc/arm-none-eabi/4.9.3/../../../../arm-none-eabi/lib/armv7e-m/fpu/libm.a(lib_a-sf_fpclassify.o)
                                                  /home/sbcm/Dropbox/pcb-layouts/axo-427-core/ksoloti/platform_linux/bin/../lib/gcc/arm-none-eabi/4.9.3/../../../../arm-none-eabi/lib/armv7e-m/fpu/libm.a(lib_a-wf_pow.o)
__gedf2                                           /home/sbcm/Dropbox/pcb-layouts/axo-427-core/ksoloti/platform_linux/bin/../lib/gcc/arm-none-eabi/4.9.3/armv7e-m/fpu/libgcc.a(_arm_cmpdf2.o)
__gnu_Unwind_Backtrace                            /home/sbcm/Dropbox/pcb-layouts/axo-427-core/ksoloti/platform_linux/bin/../lib/gcc/arm-none-eabi/4.9.3/armv7e-m/fpu/libgcc.a(unwind-arm.o)
                                                  /home/sbcm/Dropbox/pcb-layouts/axo-427-core/ksoloti/platform_linux/bin/../lib/gcc/arm-none-eabi/4.9.3/armv7e-m/fpu/libgcc.a(libunwind.o)
__gnu_Unwind_Find_exidx                           /home/sbcm/Dropbox/pcb-layouts/axo-427-core/ksoloti/platform_linux/bin/../lib/gcc/arm-none-eabi/4.9.3/armv7e-m/fpu/libgcc.a(unwind-arm.o)
__gnu_Unwind_ForcedUnwind                         /home/sbcm/Dropbox/pcb-layouts/axo-427-core/ksoloti/platform_linux/bin/../lib/gcc/arm-none-eabi/4.9.3/armv7e-m/fpu/libgcc.a(unwind-arm.o)
                                                  /home/sbcm/Dropbox/pcb-layouts/axo-427-core/ksoloti/platform_linux/bin/../lib/gcc/arm-none-eabi/4.9.3/armv7e-m/fpu/libgcc.a(libunwind.o)
__gnu_Unwind_RaiseException                       /home/sbcm/Dropbox/pcb-layouts/axo-427-core/ksoloti/platform_linux/bin/../lib/gcc/arm-none-eabi/4.9.3/armv7e-m/fpu/libgcc.a(unwind-arm.o)
                                                  /home/sbcm/Dropbox/pcb-layouts/axo-427-core/ksoloti/platform_linux/bin/../lib/gcc/arm-none-eabi/4.9.3/armv7e-m/fpu/libgcc.a(libunwind.o)
__gnu_Unwind_Restore_VFP                          /home/sbcm/Dropbox/pcb-layouts/axo-427-core/ksoloti/platform_linux/bin/../lib/gcc/arm-none-eabi/4.9.3/armv7e-m/fpu/libgcc.a(libunwind.o)
                                                  /home/sbcm/Dropbox/pcb-layouts/axo-427-core/ksoloti/platform_linux/bin/../lib/gcc/arm-none-eabi/4.9.3/armv7e-m/fpu/libgcc.a(unwind-arm.o)
__gnu_Unwind_Restore_VFP_D                        /home/sbcm/Dropbox/pcb-layouts/axo-427-core/ksoloti/platform_linux/bin/../lib/gcc/arm-none-eabi/4.9.3/armv7e-m/fpu/libgcc.a(libunwind.o)
                                                  /home/sbcm/Dropbox/pcb-layouts/axo-427-core/ksoloti/platform_linux/bin/../lib/gcc/arm-none-eabi/4.9.3/armv7e-m/fpu/libgcc.a(unwind-arm.o)
__gnu_Unwind_Restore_VFP_D_16_to_31               /home/sbcm/Dropbox/pcb-layouts/axo-427-core/ksoloti/platform_linux/bin/../lib/gcc/arm-none-eabi/4.9.3/armv7e-m/fpu/libgcc.a(libunwind.o)
                                                  /home/sbcm/Dropbox/pcb-layouts/axo-427-core/ksoloti/platform_linux/bin/../lib/gcc/arm-none-eabi/4.9.3/armv7e-m/fpu/libgcc.a(unwind-arm.o)
__gnu_Unwind_Restore_WMMXC                        /home/sbcm/Dropbox/pcb-layouts/axo-427-core/ksoloti/platform_linux/bin/../lib/gcc/arm-none-eabi/4.9.3/armv7e-m/fpu/libgcc.a(libunwind.o)
                                                  /home/sbcm/Dropbox/pcb-layouts/axo-427-core/ksoloti/platform_linux/bin/../lib/gcc/arm-none-eabi/4.9.3/armv7e-m/fpu/libgcc.a(unwind-arm.o)
__gnu_Unwind_Restore_WMMXD                        /home/sbcm/Dropbox/pcb-layouts/axo-427-core/ksoloti/platform_linux/bin/../lib/gcc/arm-none-eabi/4.9.3/armv7e-m/fpu/libgcc.a(libunwind.o)
                                                  /home/sbcm/Dropbox/pcb-layouts/axo-427-core/ksoloti/platform_linux/bin/../lib/gcc/arm-none-eabi/4.9.3/armv7e-m/fpu/libgcc.a(unwind-arm.o)
__gnu_Unwind_Resume                               /home/sbcm/Dropbox/pcb-layouts/axo-427-core/ksoloti/platform_linux/bin/../lib/gcc/arm-none-eabi/4.9.3/armv7e-m/fpu/libgcc.a(unwind-arm.o)
                                                  /home/sbcm/Dropbox/pcb-layouts/axo-427-core/ksoloti/platform_linux/bin/../lib/gcc/arm-none-eabi/4.9.3/armv7e-m/fpu/libgcc.a(libunwind.o)
__gnu_Unwind_Resume_or_Rethrow                    /home/sbcm/Dropbox/pcb-layouts/axo-427-core/ksoloti/platform_linux/bin/../lib/gcc/arm-none-eabi/4.9.3/armv7e-m/fpu/libgcc.a(unwind-arm.o)
                                                  /home/sbcm/Dropbox/pcb-layouts/axo-427-core/ksoloti/platform_linux/bin/../lib/gcc/arm-none-eabi/4.9.3/armv7e-m/fpu/libgcc.a(libunwind.o)
__gnu_Unwind_Save_VFP                             /home/sbcm/Dropbox/pcb-layouts/axo-427-core/ksoloti/platform_linux/bin/../lib/gcc/arm-none-eabi/4.9.3/armv7e-m/fpu/libgcc.a(libunwind.o)
                                                  /home/sbcm/Dropbox/pcb-layouts/axo-427-core/ksoloti/platform_linux/bin/../lib/gcc/arm-none-eabi/4.9.3/armv7e-m/fpu/libgcc.a(unwind-arm.o)
__gnu_Unwind_Save_VFP_D                           /home/sbcm/Dropbox/pcb-layouts/axo-427-core/ksoloti/platform_linux/bin/../lib/gcc/arm-none-eabi/4.9.3/armv7e-m/fpu/libgcc.a(libunwind.o)
                                                  /home/sbcm/Dropbox/pcb-layouts/axo-427-core/ksoloti/platform_linux/bin/../lib/gcc/arm-none-eabi/4.9.3/armv7e-m/fpu/libgcc.a(unwind-arm.o)
__gnu_Unwind_Save_VFP_D_16_to_31                  /home/sbcm/Dropbox/pcb-layouts/axo-427-core/ksoloti/platform_linux/bin/../lib/gcc/arm-none-eabi/4.9.3/armv7e-m/fpu/libgcc.a(libunwind.o)
                                                  /home/sbcm/Dropbox/pcb-layouts/axo-427-core/ksoloti/platform_linux/bin/../lib/gcc/arm-none-eabi/4.9.3/armv7e-m/fpu/libgcc.a(unwind-arm.o)
__gnu_Unwind_Save_WMMXC                           /home/sbcm/Dropbox/pcb-layouts/axo-427-core/ksoloti/platform_linux/bin/../lib/gcc/arm-none-eabi/4.9.3/armv7e-m/fpu/libgcc.a(libunwind.o)
                                                  /home/sbcm/Dropbox/pcb-layouts/axo-427-core/ksoloti/platform_linux/bin/../lib/gcc/arm-none-eabi/4.9.3/armv7e-m/fpu/libgcc.a(unwind-arm.o)
__gnu_Unwind_Save_WMMXD                           /home/sbcm/Dropbox/pcb-layouts/axo-427-core/ksoloti/platform_linux/bin/../lib/gcc/arm-none-eabi/4.9.3/armv7e-m/fpu/libgcc.a(libunwind.o)
                                                  /home/sbcm/Dropbox/pcb-layouts/axo-427-core/ksoloti/platform_linux/bin/../lib/gcc/arm-none-eabi/4.9.3/armv7e-m/fpu/libgcc.a(unwind-arm.o)
__gnu_unwind_execute                              /home/sbcm/Dropbox/pcb-layouts/axo-427-core/ksoloti/platform_linux/bin/../lib/gcc/arm-none-eabi/4.9.3/armv7e-m/fpu/libgcc.a(pr-support.o)
                                                  /home/sbcm/Dropbox/pcb-layouts/axo-427-core/ksoloti/platform_linux/bin/../lib/gcc/arm-none-eabi/4.9.3/armv7e-m/fpu/libgcc.a(unwind-arm.o)
__gnu_unwind_frame                                /home/sbcm/Dropbox/pcb-layouts/axo-427-core/ksoloti/platform_linux/bin/../lib/gcc/arm-none-eabi/4.9.3/armv7e-m/fpu/libgcc.a(pr-support.o)
__gtdf2                                           /home/sbcm/Dropbox/pcb-layouts/axo-427-core/ksoloti/platform_linux/bin/../lib/gcc/arm-none-eabi/4.9.3/armv7e-m/fpu/libgcc.a(_arm_cmpdf2.o)
__heap_base__                                     build/obj/chmemcore.o
__heap_end__                                      build/obj/chmemcore.o
__ieee754_log                                     /home/sbcm/Dropbox/pcb-layouts/axo-427-core/ksoloti/platform_linux/bin/../lib/gcc/arm-none-eabi/4.9.3/../../../../arm-none-eabi/lib/armv7e-m/fpu/libm.a(lib_a-e_log.o)
                                                  /home/sbcm/Dropbox/pcb-layouts/axo-427-core/ksoloti/platform_linux/bin/../lib/gcc/arm-none-eabi/4.9.3/../../../../arm-none-eabi/lib/armv7e-m/fpu/libm.a(lib_a-w_log.o)
__ieee754_pow                                     /home/sbcm/Dropbox/pcb-layouts/axo-427-core/ksoloti/platform_linux/bin/../lib/gcc/arm-none-eabi/4.9.3/../../../../arm-none-eabi/lib/armv7e-m/fpu/libm.a(lib_a-e_pow.o)
                                                  /home/sbcm/Dropbox/pcb-layouts/axo-427-core/ksoloti/platform_linux/bin/../lib/gcc/arm-none-eabi/4.9.3/../../../../arm-none-eabi/lib/armv7e-m/fpu/libm.a(lib_a-w_pow.o)
__ieee754_powf                                    /home/sbcm/Dropbox/pcb-layouts/axo-427-core/ksoloti/platform_linux/bin/../lib/gcc/arm-none-eabi/4.9.3/../../../../arm-none-eabi/lib/armv7e-m/fpu/libm.a(lib_a-ef_pow.o)
                                                  /home/sbcm/Dropbox/pcb-layouts/axo-427-core/ksoloti/platform_linux/bin/../lib/gcc/arm-none-eabi/4.9.3/../../../../arm-none-eabi/lib/armv7e-m/fpu/libm.a(lib_a-wf_pow.o)
__ieee754_rem_pio2f                               /home/sbcm/Dropbox/pcb-layouts/axo-427-core/ksoloti/platform_linux/bin/../lib/gcc/arm-none-eabi/4.9.3/../../../../arm-none-eabi/lib/armv7e-m/fpu/libm.a(lib_a-ef_rem_pio2.o)
                                                  /home/sbcm/Dropbox/pcb-layouts/axo-427-core/ksoloti/platform_linux/bin/../lib/gcc/arm-none-eabi/4.9.3/../../../../arm-none-eabi/lib/armv7e-m/fpu/libm.a(lib_a-sf_sin.o)
                                                  /home/sbcm/Dropbox/pcb-layouts/axo-427-core/ksoloti/platform_linux/bin/../lib/gcc/arm-none-eabi/4.9.3/../../../../arm-none-eabi/lib/armv7e-m/fpu/libm.a(lib_a-sf_cos.o)
__ieee754_sqrt                                    /home/sbcm/Dropbox/pcb-layouts/axo-427-core/ksoloti/platform_linux/bin/../lib/gcc/arm-none-eabi/4.9.3/../../../../arm-none-eabi/lib/armv7e-m/fpu/libm.a(lib_a-e_sqrt.o)
                                                  /home/sbcm/Dropbox/pcb-layouts/axo-427-core/ksoloti/platform_linux/bin/../lib/gcc/arm-none-eabi/4.9.3/../../../../arm-none-eabi/lib/armv7e-m/fpu/libm.a(lib_a-e_pow.o)
__ieee754_sqrtf                                   /home/sbcm/Dropbox/pcb-layouts/axo-427-core/ksoloti/platform_linux/bin/../lib/gcc/arm-none-eabi/4.9.3/../../../../arm-none-eabi/lib/armv7e-m/fpu/libm.a(lib_a-ef_sqrt.o)
                                                  /home/sbcm/Dropbox/pcb-layouts/axo-427-core/ksoloti/platform_linux/bin/../lib/gcc/arm-none-eabi/4.9.3/../../../../arm-none-eabi/lib/armv7e-m/fpu/libm.a(lib_a-ef_pow.o)
__init_array_end                                  build/obj/crt0.o
__init_array_start                                build/obj/crt0.o
__kernel_cosf                                     /home/sbcm/Dropbox/pcb-layouts/axo-427-core/ksoloti/platform_linux/bin/../lib/gcc/arm-none-eabi/4.9.3/../../../../arm-none-eabi/lib/armv7e-m/fpu/libm.a(lib_a-kf_cos.o)
                                                  /home/sbcm/Dropbox/pcb-layouts/axo-427-core/ksoloti/platform_linux/bin/../lib/gcc/arm-none-eabi/4.9.3/../../../../arm-none-eabi/lib/armv7e-m/fpu/libm.a(lib_a-sf_sin.o)
                                                  /home/sbcm/Dropbox/pcb-layouts/axo-427-core/ksoloti/platform_linux/bin/../lib/gcc/arm-none-eabi/4.9.3/../../../../arm-none-eabi/lib/armv7e-m/fpu/libm.a(lib_a-sf_cos.o)
__kernel_rem_pio2f                                /home/sbcm/Dropbox/pcb-layouts/axo-427-core/ksoloti/platform_linux/bin/../lib/gcc/arm-none-eabi/4.9.3/../../../../arm-none-eabi/lib/armv7e-m/fpu/libm.a(lib_a-kf_rem_pio2.o)
                                                  /home/sbcm/Dropbox/pcb-layouts/axo-427-core/ksoloti/platform_linux/bin/../lib/gcc/arm-none-eabi/4.9.3/../../../../arm-none-eabi/lib/armv7e-m/fpu/libm.a(lib_a-ef_rem_pio2.o)
__kernel_sinf                                     /home/sbcm/Dropbox/pcb-layouts/axo-427-core/ksoloti/platform_linux/bin/../lib/gcc/arm-none-eabi/4.9.3/../../../../arm-none-eabi/lib/armv7e-m/fpu/libm.a(lib_a-kf_sin.o)
                                                  /home/sbcm/Dropbox/pcb-layouts/axo-427-core/ksoloti/platform_linux/bin/../lib/gcc/arm-none-eabi/4.9.3/../../../../arm-none-eabi/lib/armv7e-m/fpu/libm.a(lib_a-sf_sin.o)
                                                  /home/sbcm/Dropbox/pcb-layouts/axo-427-core/ksoloti/platform_linux/bin/../lib/gcc/arm-none-eabi/4.9.3/../../../../arm-none-eabi/lib/armv7e-m/fpu/libm.a(lib_a-sf_cos.o)
__late_init                                       build/obj/board.o
                                                  build/obj/crt0.o
__ledf2                                           /home/sbcm/Dropbox/pcb-layouts/axo-427-core/ksoloti/platform_linux/bin/../lib/gcc/arm-none-eabi/4.9.3/armv7e-m/fpu/libgcc.a(_arm_cmpdf2.o)
__ltdf2                                           /home/sbcm/Dropbox/pcb-layouts/axo-427-core/ksoloti/platform_linux/bin/../lib/gcc/arm-none-eabi/4.9.3/armv7e-m/fpu/libgcc.a(_arm_cmpdf2.o)
__main_stack_base__                               build/obj/crt0.o
__main_stack_end__                                build/obj/vectors.o
                                                  build/obj/crt0.o
__malloc_av_                                      /home/sbcm/Dropbox/pcb-layouts/axo-427-core/ksoloti/platform_linux/bin/../lib/gcc/arm-none-eabi/4.9.3/../../../../arm-none-eabi/lib/armv7e-m/fpu/libg.a(lib_a-mallocr.o)
                                                  /home/sbcm/Dropbox/pcb-layouts/axo-427-core/ksoloti/platform_linux/bin/../lib/gcc/arm-none-eabi/4.9.3/../../../../arm-none-eabi/lib/armv7e-m/fpu/libg.a(lib_a-freer.o)
__malloc_current_mallinfo                         /home/sbcm/Dropbox/pcb-layouts/axo-427-core/ksoloti/platform_linux/bin/../lib/gcc/arm-none-eabi/4.9.3/../../../../arm-none-eabi/lib/armv7e-m/fpu/libg.a(lib_a-mallocr.o)
                                                  /home/sbcm/Dropbox/pcb-layouts/axo-427-core/ksoloti/platform_linux/bin/../lib/gcc/arm-none-eabi/4.9.3/../../../../arm-none-eabi/lib/armv7e-m/fpu/libg.a(lib_a-freer.o)
__malloc_lock                                     /home/sbcm/Dropbox/pcb-layouts/axo-427-core/ksoloti/platform_linux/bin/../lib/gcc/arm-none-eabi/4.9.3/../../../../arm-none-eabi/lib/armv7e-m/fpu/libg.a(lib_a-mlock.o)
                                                  /home/sbcm/Dropbox/pcb-layouts/axo-427-core/ksoloti/platform_linux/bin/../lib/gcc/arm-none-eabi/4.9.3/../../../../arm-none-eabi/lib/armv7e-m/fpu/libg.a(lib_a-freer.o)
                                                  /home/sbcm/Dropbox/pcb-layouts/axo-427-core/ksoloti/platform_linux/bin/../lib/gcc/arm-none-eabi/4.9.3/../../../../arm-none-eabi/lib/armv7e-m/fpu/libg.a(lib_a-mallocr.o)
__malloc_max_sbrked_mem                           /home/sbcm/Dropbox/pcb-layouts/axo-427-core/ksoloti/platform_linux/bin/../lib/gcc/arm-none-eabi/4.9.3/../../../../arm-none-eabi/lib/armv7e-m/fpu/libg.a(lib_a-mallocr.o)
__malloc_max_total_mem                            /home/sbcm/Dropbox/pcb-layouts/axo-427-core/ksoloti/platform_linux/bin/../lib/gcc/arm-none-eabi/4.9.3/../../../../arm-none-eabi/lib/armv7e-m/fpu/libg.a(lib_a-mallocr.o)
__malloc_sbrk_base                                /home/sbcm/Dropbox/pcb-layouts/axo-427-core/ksoloti/platform_linux/bin/../lib/gcc/arm-none-eabi/4.9.3/../../../../arm-none-eabi/lib/armv7e-m/fpu/libg.a(lib_a-mallocr.o)
                                                  /home/sbcm/Dropbox/pcb-layouts/axo-427-core/ksoloti/platform_linux/bin/../lib/gcc/arm-none-eabi/4.9.3/../../../../arm-none-eabi/lib/armv7e-m/fpu/libg.a(lib_a-freer.o)
__malloc_top_pad                                  /home/sbcm/Dropbox/pcb-layouts/axo-427-core/ksoloti/platform_linux/bin/../lib/gcc/arm-none-eabi/4.9.3/../../../../arm-none-eabi/lib/armv7e-m/fpu/libg.a(lib_a-mallocr.o)
                                                  /home/sbcm/Dropbox/pcb-layouts/axo-427-core/ksoloti/platform_linux/bin/../lib/gcc/arm-none-eabi/4.9.3/../../../../arm-none-eabi/lib/armv7e-m/fpu/libg.a(lib_a-freer.o)
__malloc_trim_threshold                           /home/sbcm/Dropbox/pcb-layouts/axo-427-core/ksoloti/platform_linux/bin/../lib/gcc/arm-none-eabi/4.9.3/../../../../arm-none-eabi/lib/armv7e-m/fpu/libg.a(lib_a-mallocr.o)
                                                  /home/sbcm/Dropbox/pcb-layouts/axo-427-core/ksoloti/platform_linux/bin/../lib/gcc/arm-none-eabi/4.9.3/../../../../arm-none-eabi/lib/armv7e-m/fpu/libg.a(lib_a-freer.o)
__malloc_unlock                                   /home/sbcm/Dropbox/pcb-layouts/axo-427-core/ksoloti/platform_linux/bin/../lib/gcc/arm-none-eabi/4.9.3/../../../../arm-none-eabi/lib/armv7e-m/fpu/libg.a(lib_a-mlock.o)
                                                  /home/sbcm/Dropbox/pcb-layouts/axo-427-core/ksoloti/platform_linux/bin/../lib/gcc/arm-none-eabi/4.9.3/../../../../arm-none-eabi/lib/armv7e-m/fpu/libg.a(lib_a-freer.o)
                                                  /home/sbcm/Dropbox/pcb-layouts/axo-427-core/ksoloti/platform_linux/bin/../lib/gcc/arm-none-eabi/4.9.3/../../../../arm-none-eabi/lib/armv7e-m/fpu/libg.a(lib_a-mallocr.o)
__muldf3                                          /home/sbcm/Dropbox/pcb-layouts/axo-427-core/ksoloti/platform_linux/bin/../lib/gcc/arm-none-eabi/4.9.3/armv7e-m/fpu/libgcc.a(_arm_muldivdf3.o)
__nedf2                                           /home/sbcm/Dropbox/pcb-layouts/axo-427-core/ksoloti/platform_linux/bin/../lib/gcc/arm-none-eabi/4.9.3/armv7e-m/fpu/libgcc.a(_arm_cmpdf2.o)
__process_stack_base__                            build/obj/crt0.o
__process_stack_end__                             build/obj/crt0.o
__restore_core_regs                               /home/sbcm/Dropbox/pcb-layouts/axo-427-core/ksoloti/platform_linux/bin/../lib/gcc/arm-none-eabi/4.9.3/armv7e-m/fpu/libgcc.a(libunwind.o)
__sigtramp                                        /home/sbcm/Dropbox/pcb-layouts/axo-427-core/ksoloti/platform_linux/bin/../lib/gcc/arm-none-eabi/4.9.3/../../../../arm-none-eabi/lib/armv7e-m/fpu/libg.a(lib_a-signal.o)
__sigtramp_r                                      /home/sbcm/Dropbox/pcb-layouts/axo-427-core/ksoloti/platform_linux/bin/../lib/gcc/arm-none-eabi/4.9.3/../../../../arm-none-eabi/lib/armv7e-m/fpu/libg.a(lib_a-signal.o)
__subdf3                                          /home/sbcm/Dropbox/pcb-layouts/axo-427-core/ksoloti/platform_linux/bin/../lib/gcc/arm-none-eabi/4.9.3/armv7e-m/fpu/libgcc.a(_arm_addsubdf3.o)
__truncdfsf2                                      /home/sbcm/Dropbox/pcb-layouts/axo-427-core/ksoloti/platform_linux/bin/../lib/gcc/arm-none-eabi/4.9.3/armv7e-m/fpu/libgcc.a(_arm_truncdfsf2.o)
_bss_end                                          build/obj/crt0.o
_bss_start                                        build/obj/crt0.o
_core_init                                        build/obj/chmemcore.o
                                                  build/obj/chsys.o
_data                                             build/obj/crt0.o
_default_exit                                     build/obj/crt0.o
_edata                                            build/obj/crt0.o
_exit                                             build/obj/board.o
                                                  /home/sbcm/Dropbox/pcb-layouts/axo-427-core/ksoloti/platform_linux/bin/../lib/gcc/arm-none-eabi/4.9.3/../../../../arm-none-eabi/lib/armv7e-m/fpu/libg.a(lib_a-abort.o)
_flash_end                                        build/obj/pconnection.o
_free_r                                           /home/sbcm/Dropbox/pcb-layouts/axo-427-core/ksoloti/platform_linux/bin/../lib/gcc/arm-none-eabi/4.9.3/../../../../arm-none-eabi/lib/armv7e-m/fpu/libg.a(lib_a-freer.o)
                                                  /home/sbcm/Dropbox/pcb-layouts/axo-427-core/ksoloti/platform_linux/bin/../lib/gcc/arm-none-eabi/4.9.3/../../../../arm-none-eabi/lib/armv7e-m/fpu/libg.a(lib_a-reent.o)
                                                  /home/sbcm/Dropbox/pcb-layouts/axo-427-core/ksoloti/platform_linux/bin/../lib/gcc/arm-none-eabi/4.9.3/../../../../arm-none-eabi/lib/armv7e-m/fpu/libg.a(lib_a-mallocr.o)
_getpid                                           build/obj/board.o
                                                  /home/sbcm/Dropbox/pcb-layouts/axo-427-core/ksoloti/platform_linux/bin/../lib/gcc/arm-none-eabi/4.9.3/../../../../arm-none-eabi/lib/armv7e-m/fpu/libg.a(lib_a-signalr.o)
_getpid_r                                         /home/sbcm/Dropbox/pcb-layouts/axo-427-core/ksoloti/platform_linux/bin/../lib/gcc/arm-none-eabi/4.9.3/../../../../arm-none-eabi/lib/armv7e-m/fpu/libg.a(lib_a-signalr.o)
                                                  /home/sbcm/Dropbox/pcb-layouts/axo-427-core/ksoloti/platform_linux/bin/../lib/gcc/arm-none-eabi/4.9.3/../../../../arm-none-eabi/lib/armv7e-m/fpu/libg.a(lib_a-signal.o)
_global_impure_ptr                                /home/sbcm/Dropbox/pcb-layouts/axo-427-core/ksoloti/platform_linux/bin/../lib/gcc/arm-none-eabi/4.9.3/../../../../arm-none-eabi/lib/armv7e-m/fpu/libg.a(lib_a-impure.o)
_heap_init                                        build/obj/chheap.o
                                                  build/obj/chsys.o
_idle_thread                                      build/obj/chsys.o
_idle_thread_wa                                   build/obj/chsys.o
_impure_ptr                                       /home/sbcm/Dropbox/pcb-layouts/axo-427-core/ksoloti/platform_linux/bin/../lib/gcc/arm-none-eabi/4.9.3/../../../../arm-none-eabi/lib/armv7e-m/fpu/libg.a(lib_a-impure.o)
                                                  /home/sbcm/Dropbox/pcb-layouts/axo-427-core/ksoloti/platform_linux/bin/../lib/gcc/arm-none-eabi/4.9.3/../../../../arm-none-eabi/lib/armv7e-m/fpu/libg.a(lib_a-reent.o)
                                                  /home/sbcm/Dropbox/pcb-layouts/axo-427-core/ksoloti/platform_linux/bin/../lib/gcc/arm-none-eabi/4.9.3/../../../../arm-none-eabi/lib/armv7e-m/fpu/libg.a(lib_a-signal.o)
                                                  /home/sbcm/Dropbox/pcb-layouts/axo-427-core/ksoloti/platform_linux/bin/../lib/gcc/arm-none-eabi/4.9.3/../../../../arm-none-eabi/lib/armv7e-m/fpu/libg.a(lib_a-errno.o)
_init_signal                                      /home/sbcm/Dropbox/pcb-layouts/axo-427-core/ksoloti/platform_linux/bin/../lib/gcc/arm-none-eabi/4.9.3/../../../../arm-none-eabi/lib/armv7e-m/fpu/libg.a(lib_a-signal.o)
_init_signal_r                                    /home/sbcm/Dropbox/pcb-layouts/axo-427-core/ksoloti/platform_linux/bin/../lib/gcc/arm-none-eabi/4.9.3/../../../../arm-none-eabi/lib/armv7e-m/fpu/libg.a(lib_a-signal.o)
_kill                                             build/obj/board.o
                                                  /home/sbcm/Dropbox/pcb-layouts/axo-427-core/ksoloti/platform_linux/bin/../lib/gcc/arm-none-eabi/4.9.3/../../../../arm-none-eabi/lib/armv7e-m/fpu/libg.a(lib_a-signalr.o)
_kill_r                                           /home/sbcm/Dropbox/pcb-layouts/axo-427-core/ksoloti/platform_linux/bin/../lib/gcc/arm-none-eabi/4.9.3/../../../../arm-none-eabi/lib/armv7e-m/fpu/libg.a(lib_a-signalr.o)
                                                  /home/sbcm/Dropbox/pcb-layouts/axo-427-core/ksoloti/platform_linux/bin/../lib/gcc/arm-none-eabi/4.9.3/../../../../arm-none-eabi/lib/armv7e-m/fpu/libg.a(lib_a-signal.o)
_malloc_r                                         /home/sbcm/Dropbox/pcb-layouts/axo-427-core/ksoloti/platform_linux/bin/../lib/gcc/arm-none-eabi/4.9.3/../../../../arm-none-eabi/lib/armv7e-m/fpu/libg.a(lib_a-mallocr.o)
                                                  /home/sbcm/Dropbox/pcb-layouts/axo-427-core/ksoloti/platform_linux/bin/../lib/gcc/arm-none-eabi/4.9.3/../../../../arm-none-eabi/lib/armv7e-m/fpu/libg.a(lib_a-signal.o)
_malloc_trim_r                                    /home/sbcm/Dropbox/pcb-layouts/axo-427-core/ksoloti/platform_linux/bin/../lib/gcc/arm-none-eabi/4.9.3/../../../../arm-none-eabi/lib/armv7e-m/fpu/libg.a(lib_a-freer.o)
_pal_lld_init                                     build/obj/pal_lld.o
                                                  build/obj/hal.o
_pal_lld_setgroupmode                             build/obj/pal_lld.o
                                                  build/obj/sysmon.o
                                                  build/obj/exceptions.o
                                                  build/obj/spilink.o
                                                  build/obj/serial_midi.o
                                                  build/obj/main.o
                                                  build/obj/sdcard.o
                                                  build/obj/axoloti_board.o
                                                  build/obj/codec.o
                                                  build/obj/pal.o
_port_init                                        build/obj/chcore_v7m.o
                                                  build/obj/chsys.o
_port_irq_epilogue                                build/obj/chcore_v7m.o
                                                  build/obj/usbh_conf.o
                                                  build/obj/serial_lld.o
                                                  build/obj/pwm_lld.o
                                                  build/obj/usb_lld.o
                                                  build/obj/i2c_lld.o
                                                  build/obj/sdc_lld.o
                                                  build/obj/adc_lld.o
                                                  build/obj/stm32_dma.o
_port_switch                                      build/obj/chcore_v7m.o
                                                  build/obj/chschd.o
_port_switch_from_isr                             build/obj/chcore_v7m.o
_port_thread_start                                build/obj/chcore_v7m.o
                                                  build/obj/chthreads.o
_raise_r                                          /home/sbcm/Dropbox/pcb-layouts/axo-427-core/ksoloti/platform_linux/bin/../lib/gcc/arm-none-eabi/4.9.3/../../../../arm-none-eabi/lib/armv7e-m/fpu/libg.a(lib_a-signal.o)
_reclaim_reent                                    /home/sbcm/Dropbox/pcb-layouts/axo-427-core/ksoloti/platform_linux/bin/../lib/gcc/arm-none-eabi/4.9.3/../../../../arm-none-eabi/lib/armv7e-m/fpu/libg.a(lib_a-reent.o)
_sbrk                                             build/obj/main.o
                                                  /home/sbcm/Dropbox/pcb-layouts/axo-427-core/ksoloti/platform_linux/bin/../lib/gcc/arm-none-eabi/4.9.3/../../../../arm-none-eabi/lib/armv7e-m/fpu/libg.a(lib_a-sbrkr.o)
_sbrk_r                                           /home/sbcm/Dropbox/pcb-layouts/axo-427-core/ksoloti/platform_linux/bin/../lib/gcc/arm-none-eabi/4.9.3/../../../../arm-none-eabi/lib/armv7e-m/fpu/libg.a(lib_a-sbrkr.o)
                                                  /home/sbcm/Dropbox/pcb-layouts/axo-427-core/ksoloti/platform_linux/bin/../lib/gcc/arm-none-eabi/4.9.3/../../../../arm-none-eabi/lib/armv7e-m/fpu/libg.a(lib_a-freer.o)
                                                  /home/sbcm/Dropbox/pcb-layouts/axo-427-core/ksoloti/platform_linux/bin/../lib/gcc/arm-none-eabi/4.9.3/../../../../arm-none-eabi/lib/armv7e-m/fpu/libg.a(lib_a-mallocr.o)
_scheduler_init                                   build/obj/chschd.o
                                                  build/obj/chsys.o
_sdc_wait_for_transfer_state                      build/obj/sdc.o
                                                  build/obj/sdc_lld.o
_signal_r                                         /home/sbcm/Dropbox/pcb-layouts/axo-427-core/ksoloti/platform_linux/bin/../lib/gcc/arm-none-eabi/4.9.3/../../../../arm-none-eabi/lib/armv7e-m/fpu/libg.a(lib_a-signal.o)
_stm32_dma_streams                                build/obj/stm32_dma.o
                                                  build/obj/codec.o
                                                  build/obj/spi_lld.o
                                                  build/obj/i2c_lld.o
                                                  build/obj/sdc_lld.o
                                                  build/obj/adc_lld.o
_textdata                                         build/obj/crt0.o
_thread_init                                      build/obj/chthreads.o
                                                  build/obj/chsys.o
_thread_memfill                                   build/obj/chthreads.o
                                                  build/obj/usb_lld.o
_unhandled_exception                              build/obj/vectors.o
_usb_ep0in                                        build/obj/usb.o
                                                  build/obj/usb_lld.o
_usb_ep0out                                       build/obj/usb.o
                                                  build/obj/usb_lld.o
_usb_ep0setup                                     build/obj/usb.o
                                                  build/obj/usb_lld.o
_usb_reset                                        build/obj/usb.o
                                                  build/obj/usb_lld.o
_vectors                                          build/obj/vectors.o
_vt_init                                          build/obj/chvt.o
                                                  build/obj/chsys.o
_write                                            build/obj/board.o
abort                                             /home/sbcm/Dropbox/pcb-layouts/axo-427-core/ksoloti/platform_linux/bin/../lib/gcc/arm-none-eabi/4.9.3/../../../../arm-none-eabi/lib/armv7e-m/fpu/libg.a(lib_a-abort.o)
                                                  /home/sbcm/Dropbox/pcb-layouts/axo-427-core/ksoloti/platform_linux/bin/../lib/gcc/arm-none-eabi/4.9.3/armv7e-m/fpu/libgcc.a(pr-support.o)
                                                  /home/sbcm/Dropbox/pcb-layouts/axo-427-core/ksoloti/platform_linux/bin/../lib/gcc/arm-none-eabi/4.9.3/armv7e-m/fpu/libgcc.a(unwind-arm.o)
adc3_convert                                      build/obj/axoloti_board.o
adc3_init                                         build/obj/axoloti_board.o
adcAcquireBus                                     build/obj/adc.o
adcConvert                                        build/obj/adc.o
adcInit                                           build/obj/adc.o
                                                  build/obj/hal.o
adcObjectInit                                     build/obj/adc.o
                                                  build/obj/adc_lld.o
adcReleaseBus                                     build/obj/adc.o
adcSTM32DisableTSVREFE                            build/obj/adc_lld.o
adcSTM32DisableVBATE                              build/obj/adc_lld.o
adcSTM32EnableTSVREFE                             build/obj/adc_lld.o
                                                  build/obj/axoloti_board.o
adcSTM32EnableVBATE                               build/obj/adc_lld.o
adcStart                                          build/obj/adc.o
                                                  build/obj/axoloti_board.o
adcStartConversion                                build/obj/adc.o
                                                  build/obj/axoloti_board.o
adcStartConversionI                               build/obj/adc.o
adcStop                                           build/obj/adc.o
adcStopConversion                                 build/obj/adc.o
                                                  build/obj/axoloti_board.o
adcStopConversionI                                build/obj/adc.o
adc_ch                                            build/obj/axoloti_board.o
adc_configpads                                    build/obj/axoloti_board.o
                                                  build/obj/patch.o
adc_convert                                       build/obj/axoloti_board.o
                                                  build/obj/patch.o
                                                  build/obj/main.o
adc_init                                          build/obj/axoloti_board.o
                                                  build/obj/main.o
adc_lld_init                                      build/obj/adc_lld.o
                                                  build/obj/adc.o
adc_lld_start                                     build/obj/adc_lld.o
                                                  build/obj/adc.o
adc_lld_start_conversion                          build/obj/adc_lld.o
                                                  build/obj/adc.o
adc_lld_stop                                      build/obj/adc_lld.o
                                                  build/obj/adc.o
adc_lld_stop_conversion                           build/obj/adc_lld.o
                                                  build/obj/adc.o
adcvalues                                         build/obj/axoloti_board.o
                                                  build/obj/sysmon.o
                                                  build/obj/ui.o
armBitRevIndexTable1024                           build/obj/arm_common_tables.o
                                                  build/obj/arm_const_structs.o
                                                  build/obj/arm_rfft_fast_init_f32.o
armBitRevIndexTable128                            build/obj/arm_common_tables.o
                                                  build/obj/arm_const_structs.o
                                                  build/obj/arm_rfft_fast_init_f32.o
armBitRevIndexTable16                             build/obj/arm_common_tables.o
                                                  build/obj/arm_const_structs.o
                                                  build/obj/arm_rfft_fast_init_f32.o
armBitRevIndexTable2048                           build/obj/arm_common_tables.o
                                                  build/obj/arm_const_structs.o
                                                  build/obj/arm_rfft_fast_init_f32.o
armBitRevIndexTable256                            build/obj/arm_common_tables.o
                                                  build/obj/arm_const_structs.o
                                                  build/obj/arm_rfft_fast_init_f32.o
armBitRevIndexTable32                             build/obj/arm_common_tables.o
                                                  build/obj/arm_const_structs.o
                                                  build/obj/arm_rfft_fast_init_f32.o
armBitRevIndexTable4096                           build/obj/arm_common_tables.o
                                                  build/obj/arm_const_structs.o
armBitRevIndexTable512                            build/obj/arm_common_tables.o
                                                  build/obj/arm_const_structs.o
                                                  build/obj/arm_rfft_fast_init_f32.o
armBitRevIndexTable64                             build/obj/arm_common_tables.o
                                                  build/obj/arm_const_structs.o
                                                  build/obj/arm_rfft_fast_init_f32.o
armBitRevIndexTable_fixed_1024                    build/obj/arm_common_tables.o
                                                  build/obj/arm_const_structs.o
armBitRevIndexTable_fixed_128                     build/obj/arm_common_tables.o
                                                  build/obj/arm_const_structs.o
armBitRevIndexTable_fixed_16                      build/obj/arm_common_tables.o
                                                  build/obj/arm_const_structs.o
armBitRevIndexTable_fixed_2048                    build/obj/arm_common_tables.o
                                                  build/obj/arm_const_structs.o
armBitRevIndexTable_fixed_256                     build/obj/arm_common_tables.o
                                                  build/obj/arm_const_structs.o
armBitRevIndexTable_fixed_32                      build/obj/arm_common_tables.o
                                                  build/obj/arm_const_structs.o
armBitRevIndexTable_fixed_4096                    build/obj/arm_common_tables.o
                                                  build/obj/arm_const_structs.o
armBitRevIndexTable_fixed_512                     build/obj/arm_common_tables.o
                                                  build/obj/arm_const_structs.o
armBitRevIndexTable_fixed_64                      build/obj/arm_common_tables.o
                                                  build/obj/arm_const_structs.o
armBitRevTable                                    build/obj/arm_common_tables.o
                                                  build/obj/arm_cfft_radix4_init_q31.o
                                                  build/obj/arm_cfft_radix4_init_q15.o
                                                  build/obj/arm_cfft_radix4_init_f32.o
                                                  build/obj/arm_cfft_radix2_init_q31.o
                                                  build/obj/arm_cfft_radix2_init_q15.o
                                                  build/obj/arm_cfft_radix2_init_f32.o
armRecipTableQ15                                  build/obj/arm_common_tables.o
armRecipTableQ31                                  build/obj/arm_common_tables.o
arm_biquad_cas_df1_32x64_init_q31                 build/obj/arm_biquad_cascade_df1_32x64_init_q31.o
arm_biquad_cas_df1_32x64_q31                      build/obj/arm_biquad_cascade_df1_32x64_q31.o
arm_biquad_cascade_df1_fast_q31                   build/obj/arm_biquad_cascade_df1_fast_q31.o
arm_biquad_cascade_df1_init_q31                   build/obj/arm_biquad_cascade_df1_init_q31.o
arm_biquad_cascade_df1_q31                        build/obj/arm_biquad_cascade_df1_q31.o
arm_bitreversal_16                                build/obj/arm_bitreversal2.o
                                                  build/obj/arm_cfft_q15.o
arm_bitreversal_32                                build/obj/arm_bitreversal2.o
                                                  build/obj/arm_cfft_q31.o
                                                  build/obj/arm_cfft_f32.o
arm_bitreversal_f32                               build/obj/arm_bitreversal.o
                                                  build/obj/arm_rfft_f32.o
                                                  build/obj/arm_cfft_radix4_f32.o
                                                  build/obj/arm_cfft_radix2_f32.o
arm_bitreversal_q15                               build/obj/arm_bitreversal.o
                                                  build/obj/arm_cfft_radix4_q15.o
                                                  build/obj/arm_cfft_radix2_q15.o
arm_bitreversal_q31                               build/obj/arm_bitreversal.o
                                                  build/obj/arm_cfft_radix4_q31.o
                                                  build/obj/arm_cfft_radix2_q31.o
arm_cfft_f32                                      build/obj/arm_cfft_f32.o
                                                  build/obj/arm_rfft_fast_f32.o
arm_cfft_q15                                      build/obj/arm_cfft_q15.o
                                                  build/obj/arm_rfft_q15.o
arm_cfft_q31                                      build/obj/arm_cfft_q31.o
                                                  build/obj/arm_rfft_q31.o
arm_cfft_radix2_f32                               build/obj/arm_cfft_radix2_f32.o
arm_cfft_radix2_init_f32                          build/obj/arm_cfft_radix2_init_f32.o
arm_cfft_radix2_init_q15                          build/obj/arm_cfft_radix2_init_q15.o
arm_cfft_radix2_init_q31                          build/obj/arm_cfft_radix2_init_q31.o
arm_cfft_radix2_q15                               build/obj/arm_cfft_radix2_q15.o
arm_cfft_radix2_q31                               build/obj/arm_cfft_radix2_q31.o
arm_cfft_radix4_f32                               build/obj/arm_cfft_radix4_f32.o
arm_cfft_radix4_init_f32                          build/obj/arm_cfft_radix4_init_f32.o
                                                  build/obj/arm_rfft_init_f32.o
arm_cfft_radix4_init_q15                          build/obj/arm_cfft_radix4_init_q15.o
arm_cfft_radix4_init_q31                          build/obj/arm_cfft_radix4_init_q31.o
arm_cfft_radix4_q15                               build/obj/arm_cfft_radix4_q15.o
arm_cfft_radix4_q31                               build/obj/arm_cfft_radix4_q31.o
arm_cfft_radix4by2_inverse_q15                    build/obj/arm_cfft_q15.o
arm_cfft_radix4by2_inverse_q31                    build/obj/arm_cfft_q31.o
arm_cfft_radix4by2_q15                            build/obj/arm_cfft_q15.o
arm_cfft_radix4by2_q31                            build/obj/arm_cfft_q31.o
arm_cfft_radix8by2_f32                            build/obj/arm_cfft_f32.o
arm_cfft_radix8by4_f32                            build/obj/arm_cfft_f32.o
arm_cfft_sR_f32_len1024                           build/obj/arm_const_structs.o
arm_cfft_sR_f32_len128                            build/obj/arm_const_structs.o
arm_cfft_sR_f32_len16                             build/obj/arm_const_structs.o
arm_cfft_sR_f32_len2048                           build/obj/arm_const_structs.o
arm_cfft_sR_f32_len256                            build/obj/arm_const_structs.o
arm_cfft_sR_f32_len32                             build/obj/arm_const_structs.o
arm_cfft_sR_f32_len4096                           build/obj/arm_const_structs.o
arm_cfft_sR_f32_len512                            build/obj/arm_const_structs.o
arm_cfft_sR_f32_len64                             build/obj/arm_const_structs.o
arm_cfft_sR_q15_len1024                           build/obj/arm_const_structs.o
                                                  build/obj/arm_rfft_init_q15.o
arm_cfft_sR_q15_len128                            build/obj/arm_const_structs.o
                                                  build/obj/arm_rfft_init_q15.o
arm_cfft_sR_q15_len16                             build/obj/arm_const_structs.o
                                                  build/obj/arm_rfft_init_q15.o
arm_cfft_sR_q15_len2048                           build/obj/arm_const_structs.o
                                                  build/obj/arm_rfft_init_q15.o
arm_cfft_sR_q15_len256                            build/obj/arm_const_structs.o
                                                  build/obj/arm_rfft_init_q15.o
arm_cfft_sR_q15_len32                             build/obj/arm_const_structs.o
                                                  build/obj/arm_rfft_init_q15.o
arm_cfft_sR_q15_len4096                           build/obj/arm_const_structs.o
                                                  build/obj/arm_rfft_init_q15.o
arm_cfft_sR_q15_len512                            build/obj/arm_const_structs.o
                                                  build/obj/arm_rfft_init_q15.o
arm_cfft_sR_q15_len64                             build/obj/arm_const_structs.o
                                                  build/obj/arm_rfft_init_q15.o
arm_cfft_sR_q31_len1024                           build/obj/arm_const_structs.o
                                                  build/obj/arm_rfft_init_q31.o
arm_cfft_sR_q31_len128                            build/obj/arm_const_structs.o
                                                  build/obj/arm_rfft_init_q31.o
arm_cfft_sR_q31_len16                             build/obj/arm_const_structs.o
                                                  build/obj/arm_rfft_init_q31.o
arm_cfft_sR_q31_len2048                           build/obj/arm_const_structs.o
                                                  build/obj/arm_rfft_init_q31.o
arm_cfft_sR_q31_len256                            build/obj/arm_const_structs.o
                                                  build/obj/arm_rfft_init_q31.o
arm_cfft_sR_q31_len32                             build/obj/arm_const_structs.o
                                                  build/obj/arm_rfft_init_q31.o
arm_cfft_sR_q31_len4096                           build/obj/arm_const_structs.o
                                                  build/obj/arm_rfft_init_q31.o
arm_cfft_sR_q31_len512                            build/obj/arm_const_structs.o
                                                  build/obj/arm_rfft_init_q31.o
arm_cfft_sR_q31_len64                             build/obj/arm_const_structs.o
                                                  build/obj/arm_rfft_init_q31.o
arm_cmplx_mag_q15                                 build/obj/arm_cmplx_mag_q15.o
arm_cmplx_mag_q31                                 build/obj/arm_cmplx_mag_q31.o
arm_cmplx_mult_cmplx_f32                          build/obj/arm_cmplx_mult_cmplx_f32.o
arm_cmplx_mult_cmplx_q15                          build/obj/arm_cmplx_mult_cmplx_q15.o
arm_cmplx_mult_cmplx_q31                          build/obj/arm_cmplx_mult_cmplx_q31.o
arm_cos_q31                                       build/obj/arm_cos_q31.o
arm_fir_decimate_fast_q31                         build/obj/arm_fir_decimate_fast_q31.o
arm_fir_decimate_init_q31                         build/obj/arm_fir_decimate_init_q31.o
arm_fir_decimate_q31                              build/obj/arm_fir_decimate_q31.o
arm_fir_fast_q31                                  build/obj/arm_fir_fast_q31.o
arm_fir_init_q31                                  build/obj/arm_fir_init_q31.o
arm_fir_interpolate_init_q31                      build/obj/arm_fir_interpolate_init_q31.o
arm_fir_interpolate_q31                           build/obj/arm_fir_interpolate_q31.o
arm_fir_lattice_init_q31                          build/obj/arm_fir_lattice_init_q31.o
arm_fir_lattice_q31                               build/obj/arm_fir_lattice_q31.o
arm_iir_lattice_init_q31                          build/obj/arm_iir_lattice_init_q31.o
arm_iir_lattice_q31                               build/obj/arm_iir_lattice_q31.o
arm_mult_f32                                      build/obj/arm_mult_f32.o
arm_mult_q15                                      build/obj/arm_mult_q15.o
arm_mult_q31                                      build/obj/arm_mult_q31.o
arm_radix2_butterfly_f32                          build/obj/arm_cfft_radix2_f32.o
arm_radix2_butterfly_inverse_f32                  build/obj/arm_cfft_radix2_f32.o
arm_radix2_butterfly_inverse_q15                  build/obj/arm_cfft_radix2_q15.o
arm_radix2_butterfly_inverse_q31                  build/obj/arm_cfft_radix2_q31.o
arm_radix2_butterfly_q15                          build/obj/arm_cfft_radix2_q15.o
arm_radix2_butterfly_q31                          build/obj/arm_cfft_radix2_q31.o
arm_radix4_butterfly_f32                          build/obj/arm_cfft_radix4_f32.o
                                                  build/obj/arm_rfft_f32.o
arm_radix4_butterfly_inverse_f32                  build/obj/arm_cfft_radix4_f32.o
                                                  build/obj/arm_rfft_f32.o
arm_radix4_butterfly_inverse_q15                  build/obj/arm_cfft_radix4_q15.o
                                                  build/obj/arm_cfft_q15.o
arm_radix4_butterfly_inverse_q31                  build/obj/arm_cfft_radix4_q31.o
                                                  build/obj/arm_cfft_q31.o
arm_radix4_butterfly_q15                          build/obj/arm_cfft_radix4_q15.o
                                                  build/obj/arm_cfft_q15.o
arm_radix4_butterfly_q31                          build/obj/arm_cfft_radix4_q31.o
                                                  build/obj/arm_cfft_q31.o
arm_radix8_butterfly_f32                          build/obj/arm_cfft_radix8_f32.o
                                                  build/obj/arm_cfft_f32.o
arm_rfft_f32                                      build/obj/arm_rfft_f32.o
arm_rfft_fast_f32                                 build/obj/arm_rfft_fast_f32.o
arm_rfft_fast_init_f32                            build/obj/arm_rfft_fast_init_f32.o
arm_rfft_fast_sR_f32_len1024                      build/obj/arm_const_structs.o
arm_rfft_fast_sR_f32_len128                       build/obj/arm_const_structs.o
arm_rfft_fast_sR_f32_len2048                      build/obj/arm_const_structs.o
arm_rfft_fast_sR_f32_len256                       build/obj/arm_const_structs.o
arm_rfft_fast_sR_f32_len32                        build/obj/arm_const_structs.o
arm_rfft_fast_sR_f32_len4096                      build/obj/arm_const_structs.o
arm_rfft_fast_sR_f32_len512                       build/obj/arm_const_structs.o
arm_rfft_fast_sR_f32_len64                        build/obj/arm_const_structs.o
arm_rfft_init_f32                                 build/obj/arm_rfft_init_f32.o
arm_rfft_init_q15                                 build/obj/arm_rfft_init_q15.o
arm_rfft_init_q31                                 build/obj/arm_rfft_init_q31.o
arm_rfft_q15                                      build/obj/arm_rfft_q15.o
arm_rfft_q31                                      build/obj/arm_rfft_q31.o
arm_rfft_sR_q15_len1024                           build/obj/arm_const_structs.o
arm_rfft_sR_q15_len128                            build/obj/arm_const_structs.o
arm_rfft_sR_q15_len2048                           build/obj/arm_const_structs.o
arm_rfft_sR_q15_len256                            build/obj/arm_const_structs.o
arm_rfft_sR_q15_len32                             build/obj/arm_const_structs.o
arm_rfft_sR_q15_len4096                           build/obj/arm_const_structs.o
arm_rfft_sR_q15_len512                            build/obj/arm_const_structs.o
arm_rfft_sR_q15_len64                             build/obj/arm_const_structs.o
arm_rfft_sR_q15_len8192                           build/obj/arm_const_structs.o
arm_rfft_sR_q31_len1024                           build/obj/arm_const_structs.o
arm_rfft_sR_q31_len128                            build/obj/arm_const_structs.o
arm_rfft_sR_q31_len2048                           build/obj/arm_const_structs.o
arm_rfft_sR_q31_len256                            build/obj/arm_const_structs.o
arm_rfft_sR_q31_len32                             build/obj/arm_const_structs.o
arm_rfft_sR_q31_len4096                           build/obj/arm_const_structs.o
arm_rfft_sR_q31_len512                            build/obj/arm_const_structs.o
arm_rfft_sR_q31_len64                             build/obj/arm_const_structs.o
arm_rfft_sR_q31_len8192                           build/obj/arm_const_structs.o
arm_scale_f32                                     build/obj/arm_scale_f32.o
arm_shift_q15                                     build/obj/arm_shift_q15.o
arm_shift_q31                                     build/obj/arm_shift_q31.o
arm_sin_q31                                       build/obj/arm_sin_q31.o
                                                  build/obj/axoloti_math.o
arm_split_rfft_f32                                build/obj/arm_rfft_f32.o
arm_split_rfft_q15                                build/obj/arm_rfft_q15.o
arm_split_rfft_q31                                build/obj/arm_rfft_q31.o
arm_split_rifft_f32                               build/obj/arm_rfft_f32.o
arm_split_rifft_q15                               build/obj/arm_rfft_q15.o
arm_split_rifft_q31                               build/obj/arm_rfft_q31.o
arm_sqrt_q15                                      build/obj/arm_sqrt_q15.o
                                                  build/obj/arm_cmplx_mag_q15.o
arm_sqrt_q31                                      build/obj/arm_sqrt_q31.o
                                                  build/obj/arm_cmplx_mag_q31.o
axoloti_board_init                                build/obj/axoloti_board.o
                                                  build/obj/main.o
axoloti_init                                      build/obj/axoloti.o
axoloti_math_init                                 build/obj/axoloti_math.o
                                                  build/obj/main.o
bduConfigureHookI                                 build/obj/bulk_usb.o
                                                  build/obj/usbcfg.o
bduDataReceived                                   build/obj/bulk_usb.o
                                                  build/obj/usbcfg.o
bduDataTransmitted                                build/obj/bulk_usb.o
                                                  build/obj/usbcfg.o
bduInit                                           build/obj/bulk_usb.o
bduObjectInit                                     build/obj/bulk_usb.o
                                                  build/obj/pconnection.o
bduRequestsHook                                   build/obj/bulk_usb.o
bduStart                                          build/obj/bulk_usb.o
                                                  build/obj/pconnection.o
bduStop                                           build/obj/bulk_usb.o
blept                                             build/obj/axoloti_oscs.o
blink_and_retry                                   build/obj/codec.o
boardInit                                         build/obj/board.o
                                                  build/obj/hal.o
braids::char_table                                build/obj/braids_resources.o
braids::chr_characters                            build/obj/braids_resources.o
braids::lookup_table_hr_table                     build/obj/braids_resources.o
braids::lookup_table_signed_table                 build/obj/braids_resources.o
braids::lookup_table_table                        build/obj/braids_resources.o
braids::lut_bell                                  build/obj/braids_resources.o
braids::lut_blowing_envelope                      build/obj/braids_resources.o
braids::lut_blowing_jet                           build/obj/braids_resources.o
braids::lut_bowing_envelope                       build/obj/braids_resources.o
braids::lut_bowing_friction                       build/obj/braids_resources.o
braids::lut_env_expo                              build/obj/braids_resources.o
braids::lut_env_portamento_increments             build/obj/braids_resources.o
braids::lut_flute_body_filter                     build/obj/braids_resources.o
braids::lut_fm_frequency_quantizer                build/obj/braids_resources.o
braids::lut_granular_envelope                     build/obj/braids_resources.o
braids::lut_granular_envelope_rate                build/obj/braids_resources.o
braids::lut_oscillator_delays                     build/obj/braids_resources.o
braids::lut_oscillator_increments                 build/obj/braids_resources.o
braids::lut_resonator_coefficient                 build/obj/braids_resources.o
braids::lut_resonator_scale                       build/obj/braids_resources.o
braids::lut_svf_cutoff                            build/obj/braids_resources.o
braids::lut_svf_damp                              build/obj/braids_resources.o
braids::lut_svf_scale                             build/obj/braids_resources.o
braids::lut_vco_detune                            build/obj/braids_resources.o
braids::string_table                              build/obj/braids_resources.o
braids::wav_bandlimited_comb_0                    build/obj/braids_resources.o
braids::wav_bandlimited_comb_1                    build/obj/braids_resources.o
braids::wav_bandlimited_comb_10                   build/obj/braids_resources.o
braids::wav_bandlimited_comb_11                   build/obj/braids_resources.o
braids::wav_bandlimited_comb_12                   build/obj/braids_resources.o
braids::wav_bandlimited_comb_13                   build/obj/braids_resources.o
braids::wav_bandlimited_comb_14                   build/obj/braids_resources.o
braids::wav_bandlimited_comb_2                    build/obj/braids_resources.o
braids::wav_bandlimited_comb_3                    build/obj/braids_resources.o
braids::wav_bandlimited_comb_4                    build/obj/braids_resources.o
braids::wav_bandlimited_comb_5                    build/obj/braids_resources.o
braids::wav_bandlimited_comb_6                    build/obj/braids_resources.o
braids::wav_bandlimited_comb_7                    build/obj/braids_resources.o
braids::wav_bandlimited_comb_8                    build/obj/braids_resources.o
braids::wav_bandlimited_comb_9                    build/obj/braids_resources.o
braids::wav_formant_sine                          build/obj/braids_resources.o
braids::wav_formant_square                        build/obj/braids_resources.o
braids::wav_sine                                  build/obj/braids_resources.o
braids::waveform_table                            build/obj/braids_resources.o
braids::waveshaper_table                          build/obj/braids_resources.o
braids::ws_moderate_overdrive                     build/obj/braids_resources.o
braids::ws_sine_fold                              build/obj/braids_resources.o
braids::ws_tri_fold                               build/obj/braids_resources.o
braids::ws_violent_overdrive                      build/obj/braids_resources.o
braids::wt_code                                   build/obj/braids_resources.o
braids::wt_map                                    build/obj/braids_resources.o
braids::wt_table                                  build/obj/braids_resources.o
braids::wt_waves                                  build/obj/braids_resources.o
buf                                               build/obj/codec.o
buf2                                              build/obj/codec.o
bulkusbcfg                                        build/obj/usbcfg.o
                                                  build/obj/pconnection.o
calcCIN                                           build/obj/usbh_midi_core.o
calcCIN1                                          build/obj/midi_usb.o
calcDS1                                           build/obj/midi_usb.o
calcPH                                            build/obj/usbh_midi_core.o
chCoreAlloc                                       build/obj/chmemcore.o
                                                  build/obj/ui.o
                                                  build/obj/chheap.o
chCoreAllocI                                      build/obj/chmemcore.o
chCoreStatus                                      build/obj/chmemcore.o
chEvtAddEvents                                    build/obj/chevents.o
chEvtBroadcastFlags                               build/obj/chevents.o
chEvtBroadcastFlagsI                              build/obj/chevents.o
                                                  build/obj/midi_usb.o
                                                  build/obj/bulk_usb.o
                                                  build/obj/serial_lld.o
                                                  build/obj/serial.o
chEvtDispatch                                     build/obj/chevents.o
chEvtGetAndClearEvents                            build/obj/chevents.o
chEvtGetAndClearFlags                             build/obj/chevents.o
chEvtGetAndClearFlagsI                            build/obj/chevents.o
chEvtRegisterMask                                 build/obj/chevents.o
chEvtSignal                                       build/obj/chevents.o
                                                  build/obj/usbh_hid.o
                                                  build/obj/usbh_ctlreq.o
                                                  build/obj/usbh_core.o
                                                  build/obj/patch.o
chEvtSignalI                                      build/obj/chevents.o
                                                  build/obj/spidb.o
                                                  build/obj/usbh_midi_core.o
                                                  build/obj/usbh_hid.o
                                                  build/obj/usbh_core.o
                                                  build/obj/patch.o
chEvtUnregister                                   build/obj/chevents.o
chEvtWaitAll                                      build/obj/chevents.o
chEvtWaitAllTimeout                               build/obj/chevents.o
chEvtWaitAny                                      build/obj/chevents.o
chEvtWaitAnyTimeout                               build/obj/chevents.o
                                                  build/obj/spilink.o
chEvtWaitOne                                      build/obj/chevents.o
                                                  build/obj/patch.o
chEvtWaitOneTimeout                               build/obj/chevents.o
                                                  build/obj/usbh_core.o
chHeapAlloc                                       build/obj/chheap.o
chHeapFree                                        build/obj/chheap.o
chHeapInit                                        build/obj/chheap.o
chHeapStatus                                      build/obj/chheap.o
chIQGetTimeout                                    build/obj/chqueues.o
                                                  build/obj/midi_usb.o
                                                  build/obj/bulk_usb.o
                                                  build/obj/serial_midi.o
                                                  build/obj/serial.o
chIQInit                                          build/obj/chqueues.o
                                                  build/obj/midi_usb.o
                                                  build/obj/bulk_usb.o
                                                  build/obj/serial.o
chIQPutI                                          build/obj/chqueues.o
                                                  build/obj/serial.o
chIQReadTimeout                                   build/obj/chqueues.o
                                                  build/obj/midi_usb.o
                                                  build/obj/bulk_usb.o
                                                  build/obj/serial.o
chIQResetI                                        build/obj/chqueues.o
                                                  build/obj/midi_usb.o
                                                  build/obj/bulk_usb.o
                                                  build/obj/serial.o
chMsgRelease                                      build/obj/chmsg.o
chMsgSend                                         build/obj/chmsg.o
chMsgWait                                         build/obj/chmsg.o
chMtxInit                                         build/obj/chmtx.o
                                                  build/obj/spi.o
                                                  build/obj/i2c.o
                                                  build/obj/adc.o
                                                  build/obj/chheap.o
chMtxLock                                         build/obj/chmtx.o
                                                  build/obj/spi.o
                                                  build/obj/i2c.o
                                                  build/obj/adc.o
                                                  build/obj/chheap.o
chMtxLockS                                        build/obj/chmtx.o
chMtxTryLock                                      build/obj/chmtx.o
chMtxTryLockS                                     build/obj/chmtx.o
chMtxUnlock                                       build/obj/chmtx.o
                                                  build/obj/spi.o
                                                  build/obj/i2c.o
                                                  build/obj/adc.o
                                                  build/obj/chheap.o
chMtxUnlockAll                                    build/obj/chmtx.o
chMtxUnlockS                                      build/obj/chmtx.o
chOQGetI                                          build/obj/chqueues.o
                                                  build/obj/serial_lld.o
                                                  build/obj/serial.o
chOQInit                                          build/obj/chqueues.o
                                                  build/obj/midi_usb.o
                                                  build/obj/bulk_usb.o
                                                  build/obj/serial.o
chOQPutTimeout                                    build/obj/chqueues.o
                                                  build/obj/midi_usb.o
                                                  build/obj/bulk_usb.o
                                                  build/obj/serial_midi.o
                                                  build/obj/serial.o
chOQResetI                                        build/obj/chqueues.o
                                                  build/obj/midi_usb.o
                                                  build/obj/bulk_usb.o
                                                  build/obj/serial.o
chOQWriteTimeout                                  build/obj/chqueues.o
                                                  build/obj/midi_usb.o
                                                  build/obj/bulk_usb.o
                                                  build/obj/serial_midi.o
                                                  build/obj/serial.o
chRegFirstThread                                  build/obj/chregistry.o
                                                  build/obj/patch.o
chRegNextThread                                   build/obj/chregistry.o
                                                  build/obj/patch.o
chSchDoReschedule                                 build/obj/chschd.o
                                                  build/obj/chcore_v7m.o
chSchDoRescheduleAhead                            build/obj/chschd.o
chSchDoRescheduleBehind                           build/obj/chschd.o
                                                  build/obj/chthreads.o
chSchGoSleepS                                     build/obj/chschd.o
                                                  build/obj/usb_lld.o
                                                  build/obj/i2c_lld.o
                                                  build/obj/sdc_lld.o
                                                  build/obj/spi.o
                                                  build/obj/adc.o
                                                  build/obj/chmsg.o
                                                  build/obj/chevents.o
                                                  build/obj/chmtx.o
                                                  build/obj/chsem.o
                                                  build/obj/chthreads.o
chSchGoSleepTimeoutS                              build/obj/chschd.o
                                                  build/obj/chqueues.o
                                                  build/obj/chevents.o
                                                  build/obj/chsem.o
                                                  build/obj/chthreads.o
chSchReadyI                                       build/obj/chschd.o
                                                  build/obj/spi_lld.o
                                                  build/obj/usb_lld.o
                                                  build/obj/i2c_lld.o
                                                  build/obj/sdc_lld.o
                                                  build/obj/adc_lld.o
                                                  build/obj/adc.o
                                                  build/obj/chqueues.o
                                                  build/obj/chmsg.o
                                                  build/obj/chevents.o
                                                  build/obj/chmtx.o
                                                  build/obj/chsem.o
                                                  build/obj/chthreads.o
chSchRescheduleS                                  build/obj/chschd.o
                                                  build/obj/midi_usb.o
                                                  build/obj/bulk_usb.o
                                                  build/obj/usb_lld.o
                                                  build/obj/serial.o
                                                  build/obj/chevents.o
                                                  build/obj/chmtx.o
                                                  build/obj/chsem.o
                                                  build/obj/chthreads.o
chSchWakeupS                                      build/obj/chschd.o
                                                  build/obj/adc.o
                                                  build/obj/chmsg.o
                                                  build/obj/chmtx.o
                                                  build/obj/chsem.o
                                                  build/obj/chthreads.o
chSemAddCounterI                                  build/obj/chsem.o
chSemInit                                         build/obj/chsem.o
                                                  build/obj/fatfs_syscall.o
chSemReset                                        build/obj/chsem.o
                                                  build/obj/fatfs_syscall.o
chSemResetI                                       build/obj/chsem.o
chSemSignal                                       build/obj/chsem.o
                                                  build/obj/fatfs_syscall.o
chSemSignalI                                      build/obj/chsem.o
chSemSignalWait                                   build/obj/chsem.o
chSemWait                                         build/obj/chsem.o
chSemWaitS                                        build/obj/chsem.o
chSemWaitTimeout                                  build/obj/chsem.o
                                                  build/obj/fatfs_syscall.o
chSemWaitTimeoutS                                 build/obj/chsem.o
chSysInit                                         build/obj/chsys.o
                                                  build/obj/main.o
chSysTimerHandlerI                                build/obj/chsys.o
                                                  build/obj/chcore_v7m.o
chThdCreateI                                      build/obj/chthreads.o
                                                  build/obj/usb_lld.o
chThdCreateStatic                                 build/obj/chthreads.o
                                                  build/obj/sysmon.o
                                                  build/obj/spilink.o
                                                  build/obj/serial_midi.o
                                                  build/obj/usbh_core.o
                                                  build/obj/patch.o
                                                  build/obj/pconnection.o
                                                  build/obj/ui.o
                                                  build/obj/chsys.o
chThdExit                                         build/obj/chthreads.o
                                                  build/obj/chcore_v7m.o
chThdExitS                                        build/obj/chthreads.o
chThdResume                                       build/obj/chthreads.o
chThdSetPriority                                  build/obj/chthreads.o
chThdSleep                                        build/obj/chthreads.o
                                                  build/obj/axoloti_memory.o
                                                  build/obj/sysmon.o
                                                  build/obj/exceptions.o
                                                  build/obj/usbh_conf.o
                                                  build/obj/usbh_core.o
                                                  build/obj/patch.o
                                                  build/obj/main.o
                                                  build/obj/pconnection.o
                                                  build/obj/sdcard.o
                                                  build/obj/ui.o
                                                  build/obj/axoloti_math.o
                                                  build/obj/codec.o
                                                  build/obj/sdc_lld.o
                                                  build/obj/sdc.o
chThdSleepUntil                                   build/obj/chthreads.o
chThdTerminate                                    build/obj/chthreads.o
chThdWait                                         build/obj/chthreads.o
chThdYield                                        build/obj/chthreads.o
chVTResetI                                        build/obj/chvt.o
                                                  build/obj/i2c_lld.o
                                                  build/obj/chschd.o
chVTSetI                                          build/obj/chvt.o
                                                  build/obj/i2c_lld.o
                                                  build/obj/chschd.o
ch_debug                                          build/obj/chregistry.o
                                                  build/obj/chsys.o
chsnprintf                                        build/obj/chprintf.o
chvprintf                                         build/obj/chprintf.o
                                                  build/obj/pconnection.o
cleanup_glue                                      /home/sbcm/Dropbox/pcb-layouts/axo-427-core/ksoloti/platform_linux/bin/../lib/gcc/arm-none-eabi/4.9.3/../../../../arm-none-eabi/lib/armv7e-m/fpu/libg.a(lib_a-reent.o)
clouds::Correlator::EvaluateNextCandidate()       build/obj/correlator.o
                                                  build/obj/granular_processor.o
clouds::Correlator::Init(unsigned long*, unsigned long*) build/obj/correlator.o
                                                  build/obj/granular_processor.o
clouds::Correlator::StartSearch(long, long, long) build/obj/correlator.o
                                                  build/obj/granular_processor.o
clouds::FrameTransformation::AddGlitch(float*)    build/obj/frame_transformation.o
clouds::FrameTransformation::Init(float*, long, long) build/obj/frame_transformation.o
                                                  build/obj/phase_vocoder.o
clouds::FrameTransformation::PolarToRectangular(float*) build/obj/frame_transformation.o
clouds::FrameTransformation::Process(clouds::Parameters const&, float*, float*) build/obj/frame_transformation.o
                                                  build/obj/stft.o
clouds::FrameTransformation::QuantizeMagnitudes(float*, float) build/obj/frame_transformation.o
clouds::FrameTransformation::RectangularToPolar(float*) build/obj/frame_transformation.o
clouds::FrameTransformation::ReplayMagnitudes(float*, float) build/obj/frame_transformation.o
clouds::FrameTransformation::Reset()              build/obj/frame_transformation.o
clouds::FrameTransformation::SetPhases(float*, float, float) build/obj/frame_transformation.o
clouds::FrameTransformation::ShiftMagnitudes(float*, float*, float) build/obj/frame_transformation.o
clouds::FrameTransformation::StoreMagnitudes(float*, float, float) build/obj/frame_transformation.o
clouds::FrameTransformation::WarpMagnitudes(float*, float*, float) build/obj/frame_transformation.o
clouds::GranularProcessor::GetPersistentData(clouds::PersistentBlock*, unsigned int*) build/obj/granular_processor.o
clouds::GranularProcessor::Init(void*, unsigned int, void*, unsigned int) build/obj/granular_processor.o
clouds::GranularProcessor::LoadPersistentData(unsigned long const*) build/obj/granular_processor.o
clouds::GranularProcessor::Prepare()              build/obj/granular_processor.o
clouds::GranularProcessor::PreparePersistentData() build/obj/granular_processor.o
clouds::GranularProcessor::Process(clouds::ShortFrame*, clouds::ShortFrame*, unsigned int) build/obj/granular_processor.o
clouds::GranularProcessor::ProcessGranular(clouds::FloatFrame*, clouds::FloatFrame*, unsigned int) build/obj/granular_processor.o
clouds::GranularProcessor::ResetFilters()         build/obj/granular_processor.o
clouds::PhaseVocoder::Buffer()                    build/obj/phase_vocoder.o
                                                  build/obj/granular_processor.o
clouds::PhaseVocoder::Init(void**, unsigned int*, float const*, unsigned int, long, long, float) build/obj/phase_vocoder.o
                                                  build/obj/granular_processor.o
clouds::PhaseVocoder::Process(clouds::Parameters const&, clouds::FloatFrame const*, clouds::FloatFrame*, unsigned int) build/obj/phase_vocoder.o
                                                  build/obj/granular_processor.o
clouds::STFT::Buffer()                            build/obj/stft.o
                                                  build/obj/phase_vocoder.o
clouds::STFT::Init(stmlib::ShyFFT<float, 4096u, stmlib::RotationPhasor>*, unsigned int, unsigned int, float*, float*, float const*, short*, clouds::FrameTransformation*) build/obj/stft.o
                                                  build/obj/phase_vocoder.o
clouds::STFT::Process(clouds::Parameters const&, float const*, float*, unsigned int, unsigned int) build/obj/stft.o
                                                  build/obj/phase_vocoder.o
clouds::STFT::Reset()                             build/obj/stft.o
clouds::lookup_table_int16_table                  build/obj/clouds_resources.o
clouds::lookup_table_table                        build/obj/clouds_resources.o
clouds::lut_cutoff                                build/obj/clouds_resources.o
clouds::lut_db                                    build/obj/clouds_resources.o
clouds::lut_grain_size                            build/obj/clouds_resources.o
                                                  build/obj/granular_processor.o
clouds::lut_quantized_pitch                       build/obj/clouds_resources.o
clouds::lut_sin                                   build/obj/clouds_resources.o
                                                  build/obj/frame_transformation.o
                                                  build/obj/granular_processor.o
clouds::lut_sine_window_4096                      build/obj/clouds_resources.o
                                                  build/obj/granular_processor.o
clouds::lut_ulaw                                  build/obj/mu_law.o
                                                  build/obj/granular_processor.o
clouds::lut_window                                build/obj/clouds_resources.o
                                                  build/obj/granular_processor.o
clouds::lut_xfade_in                              build/obj/clouds_resources.o
                                                  build/obj/granular_processor.o
clouds::lut_xfade_out                             build/obj/clouds_resources.o
                                                  build/obj/granular_processor.o
clouds::src_filter_1x_2_31                        build/obj/clouds_resources.o
clouds::src_filter_1x_2_45                        build/obj/clouds_resources.o
                                                  build/obj/granular_processor.o
clouds::src_filter_1x_2_63                        build/obj/clouds_resources.o
clouds::src_filter_1x_2_91                        build/obj/clouds_resources.o
clouds::src_filter_table                          build/obj/clouds_resources.o
clust2sect                                        build/obj/ff.o
codec_ADAU1961_SAI_init                           build/obj/codec.o
codec_ADAU1961_hw_init                            build/obj/codec.o
codec_clearbuffer                                 build/obj/codec.o
                                                  build/obj/exceptions.o
                                                  build/obj/patch.o
codec_init                                        build/obj/codec.o
codec_interrupt_timestamp                         build/obj/codec.o
computebufI                                       build/obj/patch.o
                                                  build/obj/codec.o
configSDRAM                                       build/obj/main.o
connected                                         build/obj/pconnection.o
copysign                                          /home/sbcm/Dropbox/pcb-layouts/axo-427-core/ksoloti/platform_linux/bin/../lib/gcc/arm-none-eabi/4.9.3/../../../../arm-none-eabi/lib/armv7e-m/fpu/libm.a(lib_a-s_copysign.o)
                                                  /home/sbcm/Dropbox/pcb-layouts/axo-427-core/ksoloti/platform_linux/bin/../lib/gcc/arm-none-eabi/4.9.3/../../../../arm-none-eabi/lib/armv7e-m/fpu/libm.a(lib_a-s_scalbn.o)
copysignf                                         /home/sbcm/Dropbox/pcb-layouts/axo-427-core/ksoloti/platform_linux/bin/../lib/gcc/arm-none-eabi/4.9.3/../../../../arm-none-eabi/lib/armv7e-m/fpu/libm.a(lib_a-sf_copysign.o)
                                                  /home/sbcm/Dropbox/pcb-layouts/axo-427-core/ksoloti/platform_linux/bin/../lib/gcc/arm-none-eabi/4.9.3/../../../../arm-none-eabi/lib/armv7e-m/fpu/libm.a(lib_a-sf_scalbn.o)
cosf                                              /home/sbcm/Dropbox/pcb-layouts/axo-427-core/ksoloti/platform_linux/bin/../lib/gcc/arm-none-eabi/4.9.3/../../../../arm-none-eabi/lib/armv7e-m/fpu/libm.a(lib_a-sf_cos.o)
                                                  build/obj/stft.o
                                                  build/obj/axoloti_math.o
dbg_set_i                                         build/obj/exceptions.o
detect_MCO                                        build/obj/codec.o
disk_initialize                                   build/obj/fatfs_diskio.o
                                                  build/obj/ff.o
disk_ioctl                                        build/obj/fatfs_diskio.o
                                                  build/obj/ff.o
disk_read                                         build/obj/fatfs_diskio.o
                                                  build/obj/ff.o
disk_status                                       build/obj/fatfs_diskio.o
                                                  build/obj/ff.o
disk_write                                        build/obj/fatfs_diskio.o
                                                  build/obj/ff.o
dmaInit                                           build/obj/stm32_dma.o
                                                  build/obj/hal_lld.o
dmaStreamAllocate                                 build/obj/stm32_dma.o
                                                  build/obj/spidb.o
                                                  build/obj/codec.o
                                                  build/obj/spi_lld.o
                                                  build/obj/i2c_lld.o
                                                  build/obj/sdc_lld.o
                                                  build/obj/adc_lld.o
dmaStreamRelease                                  build/obj/stm32_dma.o
                                                  build/obj/spidb.o
                                                  build/obj/spi_lld.o
                                                  build/obj/i2c_lld.o
                                                  build/obj/sdc_lld.o
                                                  build/obj/adc_lld.o
dmastream_slave_start                             build/obj/spidb.o
dspLoadPct                                        build/obj/patch.o
                                                  build/obj/pconnection.o
                                                  build/obj/ui.o
elements::Exciter::GetPulseAmplitude(float)       build/obj/exciter.o
elements::Exciter::Init()                         build/obj/exciter.o
                                                  build/obj/voice.o
elements::Exciter::Process(unsigned char, float*, unsigned int) build/obj/exciter.o
                                                  build/obj/voice.o
elements::Exciter::ProcessFlow(unsigned char, float*, unsigned int) build/obj/exciter.o
elements::Exciter::ProcessGranularSamplePlayer(unsigned char, float*, unsigned int) build/obj/exciter.o
elements::Exciter::ProcessMallet(unsigned char, float*, unsigned int) build/obj/exciter.o
elements::Exciter::ProcessNoise(unsigned char, float*, unsigned int) build/obj/exciter.o
elements::Exciter::ProcessParticles(unsigned char, float*, unsigned int) build/obj/exciter.o
elements::Exciter::ProcessPlectrum(unsigned char, float*, unsigned int) build/obj/exciter.o
elements::Exciter::ProcessSamplePlayer(unsigned char, float*, unsigned int) build/obj/exciter.o
elements::Exciter::fn_table_                      build/obj/exciter.o
elements::FmOscillator::Process(float, float, float, float, float const*, float*, unsigned int) build/obj/ominous_voice.o
elements::MultistageEnvelope::Init()              build/obj/multistage_envelope.o
                                                  build/obj/voice.o
                                                  build/obj/ominous_voice.o
elements::OminousVoice::ConfigureEnvelope(elements::Patch const&) build/obj/ominous_voice.o
elements::OminousVoice::Init()                    build/obj/ominous_voice.o
                                                  build/obj/part.o
elements::OminousVoice::Process(elements::Patch const&, float, float, bool, float const*, float const*, float*, float*, float*, unsigned int) build/obj/ominous_voice.o
                                                  build/obj/part.o
elements::Part::Init(unsigned short*)             build/obj/part.o
elements::Part::Process(elements::PerformanceState const&, float const*, float const*, float*, float*, unsigned int) build/obj/part.o
elements::Part::Seed(unsigned long*, unsigned int) build/obj/part.o
elements::Resonator::ComputeFilters()             build/obj/resonator.o
elements::Resonator::Init()                       build/obj/resonator.o
                                                  build/obj/voice.o
elements::Resonator::Process(float const*, float const*, float*, float*, unsigned int) build/obj/resonator.o
                                                  build/obj/voice.o
elements::Spatializer::Init(float)                build/obj/ominous_voice.o
elements::Spatializer::Process(float*, float*, float*, unsigned int) build/obj/ominous_voice.o
elements::String::Init(bool)                      build/obj/string.o
                                                  build/obj/voice.o
elements::String::Process(float const*, float*, float*, unsigned int) build/obj/string.o
                                                  build/obj/voice.o
elements::Tube::Init()                            build/obj/tube.o
elements::Tube::Process(float, float, float, float, float*, float, unsigned int) build/obj/tube.o
                                                  build/obj/voice.o
elements::Voice::Init()                           build/obj/voice.o
                                                  build/obj/part.o
elements::Voice::Process(elements::Patch const&, float, float, bool, float const*, float const*, float*, float*, float*, unsigned int) build/obj/voice.o
                                                  build/obj/part.o
elements::Voice::ResetResonator()                 build/obj/voice.o
                                                  build/obj/part.o
elements::chords                                  build/obj/voice.o
elements::lookup_table_int16_table                build/obj/elements_resources.o
elements::lookup_table_table                      build/obj/elements_resources.o
                                                  build/obj/voice.o
                                                  build/obj/ominous_voice.o
elements::lookup_table_uint32_table               build/obj/elements_resources.o
elements::lut_accent_gain_coarse                  build/obj/elements_resources.o
                                                  build/obj/voice.o
elements::lut_accent_gain_fine                    build/obj/elements_resources.o
                                                  build/obj/voice.o
elements::lut_approx_svf_g                        build/obj/elements_resources.o
                                                  build/obj/exciter.o
elements::lut_approx_svf_gain                     build/obj/elements_resources.o
                                                  build/obj/exciter.o
elements::lut_approx_svf_h                        build/obj/elements_resources.o
                                                  build/obj/exciter.o
elements::lut_approx_svf_r                        build/obj/elements_resources.o
                                                  build/obj/exciter.o
elements::lut_db_led_brightness                   build/obj/elements_resources.o
elements::lut_detune_quantizer                    build/obj/elements_resources.o
                                                  build/obj/ominous_voice.o
elements::lut_env_expo                            build/obj/elements_resources.o
elements::lut_env_increments                      build/obj/elements_resources.o
                                                  build/obj/voice.o
                                                  build/obj/ominous_voice.o
elements::lut_env_linear                          build/obj/elements_resources.o
elements::lut_env_quartic                         build/obj/elements_resources.o
elements::lut_midi_to_f_high                      build/obj/elements_resources.o
                                                  build/obj/part.o
                                                  build/obj/ominous_voice.o
elements::lut_midi_to_f_low                       build/obj/elements_resources.o
                                                  build/obj/part.o
                                                  build/obj/ominous_voice.o
elements::lut_midi_to_increment_high              build/obj/elements_resources.o
                                                  build/obj/ominous_voice.o
elements::sample_boundary_table                   build/obj/elements_resources.o
elements::sample_table                            build/obj/elements_resources.o
                                                  build/obj/exciter.o
                                                  build/obj/axoloti_mi.o
elements::smp_boundaries                          build/obj/elements_resources.o
                                                  build/obj/exciter.o
errno                                             /home/sbcm/Dropbox/pcb-layouts/axo-427-core/ksoloti/platform_linux/bin/../lib/gcc/arm-none-eabi/4.9.3/../../../../arm-none-eabi/lib/armv7e-m/fpu/libg.a(lib_a-reent.o)
                                                  /home/sbcm/Dropbox/pcb-layouts/axo-427-core/ksoloti/platform_linux/bin/../lib/gcc/arm-none-eabi/4.9.3/../../../../arm-none-eabi/lib/armv7e-m/fpu/libg.a(lib_a-sbrkr.o)
                                                  /home/sbcm/Dropbox/pcb-layouts/axo-427-core/ksoloti/platform_linux/bin/../lib/gcc/arm-none-eabi/4.9.3/../../../../arm-none-eabi/lib/armv7e-m/fpu/libg.a(lib_a-signalr.o)
errorFlagClearAll                                 build/obj/sysmon.o
errorflags                                        build/obj/sysmon.o
exception_check                                   build/obj/exceptions.o
exception_check_DFU                               build/obj/exceptions.o
                                                  build/obj/board.o
exception_checkandreport                          build/obj/exceptions.o
                                                  build/obj/pconnection.o
exception_clear                                   build/obj/exceptions.o
exception_init                                    build/obj/exceptions.o
                                                  build/obj/main.o
exception_initiate_dfu                            build/obj/exceptions.o
                                                  build/obj/pconnection.o
expt                                              build/obj/axoloti_math.o
f_chdir                                           build/obj/ff.o
                                                  build/obj/pconnection.o
                                                  build/obj/sdcard.o
f_chdrive                                         build/obj/ff.o
f_chmod                                           build/obj/ff.o
f_close                                           build/obj/ff.o
                                                  build/obj/axoloti_mi.o
                                                  build/obj/patch.o
                                                  build/obj/pconnection.o
                                                  build/obj/sdcard.o
f_filter_biquad_A                                 build/obj/axoloti_filters.o
f_getcwd                                          build/obj/ff.o
                                                  build/obj/exceptions.o
f_getfree                                         build/obj/ff.o
                                                  build/obj/pconnection.o
                                                  build/obj/sdcard.o
f_lseek                                           build/obj/ff.o
                                                  build/obj/pconnection.o
f_mkdir                                           build/obj/ff.o
                                                  build/obj/pconnection.o
f_mkfs                                            build/obj/ff.o
                                                  build/obj/ui.o
f_mount                                           build/obj/ff.o
                                                  build/obj/sdcard.o
f_open                                            build/obj/ff.o
                                                  build/obj/axoloti_mi.o
                                                  build/obj/patch.o
                                                  build/obj/pconnection.o
                                                  build/obj/sdcard.o
f_opendir                                         build/obj/ff.o
                                                  build/obj/pconnection.o
                                                  build/obj/ui.o
f_read                                            build/obj/ff.o
                                                  build/obj/axoloti_mi.o
                                                  build/obj/patch.o
                                                  build/obj/sdcard.o
f_readdir                                         build/obj/ff.o
                                                  build/obj/pconnection.o
                                                  build/obj/ui.o
f_rename                                          build/obj/ff.o
f_stat                                            build/obj/ff.o
                                                  build/obj/pconnection.o
f_sync                                            build/obj/ff.o
f_truncate                                        build/obj/ff.o
f_unlink                                          build/obj/ff.o
                                                  build/obj/pconnection.o
f_utime                                           build/obj/ff.o
                                                  build/obj/pconnection.o
f_write                                           build/obj/ff.o
                                                  build/obj/pconnection.o
fabs                                              /home/sbcm/Dropbox/pcb-layouts/axo-427-core/ksoloti/platform_linux/bin/../lib/gcc/arm-none-eabi/4.9.3/../../../../arm-none-eabi/lib/armv7e-m/fpu/libm.a(lib_a-s_fabs.o)
                                                  /home/sbcm/Dropbox/pcb-layouts/axo-427-core/ksoloti/platform_linux/bin/../lib/gcc/arm-none-eabi/4.9.3/../../../../arm-none-eabi/lib/armv7e-m/fpu/libm.a(lib_a-e_pow.o)
fabsf                                             /home/sbcm/Dropbox/pcb-layouts/axo-427-core/ksoloti/platform_linux/bin/../lib/gcc/arm-none-eabi/4.9.3/../../../../arm-none-eabi/lib/armv7e-m/fpu/libm.a(lib_a-sf_fabs.o)
                                                  /home/sbcm/Dropbox/pcb-layouts/axo-427-core/ksoloti/platform_linux/bin/../lib/gcc/arm-none-eabi/4.9.3/../../../../arm-none-eabi/lib/armv7e-m/fpu/libm.a(lib_a-ef_rem_pio2.o)
                                                  /home/sbcm/Dropbox/pcb-layouts/axo-427-core/ksoloti/platform_linux/bin/../lib/gcc/arm-none-eabi/4.9.3/../../../../arm-none-eabi/lib/armv7e-m/fpu/libm.a(lib_a-ef_pow.o)
fakefree                                          build/obj/usbh_conf.o
                                                  build/obj/usbh_midi_core.o
                                                  build/obj/usbh_hid.o
fakemalloc                                        build/obj/usbh_conf.o
                                                  build/obj/usbh_vendor.o
                                                  build/obj/usbh_midi_core.o
                                                  build/obj/usbh_hid.o
fbuff                                             build/obj/sdcard.o
                                                  build/obj/pconnection.o
                                                  build/obj/ui.o
ff_convert                                        build/obj/ccsbcs.o
                                                  build/obj/ff.o
ff_cre_syncobj                                    build/obj/fatfs_syscall.o
                                                  build/obj/ff.o
ff_del_syncobj                                    build/obj/fatfs_syscall.o
                                                  build/obj/ff.o
ff_rel_grant                                      build/obj/fatfs_syscall.o
                                                  build/obj/ff.o
ff_req_grant                                      build/obj/fatfs_syscall.o
                                                  build/obj/ff.o
ff_wtoupper                                       build/obj/ccsbcs.o
                                                  build/obj/ff.o
fifo_init                                         build/obj/usbh_hid.o
                                                  build/obj/usbh_hid_mouse.o
                                                  build/obj/usbh_hid_keybd.o
fifo_read                                         build/obj/usbh_hid.o
                                                  build/obj/usbh_hid_mouse.o
                                                  build/obj/usbh_hid_keybd.o
fifo_write                                        build/obj/usbh_hid.o
finite                                            /home/sbcm/Dropbox/pcb-layouts/axo-427-core/ksoloti/platform_linux/bin/../lib/gcc/arm-none-eabi/4.9.3/../../../../arm-none-eabi/lib/armv7e-m/fpu/libm.a(lib_a-s_finite.o)
                                                  /home/sbcm/Dropbox/pcb-layouts/axo-427-core/ksoloti/platform_linux/bin/../lib/gcc/arm-none-eabi/4.9.3/../../../../arm-none-eabi/lib/armv7e-m/fpu/libm.a(lib_a-w_pow.o)
finitef                                           /home/sbcm/Dropbox/pcb-layouts/axo-427-core/ksoloti/platform_linux/bin/../lib/gcc/arm-none-eabi/4.9.3/../../../../arm-none-eabi/lib/armv7e-m/fpu/libm.a(lib_a-sf_finite.o)
                                                  /home/sbcm/Dropbox/pcb-layouts/axo-427-core/ksoloti/platform_linux/bin/../lib/gcc/arm-none-eabi/4.9.3/../../../../arm-none-eabi/lib/armv7e-m/fpu/libm.a(lib_a-wf_pow.o)
flash_Erase_sector                                build/obj/flash.o
                                                  build/obj/pconnection.o
flash_Erase_sector1                               build/obj/flash.o
flash_ProgramWord                                 build/obj/flash.o
                                                  build/obj/pconnection.o
flash_WaitForLastOperation                        build/obj/flash.o
flash_unlock                                      build/obj/flash.o
                                                  build/obj/pconnection.o
float warps::Oscillator::RenderPolyblep<(warps::OscillatorShape)1>(float, float*, float*, unsigned int) build/obj/oscillator.o
float warps::Oscillator::RenderPolyblep<(warps::OscillatorShape)2>(float, float*, float*, unsigned int) build/obj/oscillator.o
float warps::Oscillator::RenderPolyblep<(warps::OscillatorShape)3>(float, float*, float*, unsigned int) build/obj/oscillator.o
floorf                                            /home/sbcm/Dropbox/pcb-layouts/axo-427-core/ksoloti/platform_linux/bin/../lib/gcc/arm-none-eabi/4.9.3/../../../../arm-none-eabi/lib/armv7e-m/fpu/libm.a(lib_a-sf_floor.o)
                                                  /home/sbcm/Dropbox/pcb-layouts/axo-427-core/ksoloti/platform_linux/bin/../lib/gcc/arm-none-eabi/4.9.3/../../../../arm-none-eabi/lib/armv7e-m/fpu/libm.a(lib_a-kf_rem_pio2.o)
font                                              build/obj/glcdfont.o
                                                  build/obj/axoloti_control.o
frameno                                           build/obj/spilink.o
                                                  build/obj/codec.o
fs_err_name                                       build/obj/exceptions.o
fs_ready                                          build/obj/sdcard.o
                                                  build/obj/sysmon.o
                                                  build/obj/pconnection.o
                                                  build/obj/ui.o
fwid                                              build/obj/pconnection.o
gen_numname                                       build/obj/ff.o
getErrorFlag                                      build/obj/sysmon.o
get_fat                                           build/obj/ff.o
get_fattime                                       build/obj/fatfs_diskio.o
                                                  build/obj/ff.o
hHCD                                              build/obj/usbh_conf.o
hUSBHost                                          build/obj/usbh_conf.o
halInit                                           build/obj/hal.o
                                                  build/obj/main.o
halIsCounterWithin                                build/obj/hal.o
halPolledDelay                                    build/obj/hal.o
                                                  build/obj/usb_lld.o
hal_lld_init                                      build/obj/hal_lld.o
                                                  build/obj/hal.o
hid_buttons                                       build/obj/usbh_conf.o
hid_mouse_x                                       build/obj/usbh_conf.o
hid_mouse_y                                       build/obj/usbh_conf.o
i2cAcquireBus                                     build/obj/i2c.o
i2cGetErrors                                      build/obj/i2c.o
i2cInit                                           build/obj/i2c.o
                                                  build/obj/hal.o
i2cMasterReceiveTimeout                           build/obj/i2c.o
i2cMasterTransmitTimeout                          build/obj/i2c.o
i2cObjectInit                                     build/obj/i2c.o
                                                  build/obj/i2c_lld.o
i2cReleaseBus                                     build/obj/i2c.o
i2cStart                                          build/obj/i2c.o
i2cStop                                           build/obj/i2c.o
i2c_lld_init                                      build/obj/i2c_lld.o
                                                  build/obj/i2c.o
i2c_lld_master_receive_timeout                    build/obj/i2c_lld.o
                                                  build/obj/i2c.o
i2c_lld_master_transmit_timeout                   build/obj/i2c_lld.o
                                                  build/obj/i2c.o
i2c_lld_start                                     build/obj/i2c_lld.o
                                                  build/obj/i2c.o
i2c_lld_stop                                      build/obj/i2c_lld.o
                                                  build/obj/i2c.o
init_filter_biquad_A                              build/obj/axoloti_filters.o
inttohex                                          build/obj/usbcfg.o
isEnabled                                         build/obj/sysmon.o
isValidInput                                      build/obj/usbh_midi_core.o
                                                  build/obj/usbh_vendor.o
isValidOutput                                     build/obj/usbh_midi_core.o
                                                  build/obj/usbh_vendor.o
keybd_info                                        build/obj/usbh_hid_keybd.o
keybd_report_data                                 build/obj/usbh_hid_keybd.o
lcd_buffer                                        build/obj/axoloti_control.o
led_buffer                                        build/obj/axoloti_control.o
loadElementsData                                  build/obj/axoloti_mi.o
loadFName                                         build/obj/patch.o
loadPatchIndex                                    build/obj/patch.o
                                                  build/obj/pconnection.o
lock_SAI_to_SPI_FS                                build/obj/codec.o
log                                               /home/sbcm/Dropbox/pcb-layouts/axo-427-core/ksoloti/platform_linux/bin/../lib/gcc/arm-none-eabi/4.9.3/../../../../arm-none-eabi/lib/armv7e-m/fpu/libm.a(lib_a-w_log.o)
                                                  build/obj/axoloti_math.o
logt                                              build/obj/axoloti_math.o
main                                              build/obj/main.o
                                                  build/obj/crt0.o
matherr                                           /home/sbcm/Dropbox/pcb-layouts/axo-427-core/ksoloti/platform_linux/bin/../lib/gcc/arm-none-eabi/4.9.3/../../../../arm-none-eabi/lib/armv7e-m/fpu/libm.a(lib_a-s_matherr.o)
                                                  /home/sbcm/Dropbox/pcb-layouts/axo-427-core/ksoloti/platform_linux/bin/../lib/gcc/arm-none-eabi/4.9.3/../../../../arm-none-eabi/lib/armv7e-m/fpu/libm.a(lib_a-wf_pow.o)
                                                  /home/sbcm/Dropbox/pcb-layouts/axo-427-core/ksoloti/platform_linux/bin/../lib/gcc/arm-none-eabi/4.9.3/../../../../arm-none-eabi/lib/armv7e-m/fpu/libm.a(lib_a-w_pow.o)
                                                  /home/sbcm/Dropbox/pcb-layouts/axo-427-core/ksoloti/platform_linux/bin/../lib/gcc/arm-none-eabi/4.9.3/../../../../arm-none-eabi/lib/armv7e-m/fpu/libm.a(lib_a-w_log.o)
mduConfigureHookI                                 build/obj/midi_usb.o
                                                  build/obj/usbcfg.o
mduDataReceived                                   build/obj/midi_usb.o
                                                  build/obj/usbcfg.o
mduDataTransmitted                                build/obj/midi_usb.o
                                                  build/obj/usbcfg.o
mduInit                                           build/obj/midi_usb.o
mduObjectInit                                     build/obj/midi_usb.o
                                                  build/obj/pconnection.o
mduRequestsHook                                   build/obj/midi_usb.o
mduStart                                          build/obj/midi_usb.o
                                                  build/obj/pconnection.o
mduStop                                           build/obj/midi_usb.o
mem                                               build/obj/usbh_conf.o
memTest                                           build/obj/main.o
memcpy                                            /home/sbcm/Dropbox/pcb-layouts/axo-427-core/ksoloti/platform_linux/bin/../lib/gcc/arm-none-eabi/4.9.3/../../../../arm-none-eabi/lib/armv7e-m/fpu/libg.a(lib_a-memcpy.o)
                                                  /home/sbcm/Dropbox/pcb-layouts/axo-427-core/ksoloti/platform_linux/bin/../lib/gcc/arm-none-eabi/4.9.3/armv7e-m/fpu/libgcc.a(unwind-arm.o)
                                                  build/obj/granular_processor.o
                                                  build/obj/patch.o
                                                  build/obj/main.o
                                                  build/obj/ui.o
                                                  build/obj/memstreams.o
memmove                                           /home/sbcm/Dropbox/pcb-layouts/axo-427-core/ksoloti/platform_linux/bin/../lib/gcc/arm-none-eabi/4.9.3/../../../../arm-none-eabi/lib/armv7e-m/fpu/libg.a(lib_a-memmove.o)
                                                  build/obj/stft.o
                                                  build/obj/frame_transformation.o
                                                  build/obj/granular_processor.o
                                                  build/obj/part.o
                                                  build/obj/modulator.o
                                                  build/obj/filter_bank.o
memp                                              build/obj/ui.o
memset                                            /home/sbcm/Dropbox/pcb-layouts/axo-427-core/ksoloti/platform_linux/bin/../lib/gcc/arm-none-eabi/4.9.3/../../../../arm-none-eabi/lib/armv7e-m/fpu/libg.a(lib_a-memset.o)
                                                  build/obj/arm_iir_lattice_init_q31.o
                                                  build/obj/arm_fir_lattice_init_q31.o
                                                  build/obj/arm_fir_decimate_init_q31.o
                                                  build/obj/arm_fir_interpolate_init_q31.o
                                                  build/obj/arm_biquad_cascade_df1_init_q31.o
                                                  build/obj/arm_biquad_cascade_df1_32x64_init_q31.o
                                                  build/obj/arm_fir_init_q31.o
                                                  build/obj/axoloti_control.o
                                                  build/obj/usb.o
memused                                           build/obj/usbh_conf.o
merge_rfft_f32                                    build/obj/arm_rfft_fast_f32.o
midi_init                                         build/obj/midi.o
                                                  build/obj/main.o
midi_usb_MidiSend1                                build/obj/midi_usb.o
                                                  build/obj/midi.o
midi_usb_MidiSend2                                build/obj/midi_usb.o
                                                  build/obj/midi.o
midi_usb_MidiSend3                                build/obj/midi_usb.o
                                                  build/obj/midi.o
midiusbcfg                                        build/obj/usbcfg.o
                                                  build/obj/pconnection.o
mmcsdGetCapacity                                  build/obj/mmcsd.o
                                                  build/obj/sdc.o
mouse_info                                        build/obj/usbh_hid_mouse.o
mouse_report_data                                 build/obj/usbh_hid_mouse.o
msObjectInit                                      build/obj/memstreams.o
                                                  build/obj/chprintf.o
mutable_resources::lut_4_decades                  build/obj/mutable_resources.o
                                                  build/obj/rings_resources.o
                                                  build/obj/elements_resources.o
                                                  build/obj/resonator.o
mutable_resources::lut_fm_frequency_quantizer     build/obj/mutable_resources.o
                                                  build/obj/rings_resources.o
                                                  build/obj/ominous_voice.o
mutable_resources::lut_sine                       build/obj/mutable_resources.o
                                                  build/obj/rings_resources.o
                                                  build/obj/elements_resources.o
                                                  build/obj/ominous_voice.o
mutable_resources::lut_stiffness                  build/obj/mutable_resources.o
                                                  build/obj/rings_resources.o
                                                  build/obj/elements_resources.o
                                                  build/obj/resonator.o
mutable_resources::lut_svf_shift                  build/obj/mutable_resources.o
                                                  build/obj/rings_resources.o
                                                  build/obj/elements_resources.o
                                                  build/obj/string.o
nan                                               /home/sbcm/Dropbox/pcb-layouts/axo-427-core/ksoloti/platform_linux/bin/../lib/gcc/arm-none-eabi/4.9.3/../../../../arm-none-eabi/lib/armv7e-m/fpu/libm.a(lib_a-s_nan.o)
                                                  /home/sbcm/Dropbox/pcb-layouts/axo-427-core/ksoloti/platform_linux/bin/../lib/gcc/arm-none-eabi/4.9.3/../../../../arm-none-eabi/lib/armv7e-m/fpu/libm.a(lib_a-e_pow.o)
                                                  /home/sbcm/Dropbox/pcb-layouts/axo-427-core/ksoloti/platform_linux/bin/../lib/gcc/arm-none-eabi/4.9.3/../../../../arm-none-eabi/lib/armv7e-m/fpu/libm.a(lib_a-w_log.o)
nanf                                              /home/sbcm/Dropbox/pcb-layouts/axo-427-core/ksoloti/platform_linux/bin/../lib/gcc/arm-none-eabi/4.9.3/../../../../arm-none-eabi/lib/armv7e-m/fpu/libm.a(lib_a-sf_nan.o)
                                                  /home/sbcm/Dropbox/pcb-layouts/axo-427-core/ksoloti/platform_linux/bin/../lib/gcc/arm-none-eabi/4.9.3/../../../../arm-none-eabi/lib/armv7e-m/fpu/libm.a(lib_a-ef_pow.o)
nvicDisableVector                                 build/obj/nvic.o
                                                  build/obj/serial_lld.o
                                                  build/obj/pwm_lld.o
                                                  build/obj/usb_lld.o
                                                  build/obj/i2c_lld.o
                                                  build/obj/sdc_lld.o
                                                  build/obj/stm32_dma.o
nvicEnableVector                                  build/obj/nvic.o
                                                  build/obj/serial_lld.o
                                                  build/obj/pwm_lld.o
                                                  build/obj/usb_lld.o
                                                  build/obj/i2c_lld.o
                                                  build/obj/sdc_lld.o
                                                  build/obj/adc_lld.o
                                                  build/obj/stm32_dma.o
nvicSetSystemHandlerPriority                      build/obj/nvic.o
                                                  build/obj/chcore_v7m.o
pControlUpdate                                    build/obj/ui.o
pFile                                             build/obj/pconnection.o
pFileSize                                         build/obj/pconnection.o
pThreadSpilink                                    build/obj/spilink.o
                                                  build/obj/main.o
palReadBus                                        build/obj/pal.o
palSetBusMode                                     build/obj/pal.o
palWriteBus                                       build/obj/pal.o
pal_default_config                                build/obj/board.o
                                                  build/obj/hal.o
patchMeta                                         build/obj/patch.o
                                                  build/obj/parameters.o
                                                  build/obj/pconnection.o
patchStatus                                       build/obj/patch.o
                                                  build/obj/pconnection.o
                                                  build/obj/ui.o
pattern                                           build/obj/sysmon.o
pattern_index                                     build/obj/sysmon.o
pitcht                                            build/obj/axoloti_math.o
port_halt                                         build/obj/chcore.o
                                                  build/obj/spidb.o
                                                  build/obj/spi_lld.o
                                                  build/obj/i2c_lld.o
pow                                               /home/sbcm/Dropbox/pcb-layouts/axo-427-core/ksoloti/platform_linux/bin/../lib/gcc/arm-none-eabi/4.9.3/../../../../arm-none-eabi/lib/armv7e-m/fpu/libm.a(lib_a-w_pow.o)
                                                  build/obj/axoloti_math.o
powf                                              /home/sbcm/Dropbox/pcb-layouts/axo-427-core/ksoloti/platform_linux/bin/../lib/gcc/arm-none-eabi/4.9.3/../../../../arm-none-eabi/lib/armv7e-m/fpu/libm.a(lib_a-wf_pow.o)
                                                  build/obj/axoloti_math.o
prvGetRegistersFromStack                          build/obj/exceptions.o
put_fat                                           build/obj/ff.o
pwmChangePeriod                                   build/obj/pwm.o
pwmDisableChannel                                 build/obj/pwm.o
pwmEnableChannel                                  build/obj/pwm.o
pwmInit                                           build/obj/pwm.o
                                                  build/obj/hal.o
pwmObjectInit                                     build/obj/pwm.o
                                                  build/obj/pwm_lld.o
pwmStart                                          build/obj/pwm.o
pwmStop                                           build/obj/pwm.o
pwm_lld_disable_channel                           build/obj/pwm_lld.o
                                                  build/obj/pwm.o
pwm_lld_enable_channel                            build/obj/pwm_lld.o
                                                  build/obj/pwm.o
pwm_lld_init                                      build/obj/pwm_lld.o
                                                  build/obj/pwm.o
pwm_lld_start                                     build/obj/pwm_lld.o
                                                  build/obj/pwm.o
pwm_lld_stop                                      build/obj/pwm_lld.o
                                                  build/obj/pwm.o
raise                                             /home/sbcm/Dropbox/pcb-layouts/axo-427-core/ksoloti/platform_linux/bin/../lib/gcc/arm-none-eabi/4.9.3/../../../../arm-none-eabi/lib/armv7e-m/fpu/libg.a(lib_a-signal.o)
                                                  /home/sbcm/Dropbox/pcb-layouts/axo-427-core/ksoloti/platform_linux/bin/../lib/gcc/arm-none-eabi/4.9.3/../../../../arm-none-eabi/lib/armv7e-m/fpu/libg.a(lib_a-abort.o)
rbuf                                              build/obj/codec.o
rbuf2                                             build/obj/codec.o
realCoefAQ15                                      build/obj/arm_rfft_init_q15.o
                                                  build/obj/arm_const_structs.o
realCoefAQ31                                      build/obj/arm_rfft_init_q31.o
                                                  build/obj/arm_const_structs.o
realCoefBQ15                                      build/obj/arm_rfft_init_q15.o
                                                  build/obj/arm_const_structs.o
realCoefBQ31                                      build/obj/arm_rfft_init_q31.o
                                                  build/obj/arm_const_structs.o
repeat                                            build/obj/sysmon.o
report_exception                                  build/obj/exceptions.o
report_fatfs_error                                build/obj/exceptions.o
                                                  build/obj/patch.o
                                                  build/obj/pconnection.o
                                                  build/obj/sdcard.o
report_patchLoadFail                              build/obj/exceptions.o
                                                  build/obj/patch.o
report_patchLoadSDRamOverflow                     build/obj/exceptions.o
                                                  build/obj/axoloti_memory.o
                                                  build/obj/patch.o
report_usbh_midi_ringbuffer_overflow              build/obj/exceptions.o
                                                  build/obj/usbh_midi_core.o
restore_core_regs                                 /home/sbcm/Dropbox/pcb-layouts/axo-427-core/ksoloti/platform_linux/bin/../lib/gcc/arm-none-eabi/4.9.3/armv7e-m/fpu/libgcc.a(libunwind.o)
                                                  /home/sbcm/Dropbox/pcb-layouts/axo-427-core/ksoloti/platform_linux/bin/../lib/gcc/arm-none-eabi/4.9.3/armv7e-m/fpu/libgcc.a(unwind-arm.o)
revbit                                            build/obj/crc32.o
rings::lookup_table_int16_table                   build/obj/rings_resources.o
rings::lookup_table_table                         build/obj/rings_resources.o
rings::lookup_table_uint32_table                  build/obj/rings_resources.o
rint                                              /home/sbcm/Dropbox/pcb-layouts/axo-427-core/ksoloti/platform_linux/bin/../lib/gcc/arm-none-eabi/4.9.3/../../../../arm-none-eabi/lib/armv7e-m/fpu/libm.a(lib_a-s_rint.o)
                                                  /home/sbcm/Dropbox/pcb-layouts/axo-427-core/ksoloti/platform_linux/bin/../lib/gcc/arm-none-eabi/4.9.3/../../../../arm-none-eabi/lib/armv7e-m/fpu/libm.a(lib_a-wf_pow.o)
                                                  /home/sbcm/Dropbox/pcb-layouts/axo-427-core/ksoloti/platform_linux/bin/../lib/gcc/arm-none-eabi/4.9.3/../../../../arm-none-eabi/lib/armv7e-m/fpu/libm.a(lib_a-w_pow.o)
rlist                                             build/obj/chschd.o
                                                  build/obj/sysmon.o
                                                  build/obj/spilink.o
                                                  build/obj/serial_midi.o
                                                  build/obj/usbh_core.o
                                                  build/obj/patch.o
                                                  build/obj/pconnection.o
                                                  build/obj/ui.o
                                                  build/obj/usb_lld.o
                                                  build/obj/i2c_lld.o
                                                  build/obj/sdc_lld.o
                                                  build/obj/spi.o
                                                  build/obj/adc.o
                                                  build/obj/chqueues.o
                                                  build/obj/chmsg.o
                                                  build/obj/chevents.o
                                                  build/obj/chmtx.o
                                                  build/obj/chsem.o
                                                  build/obj/chregistry.o
                                                  build/obj/chthreads.o
                                                  build/obj/chsys.o
                                                  build/obj/chcore_v7m.o
sai_a                                             build/obj/codec.o
sai_a_dma                                         build/obj/codec.o
sai_b                                             build/obj/codec.o
sai_b_dma                                         build/obj/codec.o
scalbn                                            /home/sbcm/Dropbox/pcb-layouts/axo-427-core/ksoloti/platform_linux/bin/../lib/gcc/arm-none-eabi/4.9.3/../../../../arm-none-eabi/lib/armv7e-m/fpu/libm.a(lib_a-s_scalbn.o)
                                                  /home/sbcm/Dropbox/pcb-layouts/axo-427-core/ksoloti/platform_linux/bin/../lib/gcc/arm-none-eabi/4.9.3/../../../../arm-none-eabi/lib/armv7e-m/fpu/libm.a(lib_a-e_pow.o)
scalbnf                                           /home/sbcm/Dropbox/pcb-layouts/axo-427-core/ksoloti/platform_linux/bin/../lib/gcc/arm-none-eabi/4.9.3/../../../../arm-none-eabi/lib/armv7e-m/fpu/libm.a(lib_a-sf_scalbn.o)
                                                  /home/sbcm/Dropbox/pcb-layouts/axo-427-core/ksoloti/platform_linux/bin/../lib/gcc/arm-none-eabi/4.9.3/../../../../arm-none-eabi/lib/armv7e-m/fpu/libm.a(lib_a-kf_rem_pio2.o)
                                                  /home/sbcm/Dropbox/pcb-layouts/axo-427-core/ksoloti/platform_linux/bin/../lib/gcc/arm-none-eabi/4.9.3/../../../../arm-none-eabi/lib/armv7e-m/fpu/libm.a(lib_a-ef_pow.o)
sdIncomingDataI                                   build/obj/serial.o
                                                  build/obj/serial_lld.o
sdInit                                            build/obj/serial.o
                                                  build/obj/hal.o
sdObjectInit                                      build/obj/serial.o
                                                  build/obj/serial_lld.o
sdRequestDataI                                    build/obj/serial.o
sdStart                                           build/obj/serial.o
                                                  build/obj/serial_midi.o
sdStop                                            build/obj/serial.o
sd_lld_init                                       build/obj/serial_lld.o
                                                  build/obj/serial.o
sd_lld_start                                      build/obj/serial_lld.o
                                                  build/obj/serial.o
sd_lld_stop                                       build/obj/serial_lld.o
                                                  build/obj/serial.o
sdcConnect                                        build/obj/sdc.o
                                                  build/obj/sdcard.o
sdcDisconnect                                     build/obj/sdc.o
                                                  build/obj/sdcard.o
sdcErase                                          build/obj/sdc.o
sdcGetAndClearErrors                              build/obj/sdc.o
sdcGetInfo                                        build/obj/sdc.o
sdcInit                                           build/obj/sdc.o
                                                  build/obj/hal.o
sdcObjectInit                                     build/obj/sdc.o
                                                  build/obj/sdc_lld.o
sdcRead                                           build/obj/sdc.o
                                                  build/obj/fatfs_diskio.o
sdcStart                                          build/obj/sdc.o
                                                  build/obj/sdcard.o
sdcStop                                           build/obj/sdc.o
sdcSync                                           build/obj/sdc.o
sdcWrite                                          build/obj/sdc.o
                                                  build/obj/fatfs_diskio.o
sdc_lld_init                                      build/obj/sdc_lld.o
                                                  build/obj/sdc.o
sdc_lld_is_card_inserted                          build/obj/board.o
                                                  build/obj/sdc.o
sdc_lld_is_write_protected                        build/obj/board.o
                                                  build/obj/fatfs_diskio.o
                                                  build/obj/sdc.o
sdc_lld_read                                      build/obj/sdc_lld.o
                                                  build/obj/sdc.o
sdc_lld_read_aligned                              build/obj/sdc_lld.o
sdc_lld_send_cmd_long_crc                         build/obj/sdc_lld.o
                                                  build/obj/sdc.o
sdc_lld_send_cmd_none                             build/obj/sdc_lld.o
                                                  build/obj/sdc.o
sdc_lld_send_cmd_short                            build/obj/sdc_lld.o
                                                  build/obj/sdc.o
sdc_lld_send_cmd_short_crc                        build/obj/sdc_lld.o
                                                  build/obj/sdc.o
sdc_lld_set_bus_mode                              build/obj/sdc_lld.o
                                                  build/obj/sdc.o
sdc_lld_set_data_clk                              build/obj/sdc_lld.o
                                                  build/obj/sdc.o
sdc_lld_start                                     build/obj/sdc_lld.o
                                                  build/obj/sdc.o
sdc_lld_start_clk                                 build/obj/sdc_lld.o
                                                  build/obj/sdc.o
sdc_lld_stop                                      build/obj/sdc_lld.o
                                                  build/obj/sdc.o
sdc_lld_stop_clk                                  build/obj/sdc_lld.o
                                                  build/obj/sdc.o
sdc_lld_sync                                      build/obj/sdc_lld.o
                                                  build/obj/sdc.o
sdc_lld_write                                     build/obj/sdc_lld.o
                                                  build/obj/sdc.o
sdc_lld_write_aligned                             build/obj/sdc_lld.o
sdcard_attemptMountIfUnmounted                    build/obj/sdcard.o
                                                  build/obj/sysmon.o
                                                  build/obj/patch.o
                                                  build/obj/pconnection.o
sdcard_init                                       build/obj/sdcard.o
                                                  build/obj/main.o
sdcard_loadPatch1                                 build/obj/sdcard.o
                                                  build/obj/patch.o
sdcard_unmount                                    build/obj/sdcard.o
                                                  build/obj/sysmon.o
sdcsw_prev                                        build/obj/sysmon.o
sdram_free                                        build/obj/axoloti_memory.o
sdram_get_free                                    build/obj/axoloti_memory.o
                                                  build/obj/patch.o
sdram_init                                        build/obj/axoloti_memory.o
sdram_malloc                                      build/obj/axoloti_memory.o
                                                  build/obj/string.o
                                                  build/obj/resonator.o
                                                  build/obj/filter_bank.o
serial_MidiGetOutputBufferPending                 build/obj/serial_midi.o
                                                  build/obj/midi.o
serial_MidiInByteHandler                          build/obj/serial_midi.o
serial_MidiSend1                                  build/obj/serial_midi.o
                                                  build/obj/midi.o
serial_MidiSend2                                  build/obj/serial_midi.o
                                                  build/obj/midi.o
serial_MidiSend3                                  build/obj/serial_midi.o
                                                  build/obj/midi.o
serial_midi_init                                  build/obj/serial_midi.o
                                                  build/obj/midi.o
setErrorFlag                                      build/obj/sysmon.o
                                                  build/obj/main.o
                                                  build/obj/codec.o
signal                                            /home/sbcm/Dropbox/pcb-layouts/axo-427-core/ksoloti/platform_linux/bin/../lib/gcc/arm-none-eabi/4.9.3/../../../../arm-none-eabi/lib/armv7e-m/fpu/libg.a(lib_a-signal.o)
sinTable_f32                                      build/obj/arm_common_tables.o
sinTable_q15                                      build/obj/arm_common_tables.o
sinTable_q31                                      build/obj/arm_common_tables.o
                                                  build/obj/arm_sin_q31.o
                                                  build/obj/arm_cos_q31.o
sine2t                                            build/obj/axoloti_math.o
                                                  build/obj/axoloti_filters.o
sinet                                             build/obj/axoloti_math.o
sinf                                              /home/sbcm/Dropbox/pcb-layouts/axo-427-core/ksoloti/platform_linux/bin/../lib/gcc/arm-none-eabi/4.9.3/../../../../arm-none-eabi/lib/armv7e-m/fpu/libm.a(lib_a-sf_sin.o)
                                                  build/obj/stft.o
                                                  build/obj/axoloti_math.o
spiAcquireBus                                     build/obj/spi.o
spiExchange                                       build/obj/spi.o
spiIgnore                                         build/obj/spi.o
spiInit                                           build/obj/spi.o
                                                  build/obj/hal.o
spiObjectInit                                     build/obj/spi.o
                                                  build/obj/spi_lld.o
spiReceive                                        build/obj/spi.o
spiReleaseBus                                     build/obj/spi.o
spiSelect                                         build/obj/spi.o
                                                  build/obj/spidb.o
spiSend                                           build/obj/spi.o
spiStart                                          build/obj/spi.o
                                                  build/obj/spidb.o
spiStartExchange                                  build/obj/spi.o
spiStartIgnore                                    build/obj/spi.o
spiStartReceive                                   build/obj/spi.o
spiStartSend                                      build/obj/spi.o
spiStop                                           build/obj/spi.o
spiUnselect                                       build/obj/spi.o
spi_lld_exchange                                  build/obj/spi_lld.o
                                                  build/obj/spi.o
spi_lld_ignore                                    build/obj/spi_lld.o
                                                  build/obj/spi.o
spi_lld_init                                      build/obj/spi_lld.o
                                                  build/obj/spi.o
spi_lld_polled_exchange                           build/obj/spi_lld.o
spi_lld_receive                                   build/obj/spi_lld.o
                                                  build/obj/spi.o
spi_lld_select                                    build/obj/spi_lld.o
                                                  build/obj/spi.o
spi_lld_send                                      build/obj/spi_lld.o
                                                  build/obj/spi.o
spi_lld_start                                     build/obj/spi_lld.o
                                                  build/obj/spi.o
spi_lld_stop                                      build/obj/spi_lld.o
                                                  build/obj/spi.o
spi_lld_unselect                                  build/obj/spi_lld.o
                                                  build/obj/spi.o
spidbMasterStart                                  build/obj/spidb.o
                                                  build/obj/spilink.o
spidbSlaveResync                                  build/obj/spidb.o
                                                  build/obj/spilink.o
spidbSlaveStart                                   build/obj/spidb.o
                                                  build/obj/spilink.o
spidb_interrupt_timestamp                         build/obj/spidb.o
spilink_clear_audio_tx                            build/obj/spilink.o
                                                  build/obj/codec.o
spilink_init                                      build/obj/spilink.o
spilink_master_active                             build/obj/spilink.o
                                                  build/obj/codec.o
spilink_rx                                        build/obj/spilink.o
                                                  build/obj/codec.o
spilink_rx_samples                                build/obj/spilink.o
                                                  build/obj/codec.o
spilink_toggle                                    build/obj/spilink.o
                                                  build/obj/codec.o
spilink_tx                                        build/obj/spilink.o
                                                  build/obj/codec.o
spilink_tx_samples                                build/obj/spilink.o
                                                  build/obj/codec.o
stage_rfft_f32                                    build/obj/arm_rfft_fast_f32.o
start_dsp_thread                                  build/obj/patch.o
                                                  build/obj/main.o
stm32_clock_init                                  build/obj/hal_lld.o
                                                  build/obj/board.o
stmlib::Random::rng_state_                        build/obj/random.o
                                                  build/obj/frame_transformation.o
                                                  build/obj/granular_processor.o
                                                  build/obj/exciter.o
                                                  build/obj/string.o
                                                  build/obj/oscillator.o
stmlib::ShyFFT<float, 4096u, stmlib::RotationPhasor>::bit_rev_256_lut_ build/obj/stft.o
stmlib::atan_lut                                  build/obj/atan.o
                                                  build/obj/frame_transformation.o
stmlib::lut_pitch_ratio_high                      build/obj/units.o
                                                  build/obj/frame_transformation.o
                                                  build/obj/granular_processor.o
                                                  build/obj/voice.o
                                                  build/obj/exciter.o
                                                  build/obj/string.o
                                                  build/obj/vocoder.o
                                                  build/obj/modulator.o
stmlib::lut_pitch_ratio_low                       build/obj/units.o
                                                  build/obj/frame_transformation.o
                                                  build/obj/granular_processor.o
                                                  build/obj/voice.o
                                                  build/obj/exciter.o
                                                  build/obj/string.o
                                                  build/obj/vocoder.o
                                                  build/obj/modulator.o
stpcpy                                            /home/sbcm/Dropbox/pcb-layouts/axo-427-core/ksoloti/platform_linux/bin/../lib/gcc/arm-none-eabi/4.9.3/../../../../arm-none-eabi/lib/armv7e-m/fpu/libg.a(lib_a-stpcpy.o)
                                                  build/obj/pconnection.o
strcpy                                            /home/sbcm/Dropbox/pcb-layouts/axo-427-core/ksoloti/platform_linux/bin/../lib/gcc/arm-none-eabi/4.9.3/../../../../arm-none-eabi/lib/armv7e-m/fpu/libg.a(lib_a-strcpy.o)
                                                  build/obj/patch.o
                                                  build/obj/pconnection.o
                                                  build/obj/ui.o
streams::Compressor::Compress(long, long, long, bool) build/obj/compressor.o
streams::Compressor::Exp2(long)                   build/obj/compressor.o
streams::Compressor::Init()                       build/obj/compressor.o
                                                  build/obj/processor.o
streams::Compressor::Log2(long)                   build/obj/compressor.o
streams::Compressor::Process(short, short, unsigned short*, unsigned short*) build/obj/compressor.o
                                                  build/obj/processor.o
streams::Envelope::Init()                         build/obj/envelope.o
                                                  build/obj/processor.o
streams::Envelope::Process(short, short, unsigned short*, unsigned short*) build/obj/envelope.o
                                                  build/obj/processor.o
streams::Follower::Init()                         build/obj/follower.o
                                                  build/obj/processor.o
streams::Follower::Process(short, short, unsigned short*, unsigned short*) build/obj/follower.o
                                                  build/obj/processor.o
streams::LorenzGenerator::Init()                  build/obj/lorenz_generator.o
                                                  build/obj/processor.o
streams::LorenzGenerator::Process(short, short, unsigned short*, unsigned short*) build/obj/lorenz_generator.o
                                                  build/obj/processor.o
streams::Processor::CompressorConfigure(bool, long*, long*) build/obj/processor.o
streams::Processor::CompressorInit()              build/obj/processor.o
streams::Processor::CompressorProcess(short, short, unsigned short*, unsigned short*) build/obj/processor.o
streams::Processor::EnvelopeConfigure(bool, long*, long*) build/obj/processor.o
streams::Processor::EnvelopeInit()                build/obj/processor.o
streams::Processor::EnvelopeProcess(short, short, unsigned short*, unsigned short*) build/obj/processor.o
streams::Processor::FilterControllerConfigure(bool, long*, long*) build/obj/processor.o
streams::Processor::FilterControllerInit()        build/obj/processor.o
streams::Processor::FilterControllerProcess(short, short, unsigned short*, unsigned short*) build/obj/processor.o
streams::Processor::FollowerConfigure(bool, long*, long*) build/obj/processor.o
streams::Processor::FollowerInit()                build/obj/processor.o
streams::Processor::FollowerProcess(short, short, unsigned short*, unsigned short*) build/obj/processor.o
streams::Processor::Init(unsigned char)           build/obj/processor.o
streams::Processor::LorenzGeneratorConfigure(bool, long*, long*) build/obj/processor.o
streams::Processor::LorenzGeneratorInit()         build/obj/processor.o
streams::Processor::LorenzGeneratorProcess(short, short, unsigned short*, unsigned short*) build/obj/processor.o
streams::Processor::VactrolConfigure(bool, long*, long*) build/obj/processor.o
streams::Processor::VactrolInit()                 build/obj/processor.o
streams::Processor::VactrolProcess(short, short, unsigned short*, unsigned short*) build/obj/processor.o
streams::Processor::callbacks_table_              build/obj/processor.o
streams::Svf::Init()                              build/obj/svf.o
                                                  build/obj/follower.o
streams::Svf::Process(long)                       build/obj/svf.o
                                                  build/obj/follower.o
streams::Vactrol::Init()                          build/obj/vactrol.o
                                                  build/obj/processor.o
streams::Vactrol::Process(short, short, unsigned short*, unsigned short*) build/obj/vactrol.o
                                                  build/obj/processor.o
streams::lookup_table_32_table                    build/obj/streams_resources.o
streams::lookup_table_table                       build/obj/streams_resources.o
                                                  build/obj/envelope.o
streams::lut_2164_gain                            build/obj/streams_resources.o
streams::lut_compressor_ratio                     build/obj/streams_resources.o
                                                  build/obj/processor.o
streams::lut_env_expo                             build/obj/streams_resources.o
streams::lut_env_increments                       build/obj/streams_resources.o
                                                  build/obj/envelope.o
streams::lut_env_linear                           build/obj/streams_resources.o
streams::lut_env_quartic                          build/obj/streams_resources.o
streams::lut_exp2                                 build/obj/streams_resources.o
                                                  build/obj/compressor.o
streams::lut_log2                                 build/obj/streams_resources.o
                                                  build/obj/compressor.o
streams::lut_lorenz_rate                          build/obj/streams_resources.o
                                                  build/obj/lorenz_generator.o
streams::lut_lp_coefficients                      build/obj/streams_resources.o
                                                  build/obj/processor.o
streams::lut_soft_knee                            build/obj/streams_resources.o
                                                  build/obj/compressor.o
streams::lut_square_root                          build/obj/streams_resources.o
                                                  build/obj/follower.o
streams::lut_svf_cutoff                           build/obj/streams_resources.o
                                                  build/obj/svf.o
streams::lut_svf_damp                             build/obj/streams_resources.o
                                                  build/obj/svf.o
streams::string_table                             build/obj/streams_resources.o
streams::wav_db                                   build/obj/streams_resources.o
streams::wav_gompertz                             build/obj/streams_resources.o
                                                  build/obj/vactrol.o
streams::waveforms_table                          build/obj/streams_resources.o
strlen                                            /home/sbcm/Dropbox/pcb-layouts/axo-427-core/ksoloti/platform_linux/bin/../lib/gcc/arm-none-eabi/4.9.3/../../../../arm-none-eabi/lib/armv7e-m/fpu/libg.a(lib_a-strlen.o)
                                                  build/obj/pconnection.o
                                                  build/obj/sdcard.o
                                                  build/obj/ui.o
sysmon_blink_pattern                              build/obj/sysmon.o
                                                  build/obj/codec.o
sysmon_disable_blinker                            build/obj/sysmon.o
sysmon_enable_blinker                             build/obj/sysmon.o
                                                  build/obj/patch.o
sysmon_getVoltage10                               build/obj/sysmon.o
                                                  build/obj/pconnection.o
sysmon_getVoltage50                               build/obj/sysmon.o
                                                  build/obj/pconnection.o
sysmon_init                                       build/obj/sysmon.o
                                                  build/obj/main.o
terminator                                        build/obj/exceptions.o
tmInit                                            build/obj/tm.o
                                                  build/obj/hal.o
tmObjectInit                                      build/obj/tm.o
twiddleCoef_1024                                  build/obj/arm_common_tables.o
                                                  build/obj/arm_const_structs.o
                                                  build/obj/arm_rfft_fast_init_f32.o
twiddleCoef_1024_q15                              build/obj/arm_common_tables.o
                                                  build/obj/arm_const_structs.o
twiddleCoef_1024_q31                              build/obj/arm_common_tables.o
                                                  build/obj/arm_const_structs.o
twiddleCoef_128                                   build/obj/arm_common_tables.o
                                                  build/obj/arm_const_structs.o
                                                  build/obj/arm_rfft_fast_init_f32.o
twiddleCoef_128_q15                               build/obj/arm_common_tables.o
                                                  build/obj/arm_const_structs.o
twiddleCoef_128_q31                               build/obj/arm_common_tables.o
                                                  build/obj/arm_const_structs.o
twiddleCoef_16                                    build/obj/arm_common_tables.o
                                                  build/obj/arm_const_structs.o
                                                  build/obj/arm_rfft_fast_init_f32.o
twiddleCoef_16_q15                                build/obj/arm_common_tables.o
                                                  build/obj/arm_const_structs.o
twiddleCoef_16_q31                                build/obj/arm_common_tables.o
                                                  build/obj/arm_const_structs.o
twiddleCoef_2048                                  build/obj/arm_common_tables.o
                                                  build/obj/arm_const_structs.o
                                                  build/obj/arm_rfft_fast_init_f32.o
twiddleCoef_2048_q15                              build/obj/arm_common_tables.o
                                                  build/obj/arm_const_structs.o
twiddleCoef_2048_q31                              build/obj/arm_common_tables.o
                                                  build/obj/arm_const_structs.o
twiddleCoef_256                                   build/obj/arm_common_tables.o
                                                  build/obj/arm_const_structs.o
                                                  build/obj/arm_rfft_fast_init_f32.o
twiddleCoef_256_q15                               build/obj/arm_common_tables.o
                                                  build/obj/arm_const_structs.o
twiddleCoef_256_q31                               build/obj/arm_common_tables.o
                                                  build/obj/arm_const_structs.o
twiddleCoef_32                                    build/obj/arm_common_tables.o
                                                  build/obj/arm_const_structs.o
                                                  build/obj/arm_rfft_fast_init_f32.o
twiddleCoef_32_q15                                build/obj/arm_common_tables.o
                                                  build/obj/arm_const_structs.o
twiddleCoef_32_q31                                build/obj/arm_common_tables.o
                                                  build/obj/arm_const_structs.o
twiddleCoef_4096                                  build/obj/arm_common_tables.o
                                                  build/obj/arm_const_structs.o
                                                  build/obj/arm_cfft_radix4_init_f32.o
                                                  build/obj/arm_cfft_radix2_init_f32.o
twiddleCoef_4096_q15                              build/obj/arm_common_tables.o
                                                  build/obj/arm_const_structs.o
                                                  build/obj/arm_cfft_radix4_init_q15.o
                                                  build/obj/arm_cfft_radix2_init_q15.o
twiddleCoef_4096_q31                              build/obj/arm_common_tables.o
                                                  build/obj/arm_const_structs.o
                                                  build/obj/arm_cfft_radix4_init_q31.o
                                                  build/obj/arm_cfft_radix2_init_q31.o
twiddleCoef_512                                   build/obj/arm_common_tables.o
                                                  build/obj/arm_const_structs.o
                                                  build/obj/arm_rfft_fast_init_f32.o
twiddleCoef_512_q15                               build/obj/arm_common_tables.o
                                                  build/obj/arm_const_structs.o
twiddleCoef_512_q31                               build/obj/arm_common_tables.o
                                                  build/obj/arm_const_structs.o
twiddleCoef_64                                    build/obj/arm_common_tables.o
                                                  build/obj/arm_const_structs.o
                                                  build/obj/arm_rfft_fast_init_f32.o
twiddleCoef_64_q15                                build/obj/arm_common_tables.o
                                                  build/obj/arm_const_structs.o
twiddleCoef_64_q31                                build/obj/arm_common_tables.o
                                                  build/obj/arm_const_structs.o
twiddleCoef_rfft_1024                             build/obj/arm_common_tables.o
                                                  build/obj/arm_const_structs.o
                                                  build/obj/arm_rfft_fast_init_f32.o
twiddleCoef_rfft_128                              build/obj/arm_common_tables.o
                                                  build/obj/arm_const_structs.o
                                                  build/obj/arm_rfft_fast_init_f32.o
twiddleCoef_rfft_2048                             build/obj/arm_common_tables.o
                                                  build/obj/arm_const_structs.o
                                                  build/obj/arm_rfft_fast_init_f32.o
twiddleCoef_rfft_256                              build/obj/arm_common_tables.o
                                                  build/obj/arm_const_structs.o
                                                  build/obj/arm_rfft_fast_init_f32.o
twiddleCoef_rfft_32                               build/obj/arm_common_tables.o
                                                  build/obj/arm_const_structs.o
                                                  build/obj/arm_rfft_fast_init_f32.o
twiddleCoef_rfft_4096                             build/obj/arm_common_tables.o
                                                  build/obj/arm_const_structs.o
                                                  build/obj/arm_rfft_fast_init_f32.o
twiddleCoef_rfft_512                              build/obj/arm_common_tables.o
                                                  build/obj/arm_const_structs.o
                                                  build/obj/arm_rfft_fast_init_f32.o
twiddleCoef_rfft_64                               build/obj/arm_common_tables.o
                                                  build/obj/arm_const_structs.o
                                                  build/obj/arm_rfft_fast_init_f32.o
ui_init                                           build/obj/ui.o
                                                  build/obj/main.o
usbDisableEndpointsI                              build/obj/usb.o
usbInit                                           build/obj/usb.o
                                                  build/obj/hal.o
usbInitEndpointI                                  build/obj/usb.o
                                                  build/obj/usbcfg.o
usbObjectInit                                     build/obj/usb.o
                                                  build/obj/usb_lld.o
usbPrepareQueuedReceive                           build/obj/usb.o
                                                  build/obj/midi_usb.o
                                                  build/obj/bulk_usb.o
usbPrepareQueuedTransmit                          build/obj/usb.o
                                                  build/obj/midi_usb.o
                                                  build/obj/bulk_usb.o
usbPrepareReceive                                 build/obj/usb.o
usbPrepareTransmit                                build/obj/usb.o
usbStallReceiveI                                  build/obj/usb.o
usbStallTransmitI                                 build/obj/usb.o
usbStart                                          build/obj/usb.o
                                                  build/obj/pconnection.o
usbStartReceiveI                                  build/obj/usb.o
                                                  build/obj/midi_usb.o
                                                  build/obj/bulk_usb.o
usbStartTransmitI                                 build/obj/usb.o
                                                  build/obj/midi_usb.o
                                                  build/obj/bulk_usb.o
usbStop                                           build/obj/usb.o
usb_lld_clear_in                                  build/obj/usb_lld.o
                                                  build/obj/usb.o
usb_lld_clear_out                                 build/obj/usb_lld.o
                                                  build/obj/usb.o
usb_lld_disable_endpoints                         build/obj/usb_lld.o
                                                  build/obj/usb.o
usb_lld_get_status_in                             build/obj/usb_lld.o
                                                  build/obj/usb.o
usb_lld_get_status_out                            build/obj/usb_lld.o
                                                  build/obj/usb.o
usb_lld_init                                      build/obj/usb_lld.o
                                                  build/obj/usb.o
usb_lld_init_endpoint                             build/obj/usb_lld.o
                                                  build/obj/usb.o
usb_lld_prepare_receive                           build/obj/usb_lld.o
                                                  build/obj/usb.o
usb_lld_prepare_transmit                          build/obj/usb_lld.o
                                                  build/obj/usb.o
usb_lld_read_setup                                build/obj/usb_lld.o
                                                  build/obj/usb.o
usb_lld_reset                                     build/obj/usb_lld.o
                                                  build/obj/usb.o
usb_lld_set_address                               build/obj/usb_lld.o
                                                  build/obj/usb.o
usb_lld_stall_in                                  build/obj/usb_lld.o
                                                  build/obj/usb.o
usb_lld_stall_out                                 build/obj/usb_lld.o
                                                  build/obj/usb.o
usb_lld_start                                     build/obj/usb_lld.o
                                                  build/obj/usb.o
usb_lld_start_in                                  build/obj/usb_lld.o
                                                  build/obj/usb.o
usb_lld_start_out                                 build/obj/usb_lld.o
                                                  build/obj/usb.o
usb_lld_stop                                      build/obj/usb_lld.o
                                                  build/obj/usb.o
usbcfg                                            build/obj/usbcfg.o
                                                  build/obj/pconnection.o
usbh_MidiGetOutputBufferAvailable                 build/obj/usbh_midi_core.o
                                                  build/obj/midi.o
usbh_MidiGetOutputBufferPending                   build/obj/usbh_midi_core.o
                                                  build/obj/midi.o
usbh_MidiSend1                                    build/obj/usbh_midi_core.o
                                                  build/obj/midi.o
usbh_MidiSend2                                    build/obj/usbh_midi_core.o
                                                  build/obj/midi.o
usbh_MidiSend3                                    build/obj/usbh_midi_core.o
                                                  build/obj/midi.o
usbh_MidiSendSysEx                                build/obj/usbh_midi_core.o
                                                  build/obj/midi.o
usbh_midi_deinit_buffer                           build/obj/usbh_midi_core.o
usbh_midi_init                                    build/obj/usbh_midi_core.o
                                                  build/obj/usbh_vendor.o
                                                  build/obj/midi.o
usbh_midi_init_buffer                             build/obj/usbh_midi_core.o
usbh_midi_reset_buffer                            build/obj/usbh_midi_core.o
                                                  build/obj/usbh_vendor.o
v50_max                                           build/obj/sysmon.o
v50_min                                           build/obj/sysmon.o
void clouds::GranularSamplePlayer::Play<(clouds::Resolution)0>(clouds::AudioBuffer<(clouds::Resolution)0> const*, clouds::Parameters const&, float*, unsigned int) build/obj/granular_processor.o
void clouds::GranularSamplePlayer::Play<(clouds::Resolution)3>(clouds::AudioBuffer<(clouds::Resolution)3> const*, clouds::Parameters const&, float*, unsigned int) build/obj/granular_processor.o
void elements::String::ProcessInternal<false>(float const*, float*, float*, unsigned int) build/obj/string.o
void elements::String::ProcessInternal<true>(float const*, float*, float*, unsigned int) build/obj/string.o
void warps::Modulator::ProcessXmod<(warps::XmodAlgorithm)0, (warps::XmodAlgorithm)1>(float, float, float, float, float const*, float const*, float*, unsigned int) build/obj/modulator.o
void warps::Modulator::ProcessXmod<(warps::XmodAlgorithm)1, (warps::XmodAlgorithm)2>(float, float, float, float, float const*, float const*, float*, unsigned int) build/obj/modulator.o
void warps::Modulator::ProcessXmod<(warps::XmodAlgorithm)2, (warps::XmodAlgorithm)3>(float, float, float, float, float const*, float const*, float*, unsigned int) build/obj/modulator.o
void warps::Modulator::ProcessXmod<(warps::XmodAlgorithm)3, (warps::XmodAlgorithm)4>(float, float, float, float, float const*, float const*, float*, unsigned int) build/obj/modulator.o
void warps::Modulator::ProcessXmod<(warps::XmodAlgorithm)4, (warps::XmodAlgorithm)5>(float, float, float, float, float const*, float const*, float*, unsigned int) build/obj/modulator.o
void warps::Modulator::ProcessXmod<(warps::XmodAlgorithm)5, (warps::XmodAlgorithm)6>(float, float, float, float, float const*, float const*, float*, unsigned int) build/obj/modulator.o
voltage_50                                        build/obj/sysmon.o
vtlist                                            build/obj/chvt.o
                                                  build/obj/chthreads.o
                                                  build/obj/chsys.o
wait_SPI_fsync                                    build/obj/codec.o
warps::FilterBank::Analyze(float const*, unsigned int) build/obj/filter_bank.o
                                                  build/obj/vocoder.o
warps::FilterBank::Init(float)                    build/obj/filter_bank.o
                                                  build/obj/vocoder.o
warps::FilterBank::Synthesize(float*, unsigned int) build/obj/filter_bank.o
                                                  build/obj/vocoder.o
warps::Modulator::Init(float)                     build/obj/modulator.o
warps::Modulator::Process(warps::ShortFrame*, warps::ShortFrame*, unsigned int) build/obj/modulator.o
warps::Modulator::ProcessEasterEgg(warps::ShortFrame*, warps::ShortFrame*, unsigned int) build/obj/modulator.o
warps::Modulator::xmod_table_                     build/obj/modulator.o
warps::Oscillator::Duck(float const*, float const*, float*, unsigned int) build/obj/oscillator.o
warps::Oscillator::Init(float)                    build/obj/oscillator.o
                                                  build/obj/modulator.o
warps::Oscillator::Render(warps::OscillatorShape, float, float*, float*, unsigned int) build/obj/oscillator.o
                                                  build/obj/modulator.o
warps::Oscillator::RenderNoise(float, float*, float*, unsigned int) build/obj/oscillator.o
warps::Oscillator::RenderSine(float, float*, float*, unsigned int) build/obj/oscillator.o
warps::Oscillator::fn_table_                      build/obj/oscillator.o
warps::SampleRateConverter<(warps::SampleRateConversionDirection)1, 4l, 48l>::Process(float const*, float*, unsigned int) build/obj/filter_bank.o
warps::Vocoder::Init(float)                       build/obj/vocoder.o
                                                  build/obj/modulator.o
warps::Vocoder::Process(float const*, float const*, float*, unsigned int) build/obj/vocoder.o
                                                  build/obj/modulator.o
warps::fb_1109_12000                              build/obj/warps_resources.o
warps::fb_110_3000                                build/obj/warps_resources.o
warps::fb_1397_12000                              build/obj/warps_resources.o
warps::fb_139_3000                                build/obj/warps_resources.o
warps::fb_175_3000                                build/obj/warps_resources.o
warps::fb_1760_12000                              build/obj/warps_resources.o
warps::fb_220_3000                                build/obj/warps_resources.o
warps::fb_2217_12000                              build/obj/warps_resources.o
warps::fb_277_3000                                build/obj/warps_resources.o
warps::fb_2794_48000                              build/obj/warps_resources.o
warps::fb_349_3000                                build/obj/warps_resources.o
warps::fb_3520_48000                              build/obj/warps_resources.o
warps::fb_440_3000                                build/obj/warps_resources.o
warps::fb_4435_48000                              build/obj/warps_resources.o
warps::fb_554_3000                                build/obj/warps_resources.o
warps::fb_5588_48000                              build/obj/warps_resources.o
warps::fb_698_12000                               build/obj/warps_resources.o
warps::fb_7040_48000                              build/obj/warps_resources.o
warps::fb_880_12000                               build/obj/warps_resources.o
warps::fb__87_3000                                build/obj/warps_resources.o
warps::filter_bank_table                          build/obj/warps_resources.o
                                                  build/obj/filter_bank.o
warps::lookup_table_table                         build/obj/warps_resources.o
warps::lut_ap_poles                               build/obj/warps_resources.o
                                                  build/obj/modulator.o
warps::lut_bipolar_fold                           build/obj/warps_resources.o
                                                  build/obj/modulator.o
warps::lut_midi_to_f_high                         build/obj/warps_resources.o
                                                  build/obj/oscillator.o
warps::lut_midi_to_f_low                          build/obj/warps_resources.o
                                                  build/obj/oscillator.o
warps::lut_pot_curve                              build/obj/warps_resources.o
warps::lut_sin                                    build/obj/warps_resources.o
                                                  build/obj/oscillator.o
                                                  build/obj/modulator.o
warps::lut_xfade_in                               build/obj/warps_resources.o
                                                  build/obj/modulator.o
warps::lut_xfade_out                              build/obj/warps_resources.o
                                                  build/obj/modulator.o
warps::wav_buzzy_i                                build/obj/warps_resources.o
warps::wav_buzzy_q                                build/obj/warps_resources.o
warps::wav_harmonics_i                            build/obj/warps_resources.o
warps::wav_harmonics_q                            build/obj/warps_resources.o
warps::wav_sine_i                                 build/obj/warps_resources.o
warps::wav_sine_q                                 build/obj/warps_resources.o
warps::wav_table                                  build/obj/warps_resources.o
                                                  build/obj/modulator.o
watchdog_feed                                     build/obj/watchdog.o
                                                  build/obj/exceptions.o
                                                  build/obj/crc32.o
                                                  build/obj/flash.o
                                                  build/obj/patch.o
watchdog_init                                     build/obj/watchdog.o
windowt                                           build/obj/axoloti_math.o
